This is generated from
    openssl req -new -x509 -key BoringSSLCATest.key -out BoringSSLCATest.crt \
      -config caconfig -days 30

Certificate:
    Data:
        Version: 3 (0x2)
        Serial Number:
            1e:51:13:9d:9c:81:90:38:25:32:72:51:f3:33:1b:70:d0:9b:6a:5c
        Signature Algorithm: sha256WithRSAEncryption
        Issuer: C=DE, ST=Freistaat Bayern, L=Muenchen, O=Google Germany GmbH, OU=ISE Crypto, CN=BoringSSL Authors, emailAddress=boringssl@google.com
        Validity
            Not Before: Jan 22 09:53:41 2026 GMT
            Not After : Feb 21 09:53:41 2026 GMT
        Subject: C=DE, ST=Freistaat Bayern, L=Muenchen, O=Google Germany GmbH, OU=ISE Crypto, CN=BoringSSL Authors, emailAddress=boringssl@google.com
        Subject Public Key Info:
            Public Key Algorithm: rsaEncryption
                Public-Key: (4096 bit)
                Modulus:
                    00:d9:6c:65:59:51:32:fa:a5:6e:ab:93:a3:f7:45:
                    c9:75:97:54:0b:6e:5f:fb:6f:2f:d7:ed:5b:bc:57:
                    1b:a8:8e:aa:be:03:5c:38:78:4c:92:2c:5f:1c:b2:
                    39:a4:a4:53:9d:b9:d7:dd:7a:00:af:4d:4d:93:6a:
                    5b:07:3c:10:bf:bc:02:3e:85:b9:a9:96:3f:52:ba:
                    c5:06:15:ac:ac:66:54:26:55:77:dc:86:11:8f:a6:
                    9c:7b:49:f1:16:f7:3a:62:26:d4:fe:a9:69:6c:22:
                    79:c2:92:62:2d:6c:1e:63:5e:07:41:8a:39:27:41:
                    34:c0:99:57:22:cc:30:8c:95:e7:5c:3d:f2:26:e9:
                    4d:29:9e:c9:69:37:3d:47:f5:5e:69:3c:43:4e:b6:
                    d3:52:e1:97:77:0e:1a:69:2e:ea:8a:fe:50:68:19:
                    f2:38:eb:05:58:56:8a:39:22:83:3c:ae:e3:87:48:
                    ad:fc:30:56:43:5d:6c:75:e4:e2:fd:cd:1f:d3:a7:
                    81:52:1d:7f:dd:39:57:03:1f:d5:ed:be:e4:23:94:
                    23:6d:70:b6:d7:84:ec:80:7d:ec:f4:ca:44:e2:a7:
                    61:eb:16:5f:dd:a2:4e:6d:99:8f:30:9c:b7:75:74:
                    da:83:41:42:ae:56:44:21:7b:71:cf:7d:a8:b5:32:
                    8f:91:b3:30:a1:f4:ea:10:cf:3e:0d:37:3c:fe:a3:
                    fa:f2:26:68:a5:16:40:be:b9:e7:ae:e0:e1:eb:6c:
                    65:c2:08:bd:d7:32:7e:a7:5c:09:f3:d5:40:de:c8:
                    9d:c4:fd:05:e0:6a:12:93:60:35:b6:a4:7a:6b:a7:
                    35:a0:86:b2:80:f6:51:6c:49:a1:b4:26:1f:a2:7b:
                    20:ff:14:fe:36:f1:1a:3e:2b:3c:cf:3e:9f:07:24:
                    d3:fa:ad:b6:88:a6:3f:98:a1:19:01:eb:e4:7b:e9:
                    ec:b3:58:56:39:bb:f3:70:58:d6:87:4e:83:1a:df:
                    48:af:96:fb:70:3e:73:93:df:84:ab:6d:54:bb:0b:
                    6d:dd:65:d2:9a:5f:a2:ed:b3:b4:7b:54:ee:49:fd:
                    fd:44:54:3a:2d:d6:b0:c9:62:89:e2:ee:71:e1:60:
                    73:3a:dd:1c:05:fb:f5:97:9d:8f:82:9b:ac:42:32:
                    77:42:d9:60:77:59:2c:0a:4e:cd:b6:cd:c5:e1:5d:
                    d2:00:31:c8:d2:a7:57:46:69:1a:6f:b6:ab:f3:92:
                    e2:42:38:2f:c7:5f:b3:03:d0:04:70:05:7f:5f:6d:
                    4c:18:69:90:95:a8:9c:02:44:ac:96:88:f5:fc:4d:
                    81:4a:de:e3:5e:1e:57:c1:2d:ba:8e:f3:2b:39:ae:
                    ab:8d:05
                Exponent: 65537 (0x10001)
        X509v3 extensions:
            X509v3 Subject Key Identifier:
                EA:1B:59:1E:5D:E3:33:29:41:7F:D7:58:88:63:D4:2A:28:06:78:10
            X509v3 Authority Key Identifier:
                EA:1B:59:1E:5D:E3:33:29:41:7F:D7:58:88:63:D4:2A:28:06:78:10
            X509v3 Basic Constraints: critical
                CA:TRUE
            X509v3 Key Usage: critical
                Digital Signature, Certificate Sign, CRL Sign
    Signature Algorithm: sha256WithRSAEncryption
    Signature Value:
        d8:72:63:ba:c9:8d:26:18:12:d0:ab:51:e3:6a:ca:29:83:af:
        d0:b1:42:ae:36:d6:23:92:d3:c7:e3:f4:1a:d9:16:14:da:3f:
        97:9a:ff:36:5f:83:ed:f8:d8:f2:8f:7a:2a:73:7a:8d:7a:5b:
        91:ce:b8:17:e8:42:29:f4:13:1e:e5:2e:3f:bf:0e:fb:de:20:
        69:c3:46:9e:67:66:26:dc:52:8e:c8:59:d8:f5:1d:ad:d4:04:
        ac:e0:26:71:2e:a6:86:b2:97:37:44:cc:b0:fb:e6:72:20:83:
        12:7a:98:07:f3:a6:27:ba:a2:18:ff:40:ad:ca:33:be:a5:23:
        d6:2f:0e:d1:75:d3:a1:6f:8b:bb:a9:7e:e0:fd:18:e1:44:35:
        84:56:55:72:86:72:35:bc:e5:50:77:69:e8:f2:b6:cc:3e:b6:
        bf:e4:5b:ac:17:c4:84:ff:e8:d5:be:f4:7a:00:de:59:8e:2a:
        65:da:71:58:4e:d0:26:80:f0:4b:85:30:cd:c3:8c:02:2f:b4:
        dc:82:c7:f7:f0:02:4b:67:5d:d8:a1:d7:4d:64:93:6b:a4:ec:
        5c:d9:52:bd:28:b8:6a:02:a6:bc:29:74:f5:bd:4d:a2:36:a6:
        57:95:42:2f:ee:1f:5d:63:6a:d2:0a:a2:f7:04:4a:6c:ca:0a:
        17:3a:9e:9a:fe:72:05:58:59:84:77:61:a0:73:8d:2b:5a:c7:
        d5:98:8f:a7:de:bd:5f:25:cf:f4:01:7c:74:0e:04:49:1e:0a:
        2b:6f:2f:7f:e7:e3:c7:ce:77:43:73:10:3d:f0:a4:fc:0a:3b:
        21:1d:e0:0e:3e:4d:3a:e0:23:0a:59:ea:5b:15:07:d1:2c:e4:
        22:4d:da:01:5d:d2:94:89:0b:7a:3c:9f:35:bf:2c:36:b5:4d:
        8e:7c:88:60:0d:74:5d:b4:f0:cc:25:c7:c7:93:a4:fa:26:fa:
        6e:13:f6:03:58:6f:97:7e:cd:e3:c4:cd:aa:ae:64:5e:2a:cb:
        70:4b:df:13:3e:2b:07:3b:d8:e8:a8:91:eb:fa:a8:09:60:5c:
        b3:da:d3:10:6e:23:8e:d7:95:34:01:16:3c:08:fc:f1:a3:41:
        1b:3a:45:a2:32:95:58:05:f5:b3:12:00:60:6e:49:a5:a3:ca:
        24:5d:eb:a8:e8:73:55:64:1c:13:f5:ba:e2:ba:6c:0c:15:66:
        55:40:6c:55:e6:4e:60:27:91:45:23:7c:e6:8e:ed:f5:ce:e4:
        09:9e:32:45:d8:63:21:e8:3a:9f:91:a5:52:c2:27:de:ff:35:
        31:3f:39:cc:d8:c6:0e:8c:be:58:2b:f4:77:06:ac:d7:fb:76:
        58:15:30:28:df:9e:94:e2

-----BEGIN CERTIFICATE-----
MIIGUTCCBDmgAwIBAgIUHlETnZyBkDglMnJR8zMbcNCbalwwDQYJKoZIhvcNAQEL
BQAwga8xCzAJBgNVBAYTAkRFMRkwFwYDVQQIDBBGcmVpc3RhYXQgQmF5ZXJuMREw
DwYDVQQHDAhNdWVuY2hlbjEcMBoGA1UECgwTR29vZ2xlIEdlcm1hbnkgR21iSDET
MBEGA1UECwwKSVNFIENyeXB0bzEaMBgGA1UEAwwRQm9yaW5nU1NMIEF1dGhvcnMx
IzAhBgkqhkiG9w0BCQEWFGJvcmluZ3NzbEBnb29nbGUuY29tMB4XDTI2MDEyMjA5
NTM0MVoXDTI2MDIyMTA5NTM0MVowga8xCzAJBgNVBAYTAkRFMRkwFwYDVQQIDBBG
cmVpc3RhYXQgQmF5ZXJuMREwDwYDVQQHDAhNdWVuY2hlbjEcMBoGA1UECgwTR29v
Z2xlIEdlcm1hbnkgR21iSDETMBEGA1UECwwKSVNFIENyeXB0bzEaMBgGA1UEAwwR
Qm9yaW5nU1NMIEF1dGhvcnMxIzAhBgkqhkiG9w0BCQEWFGJvcmluZ3NzbEBnb29n
bGUuY29tMIICIjANBgkqhkiG9w0BAQEFAAOCAg8AMIICCgKCAgEA2WxlWVEy+qVu
q5Oj90XJdZdUC25f+28v1+1bvFcbqI6qvgNcOHhMkixfHLI5pKRTnbnX3XoAr01N
k2pbBzwQv7wCPoW5qZY/UrrFBhWsrGZUJlV33IYRj6ace0nxFvc6YibU/qlpbCJ5
wpJiLWweY14HQYo5J0E0wJlXIswwjJXnXD3yJulNKZ7JaTc9R/VeaTxDTrbTUuGX
dw4aaS7qiv5QaBnyOOsFWFaKOSKDPK7jh0it/DBWQ11sdeTi/c0f06eBUh1/3TlX
Ax/V7b7kI5QjbXC214TsgH3s9MpE4qdh6xZf3aJObZmPMJy3dXTag0FCrlZEIXtx
z32otTKPkbMwofTqEM8+DTc8/qP68iZopRZAvrnnruDh62xlwgi91zJ+p1wJ89VA
3sidxP0F4GoSk2A1tqR6a6c1oIaygPZRbEmhtCYfonsg/xT+NvEaPis8zz6fByTT
+q22iKY/mKEZAevke+nss1hWObvzcFjWh06DGt9Ir5b7cD5zk9+Eq21Uuwtt3WXS
ml+i7bO0e1TuSf39RFQ6LdawyWKJ4u5x4WBzOt0cBfv1l52PgpusQjJ3Qtlgd1ks
Ck7Nts3F4V3SADHI0qdXRmkab7ar85LiQjgvx1+zA9AEcAV/X21MGGmQlaicAkSs
loj1/E2BSt7jXh5XwS26jvMrOa6rjQUCAwEAAaNjMGEwHQYDVR0OBBYEFOobWR5d
4zMpQX/XWIhj1CooBngQMB8GA1UdIwQYMBaAFOobWR5d4zMpQX/XWIhj1CooBngQ
MA8GA1UdEwEB/wQFMAMBAf8wDgYDVR0PAQH/BAQDAgGGMA0GCSqGSIb3DQEBCwUA
A4ICAQDYcmO6yY0mGBLQq1Hjasopg6/QsUKuNtYjktPH4/Qa2RYU2j+Xmv82X4Pt
+Njyj3oqc3qNeluRzrgX6EIp9BMe5S4/vw773iBpw0aeZ2Ym3FKOyFnY9R2t1ASs
4CZxLqaGspc3RMyw++ZyIIMSepgH86YnuqIY/0CtyjO+pSPWLw7RddOhb4u7qX7g
/RjhRDWEVlVyhnI1vOVQd2no8rbMPra/5FusF8SE/+jVvvR6AN5Zjipl2nFYTtAm
gPBLhTDNw4wCL7Tcgsf38AJLZ13YoddNZJNrpOxc2VK9KLhqAqa8KXT1vU2iNqZX
lUIv7h9dY2rSCqL3BEpsygoXOp6a/nIFWFmEd2Ggc40rWsfVmI+n3r1fJc/0AXx0
DgRJHgorby9/5+PHzndDcxA98KT8CjshHeAOPk064CMKWepbFQfRLOQiTdoBXdKU
iQt6PJ81vyw2tU2OfIhgDXRdtPDMJcfHk6T6JvpuE/YDWG+Xfs3jxM2qrmReKstw
S98TPisHO9joqJHr+qgJYFyz2tMQbiOO15U0ARY8CPzxo0EbOkWiMpVYBfWzEgBg
bkmlo8okXeuo6HNVZBwT9briumwMFWZVQGxV5k5gJ5FFI3zmju31zuQJnjJF2GMh
6DqfkaVSwife/zUxPznM2MYOjL5YK/R3BqzX+3ZYFTAo356U4g==
-----END CERTIFICATE-----
