This is generated from
    openssl x509 -req -in server.csr -CA BoringSSLCATest.crt \
      -CAkey BoringSSLCATest.key -CAcreateserial \
      -out BoringSSLServerTest-RSA.crt -extfile svcconfig -days 730500
Certificate:
    Data:
        Version: 3 (0x2)
        Serial Number:
            50:2d:32:51:7b:b9:51:f0:df:6e:4e:c3:05:1f:2c:4b:af:cd:52:73
        Signature Algorithm: sha256WithRSAEncryption
        Issuer: C=DE, ST=Freistaat Bayern, L=Muenchen, O=Google Germany GmbH, OU=ISE Crypto, CN=BoringSSL Authors, emailAddress=boringssl@google.com
        Validity
            Not Before: Jan 22 10:40:09 2026 GMT
            Not After : Feb  6 10:40:09 4026 GMT
        Subject: CN=www.google.com
        Subject Public Key Info:
            Public Key Algorithm: rsaEncryption
                Public-Key: (4096 bit)
                Modulus:
                    00:f7:a2:3f:8e:9e:a5:9a:f7:eb:c5:cf:d5:31:3b:
                    c0:ca:02:83:3a:81:90:9a:8d:47:d4:3c:c1:f2:61:
                    3d:87:11:25:7f:bc:b9:a4:dc:7f:3e:7d:30:1e:32:
                    8d:ec:d5:e0:b5:b2:47:b3:77:3d:2d:2e:61:dd:ad:
                    03:62:2d:e0:19:c8:fb:1f:43:ef:ed:cd:a2:96:8c:
                    61:27:fc:7d:9e:42:90:07:79:c8:87:f5:3a:ff:f9:
                    0e:25:b3:b2:67:45:3e:6b:a6:bf:0c:8d:ac:78:00:
                    8a:5d:6c:dd:97:8c:f6:1f:2f:73:c8:ed:af:39:73:
                    81:a5:38:fc:ed:a6:0c:1c:46:45:49:98:19:cd:4c:
                    3b:63:ac:67:9a:d8:95:36:46:b6:47:ec:cd:bd:84:
                    ca:8b:34:6e:5e:67:f0:1f:4f:c7:7e:57:97:3f:e6:
                    b9:7e:b1:f6:66:41:26:2b:3e:9f:1a:88:48:58:46:
                    7e:6d:6a:74:f0:4a:6f:f4:51:2d:cb:22:45:33:c1:
                    77:4d:c7:8a:0d:ad:0d:dc:6a:8e:5c:87:3a:a9:a7:
                    dc:df:45:0b:d8:36:5a:c9:3f:5c:2a:dc:9d:81:1d:
                    30:bd:0d:03:5d:cb:8d:f8:5d:31:81:76:97:c1:1f:
                    14:0c:54:3d:30:41:c4:7b:96:6f:8c:2a:2f:2a:fb:
                    fc:96:59:5f:7a:f6:48:4a:eb:8f:a6:c6:59:e1:e1:
                    05:27:cc:7d:c0:60:77:dd:8f:a2:7c:86:c1:d7:3e:
                    05:18:ad:54:c4:68:8f:10:d6:c7:f2:63:d8:17:bd:
                    8f:c3:29:08:9b:15:af:19:eb:a2:16:23:67:b8:b8:
                    b1:ee:ee:32:d3:8f:31:4b:19:c2:4e:f9:3e:9a:bf:
                    77:ec:b9:e9:d9:c7:9f:82:21:b8:2d:4d:ed:9c:30:
                    b1:b2:86:c1:38:22:3a:fe:08:21:fe:2e:94:d0:b9:
                    5a:ef:8f:b0:15:74:b2:df:37:28:59:fd:48:92:eb:
                    a2:6a:17:4f:90:0f:78:b9:d3:59:22:f6:10:b9:35:
                    a5:ea:21:c9:0b:55:3e:56:00:f4:6a:37:17:d9:94:
                    5a:d7:ec:76:6d:5d:22:9b:d0:bf:f1:03:b0:66:91:
                    8d:ae:ae:ee:6c:00:e8:03:ad:1a:c5:18:80:15:b0:
                    cb:af:2d:3e:b4:25:fc:01:db:70:09:fe:44:d0:2d:
                    f3:be:25:55:82:c9:a0:36:f6:be:0d:d7:39:a7:51:
                    9f:a7:ee:67:8a:a8:34:e6:f5:6d:82:54:bf:bc:07:
                    a6:26:da:0f:d6:58:f8:93:53:f9:f3:23:73:b5:69:
                    22:cf:ef:af:0a:77:07:53:a2:59:59:96:36:8a:11:
                    d0:ac:2d
                Exponent: 65537 (0x10001)
        X509v3 extensions:
            X509v3 Authority Key Identifier:
                EA:1B:59:1E:5D:E3:33:29:41:7F:D7:58:88:63:D4:2A:28:06:78:10
            X509v3 Basic Constraints:
                CA:FALSE
            X509v3 Key Usage:
                Digital Signature, Non Repudiation, Key Encipherment, Data Encipherment
            X509v3 Subject Alternative Name:
                DNS:www.google.com, DNS:localhost
            X509v3 Subject Key Identifier:
                3B:BF:82:CA:BD:B0:B7:0D:60:E4:DD:A5:3B:FC:AF:6A:F6:8A:A2:28
    Signature Algorithm: sha256WithRSAEncryption
    Signature Value:
        c7:85:d7:41:f9:b1:67:7a:72:39:46:01:05:25:5f:9e:45:a1:
        06:3f:19:dd:31:30:ed:2f:9e:37:e6:fc:b7:55:e9:38:8d:77:
        5f:aa:ba:26:8f:4e:bf:d6:ff:d2:0e:46:41:d6:3c:5f:65:83:
        67:b6:46:a6:31:58:70:61:13:5e:6d:6c:2f:49:68:e8:eb:94:
        78:f5:a1:5a:0f:c6:d0:29:c2:86:bc:13:fc:9a:08:d5:d4:58:
        76:e6:85:2b:76:1b:d2:24:56:3d:0f:d0:f6:14:23:ed:48:3e:
        56:57:f9:c2:45:d0:ba:b7:01:df:50:97:bc:3d:74:dd:ac:c3:
        18:72:a7:66:9a:14:eb:22:33:89:bd:ad:f5:36:44:9a:71:6a:
        78:b9:bd:e4:9a:a8:bf:de:c7:18:d8:6b:09:81:d9:d6:3f:a4:
        11:df:18:68:58:e4:8a:8a:d3:31:28:eb:cc:59:a6:5f:89:62:
        23:b2:ee:09:86:fd:33:b6:ba:84:5a:fe:10:57:c7:ab:16:eb:
        69:44:84:67:bd:8a:89:22:d5:f7:91:d5:4c:99:00:45:dc:c7:
        90:e8:7e:60:5e:e8:f7:e4:90:22:8c:bd:a2:0b:58:67:6a:ca:
        7a:89:f9:fa:73:24:ac:39:29:0e:eb:cf:bc:82:72:b7:8d:52:
        59:a3:7c:bb:72:0d:05:79:c3:90:1f:31:05:fc:7b:54:f1:7e:
        fd:78:99:6c:21:74:cc:83:95:3f:09:e6:77:7f:16:6c:0f:3e:
        71:24:31:ef:b8:95:3a:7a:2d:31:de:fa:33:7c:45:d7:ce:50:
        9f:9d:82:95:27:b1:78:5c:ba:8f:49:02:37:a4:3f:ac:bc:1d:
        51:c2:73:ac:75:9d:fe:8d:ee:94:81:60:95:45:3c:c4:ba:34:
        25:3e:01:04:da:a0:0f:ed:b9:96:3a:81:ae:2f:d2:aa:0c:73:
        05:f9:ec:79:90:6e:69:a7:aa:3d:ce:76:31:95:db:55:ef:64:
        69:d1:e2:e7:e8:71:04:3c:14:d5:97:ad:b9:6e:20:bd:33:3d:
        f2:d5:22:f0:c3:be:63:35:e1:7d:f8:81:6d:ac:60:ff:52:f1:
        64:cc:b7:9c:bd:f4:bb:61:10:d7:a9:ba:6d:1a:e5:54:cc:4c:
        7d:1a:8d:8a:85:0d:3a:91:8a:f3:7b:fd:6a:a5:66:3e:3a:34:
        f6:df:f2:6e:26:b6:e0:b2:1b:28:f3:b7:bc:0c:6f:c7:7f:0c:
        a5:0a:51:07:be:be:bb:7b:48:50:ae:f8:5e:2c:01:7b:8a:7a:
        33:e2:30:39:53:a2:55:eb:4d:86:cf:eb:d4:21:63:9c:58:d6:
        6e:1d:42:79:d3:3c:40:f4

-----BEGIN CERTIFICATE-----
MIIF2jCCA8KgAwIBAgIUUC0yUXu5UfDfbk7DBR8sS6/NUnMwDQYJKoZIhvcNAQEL
BQAwga8xCzAJBgNVBAYTAkRFMRkwFwYDVQQIDBBGcmVpc3RhYXQgQmF5ZXJuMREw
DwYDVQQHDAhNdWVuY2hlbjEcMBoGA1UECgwTR29vZ2xlIEdlcm1hbnkgR21iSDET
MBEGA1UECwwKSVNFIENyeXB0bzEaMBgGA1UEAwwRQm9yaW5nU1NMIEF1dGhvcnMx
IzAhBgkqhkiG9w0BCQEWFGJvcmluZ3NzbEBnb29nbGUuY29tMCAXDTI2MDEyMjEw
NDAwOVoYDzQwMjYwMjA2MTA0MDA5WjAZMRcwFQYDVQQDDA53d3cuZ29vZ2xlLmNv
bTCCAiIwDQYJKoZIhvcNAQEBBQADggIPADCCAgoCggIBAPeiP46epZr368XP1TE7
wMoCgzqBkJqNR9Q8wfJhPYcRJX+8uaTcfz59MB4yjezV4LWyR7N3PS0uYd2tA2It
4BnI+x9D7+3NopaMYSf8fZ5CkAd5yIf1Ov/5DiWzsmdFPmumvwyNrHgAil1s3ZeM
9h8vc8jtrzlzgaU4/O2mDBxGRUmYGc1MO2OsZ5rYlTZGtkfszb2Eyos0bl5n8B9P
x35Xlz/muX6x9mZBJis+nxqISFhGfm1qdPBKb/RRLcsiRTPBd03Hig2tDdxqjlyH
Oqmn3N9FC9g2Wsk/XCrcnYEdML0NA13LjfhdMYF2l8EfFAxUPTBBxHuWb4wqLyr7
/JZZX3r2SErrj6bGWeHhBSfMfcBgd92PonyGwdc+BRitVMRojxDWx/Jj2Be9j8Mp
CJsVrxnrohYjZ7i4se7uMtOPMUsZwk75Ppq/d+y56dnHn4IhuC1N7ZwwsbKGwTgi
Ov4IIf4ulNC5Wu+PsBV0st83KFn9SJLromoXT5APeLnTWSL2ELk1peohyQtVPlYA
9Go3F9mUWtfsdm1dIpvQv/EDsGaRja6u7mwA6AOtGsUYgBWwy68tPrQl/AHbcAn+
RNAt874lVYLJoDb2vg3XOadRn6fuZ4qoNOb1bYJUv7wHpibaD9ZY+JNT+fMjc7Vp
Is/vrwp3B1OiWVmWNooR0KwtAgMBAAGjgYAwfjAfBgNVHSMEGDAWgBTqG1keXeMz
KUF/11iIY9QqKAZ4EDAJBgNVHRMEAjAAMAsGA1UdDwQEAwIE8DAkBgNVHREEHTAb
gg53d3cuZ29vZ2xlLmNvbYIJbG9jYWxob3N0MB0GA1UdDgQWBBQ7v4LKvbC3DWDk
3aU7/K9q9oqiKDANBgkqhkiG9w0BAQsFAAOCAgEAx4XXQfmxZ3pyOUYBBSVfnkWh
Bj8Z3TEw7S+eN+b8t1XpOI13X6q6Jo9Ov9b/0g5GQdY8X2WDZ7ZGpjFYcGETXm1s
L0lo6OuUePWhWg/G0CnChrwT/JoI1dRYduaFK3Yb0iRWPQ/Q9hQj7Ug+Vlf5wkXQ
urcB31CXvD103azDGHKnZpoU6yIzib2t9TZEmnFqeLm95Jqov97HGNhrCYHZ1j+k
Ed8YaFjkiorTMSjrzFmmX4liI7LuCYb9M7a6hFr+EFfHqxbraUSEZ72KiSLV95HV
TJkARdzHkOh+YF7o9+SQIoy9ogtYZ2rKeon5+nMkrDkpDuvPvIJyt41SWaN8u3IN
BXnDkB8xBfx7VPF+/XiZbCF0zIOVPwnmd38WbA8+cSQx77iVOnotMd76M3xF185Q
n52ClSexeFy6j0kCN6Q/rLwdUcJzrHWd/o3ulIFglUU8xLo0JT4BBNqgD+25ljqB
ri/SqgxzBfnseZBuaaeqPc52MZXbVe9kadHi5+hxBDwU1ZetuW4gvTM98tUi8MO+
YzXhffiBbaxg/1LxZMy3nL30u2EQ16m6bRrlVMxMfRqNioUNOpGK83v9aqVmPjo0
9t/ybia24LIbKPO3vAxvx38MpQpRB76+u3tIUK74XiwBe4p6M+IwOVOiVetNhs/r
1CFjnFjWbh1CedM8QPQ=
-----END CERTIFICATE-----
