Certificate:
    Data:
        Version: 3 (0x2)
        Serial Number:
            0f:82:2b:46:d4:3a:07:25:b4:f4:89:bf:e8:3d:62:dd
    Signature Algorithm: ecdsa-with-SHA384
        Issuer: C=US, O=GeoTrust Inc., OU=(c) 2007 GeoTrust Inc. - For authorized use only, CN=GeoTrust Primary Certification Authority - G2
        Validity
            Not Before: Jun 12 00:00:00 2014 GMT
            Not After : Jun 11 23:59:59 2029 GMT
        Subject: CN=Apple IST CA 7 - G1, OU=Certification Authority, O=Apple Inc., C=US
        Subject Public Key Info:
            Public Key Algorithm: id-ecPublicKey
                Public-Key: (256 bit)
                pub: 
                    04:55:9a:69:4d:4b:e2:14:d3:a7:ff:6a:c4:22:d4:
                    dd:76:64:e0:64:a6:1d:2a:4d:47:b1:4b:13:4a:3e:
                    a6:d2:37:18:df:b4:3b:69:b3:fc:20:c8:43:4c:3f:
                    26:5c:c0:e6:9f:6d:da:05:ff:d2:ae:58:f0:a4:a1:
                    f1:b4:59:b1:8c
                ASN1 OID: prime256v1
        X509v3 extensions:
            Authority Information Access: 
                OCSP - URI:http://g.symcd.com

            X509v3 Basic Constraints: critical
                CA:TRUE, pathlen:0
            X509v3 Certificate Policies: 
                Policy: 2.16.840.1.113733.1.7.54
                  CPS: http://www.geotrust.com/resources/cps

            X509v3 CRL Distribution Points: 

                Full Name:
                  URI:http://g.symcb.com/GeoTrustPCA-G2.crl

            X509v3 Key Usage: critical
                Certificate Sign, CRL Sign
            X509v3 Subject Key Identifier: 
                59:95:70:92:60:4C:D5:B7:8F:91:BD:7F:CC:CA:7E:2A:B4:1F:C1:B1
            X509v3 Authority Key Identifier: 
                keyid:15:5F:35:57:51:55:FB:25:B2:AD:03:69:FC:01:A3:FA:BE:11:55:D5

    Signature Algorithm: ecdsa-with-SHA384
         30:64:02:30:23:a7:3c:33:7b:d4:2b:a8:8f:03:e7:ad:bf:71:
         84:7a:43:f3:ed:44:c9:71:39:9f:c9:71:fc:34:b1:40:f8:01:
         75:e7:1c:b4:b5:7d:c7:12:b3:e6:fd:dd:95:b6:c2:52:02:30:
         58:7c:de:e9:33:c0:d9:d4:59:95:79:b7:93:71:0c:7d:b2:57:
         ef:ad:35:e9:34:54:d2:47:2a:df:77:16:81:64:48:65:55:d1:
         5d:b8:32:4d:f5:4b:f9:34:c1:ca:f7:e8
-----BEGIN CERTIFICATE-----
MIIDODCCAr+gAwIBAgIQD4IrRtQ6ByW09Im/6D1i3TAKBggqhkjOPQQDAzCBmDEL
MAkGA1UEBhMCVVMxFjAUBgNVBAoTDUdlb1RydXN0IEluYy4xOTA3BgNVBAsTMChj
KSAyMDA3IEdlb1RydXN0IEluYy4gLSBGb3IgYXV0aG9yaXplZCB1c2Ugb25seTE2
MDQGA1UEAxMtR2VvVHJ1c3QgUHJpbWFyeSBDZXJ0aWZpY2F0aW9uIEF1dGhvcml0
eSAtIEcyMB4XDTE0MDYxMjAwMDAwMFoXDTI5MDYxMTIzNTk1OVowYjEcMBoGA1UE
AwwTQXBwbGUgSVNUIENBIDcgLSBHMTEgMB4GA1UECwwXQ2VydGlmaWNhdGlvbiBB
dXRob3JpdHkxEzARBgNVBAoMCkFwcGxlIEluYy4xCzAJBgNVBAYTAlVTMFkwEwYH
KoZIzj0CAQYIKoZIzj0DAQcDQgAEVZppTUviFNOn/2rEItTddmTgZKYdKk1HsUsT
Sj6m0jcY37Q7abP8IMhDTD8mXMDmn23aBf/SrljwpKHxtFmxjKOCAR4wggEaMC4G
CCsGAQUFBwEBBCIwIDAeBggrBgEFBQcwAYYSaHR0cDovL2cuc3ltY2QuY29tMBIG
A1UdEwEB/wQIMAYBAf8CAQAwTAYDVR0gBEUwQzBBBgpghkgBhvhFAQc2MDMwMQYI
KwYBBQUHAgEWJWh0dHA6Ly93d3cuZ2VvdHJ1c3QuY29tL3Jlc291cmNlcy9jcHMw
NgYDVR0fBC8wLTAroCmgJ4YlaHR0cDovL2cuc3ltY2IuY29tL0dlb1RydXN0UENB
LUcyLmNybDAOBgNVHQ8BAf8EBAMCAQYwHQYDVR0OBBYEFFmVcJJgTNW3j5G9f8zK
fiq0H8GxMB8GA1UdIwQYMBaAFBVfNVdRVfslsq0DafwBo/q+EVXVMAoGCCqGSM49
BAMDA2cAMGQCMCOnPDN71CuojwPnrb9xhHpD8+1EyXE5n8lx/DSxQPgBdecctLV9
xxKz5v3dlbbCUgIwWHze6TPA2dRZlXm3k3EMfbJX76016TRU0kcq33cWgWRIZVXR
XbgyTfVL+TTByvfo
-----END CERTIFICATE-----
