Certificate:
    Data:
        Version: 3 (0x2)
        Serial Number: 146037 (0x23a75)
    Signature Algorithm: sha256WithRSAEncryption
        Issuer: C=US, O=GeoTrust Inc., CN=GeoTrust Global CA
        Validity
            Not Before: Jun 16 15:42:43 2014 GMT
            Not After : May 20 15:42:43 2022 GMT
        Subject: CN=Apple IST CA 5 - G1, OU=Certification Authority, O=Apple Inc., C=US
        Subject Public Key Info:
            Public Key Algorithm: rsaEncryption
                Public-Key: (2048 bit)
                Modulus:
                    00:f0:8a:08:ba:2c:13:5c:5a:f1:98:fd:31:59:66:
                    c2:56:7a:7e:40:2a:4c:94:c9:68:b6:b3:23:bd:60:
                    1b:3b:e7:fd:3d:5d:70:26:c5:3a:aa:b0:ca:69:64:
                    0b:62:3e:49:e9:4c:05:21:be:34:f4:aa:73:21:13:
                    31:84:e8:ce:ef:38:cf:57:e9:db:cb:ce:d1:6d:fa:
                    c8:81:92:2d:22:ce:15:7e:7e:b1:07:ac:88:c7:18:
                    92:c1:96:c6:0c:90:26:17:55:5f:19:1b:25:cf:9e:
                    51:34:fa:f3:e7:b1:1c:78:18:da:e4:39:1a:91:1b:
                    c2:df:a8:00:5b:5f:4e:c4:22:b4:ba:64:e2:4a:77:
                    ba:ed:2c:eb:fe:8b:61:96:f0:1e:84:2d:74:0a:7b:
                    17:cd:c3:ee:00:6e:d7:66:79:8b:50:e9:4f:af:a6:
                    3d:91:31:2f:ca:87:2b:cf:f7:08:49:14:8a:8e:62:
                    7d:ad:56:aa:95:62:e3:e9:6b:4e:64:41:e2:4f:22:
                    f7:4b:56:f1:2c:a8:71:11:38:09:8b:97:b9:08:bf:
                    cf:30:26:83:40:90:63:1a:b6:69:ba:79:b7:ae:59:
                    ec:6b:0d:84:47:a7:ae:0b:47:4c:06:fb:76:82:69:
                    7b:5e:23:60:52:35:d0:ac:46:1c:ea:a0:b6:5a:8b:
                    d9:ed
                Exponent: 65537 (0x10001)
        X509v3 extensions:
            X509v3 Authority Key Identifier: 
                keyid:C0:7A:98:68:8D:89:FB:AB:05:64:0C:11:7D:AA:7D:65:B8:CA:CC:4E

            X509v3 Subject Key Identifier: 
                56:33:90:2F:9D:F4:D2:30:D0:0D:62:25:13:78:1D:21:A7:51:12:0F
            X509v3 Basic Constraints: critical
                CA:TRUE, pathlen:0
            X509v3 Key Usage: critical
                Certificate Sign, CRL Sign
            X509v3 CRL Distribution Points: 

                Full Name:
                  URI:http://g.symcb.com/crls/gtglobal.crl

            Authority Information Access: 
                OCSP - URI:http://g.symcd.com

            X509v3 Certificate Policies: 
                Policy: 2.16.840.1.113733.1.7.54
                  CPS: http://www.geotrust.com/resources/cps

    Signature Algorithm: sha256WithRSAEncryption
         98:fa:bf:23:7e:50:da:dc:6d:99:5a:97:61:e3:a2:67:00:75:
         23:98:af:9f:ad:21:35:a8:78:8b:a3:af:1c:3a:1e:40:e0:84:
         39:6a:84:d5:d4:a8:9f:fe:bd:b2:07:76:74:50:b0:bf:6a:00:
         19:f4:bd:d2:f6:55:7d:93:0c:14:cd:13:ec:c5:31:66:b4:f4:
         50:50:71:de:de:fc:ce:33:9f:fe:e5:14:a5:17:4c:10:a4:d9:
         3a:7e:a4:e7:e0:bd:53:7f:fd:ea:8c:80:55:7c:bc:95:a8:1f:
         c7:30:41:1b:92:f8:d7:e5:42:b9:71:d7:29:70:44:55:42:d5:
         77:12:b5:80:ad:55:5f:c3:5b:93:c0:5b:d6:97:c7:8d:31:49:
         b7:30:88:33:d8:c6:50:17:c1:b0:94:0c:88:e3:33:28:ad:30:
         04:05:6d:dc:23:cd:76:4f:1c:d0:b4:17:7a:04:42:0b:b3:db:
         e4:3b:be:7e:6d:e5:e1:60:91:7e:24:d1:df:6e:c0:c9:97:26:
         17:03:d9:ec:5b:51:5f:8d:28:c9:0e:25:96:5c:98:01:10:19:
         6b:17:5a:72:85:f0:5a:70:10:59:4a:43:85:a2:6c:f8:2d:98:
         4c:eb:e3:20:73:e9:12:ea:03:6a:06:b3:bd:41:ca:1c:57:df:
         1f:f5:c4:37
-----BEGIN CERTIFICATE-----
MIIEQDCCAyigAwIBAgIDAjp1MA0GCSqGSIb3DQEBCwUAMEIxCzAJBgNVBAYTAlVT
MRYwFAYDVQQKEw1HZW9UcnVzdCBJbmMuMRswGQYDVQQDExJHZW9UcnVzdCBHbG9i
YWwgQ0EwHhcNMTQwNjE2MTU0MjQzWhcNMjIwNTIwMTU0MjQzWjBiMRwwGgYDVQQD
ExNBcHBsZSBJU1QgQ0EgNSAtIEcxMSAwHgYDVQQLExdDZXJ0aWZpY2F0aW9uIEF1
dGhvcml0eTETMBEGA1UEChMKQXBwbGUgSW5jLjELMAkGA1UEBhMCVVMwggEiMA0G
CSqGSIb3DQEBAQUAA4IBDwAwggEKAoIBAQDwigi6LBNcWvGY/TFZZsJWen5AKkyU
yWi2syO9YBs75/09XXAmxTqqsMppZAtiPknpTAUhvjT0qnMhEzGE6M7vOM9X6dvL
ztFt+siBki0izhV+frEHrIjHGJLBlsYMkCYXVV8ZGyXPnlE0+vPnsRx4GNrkORqR
G8LfqABbX07EIrS6ZOJKd7rtLOv+i2GW8B6ELXQKexfNw+4AbtdmeYtQ6U+vpj2R
MS/KhyvP9whJFIqOYn2tVqqVYuPpa05kQeJPIvdLVvEsqHEROAmLl7kIv88wJoNA
kGMatmm6ebeuWexrDYRHp64LR0wG+3aCaXteI2BSNdCsRhzqoLZai9ntAgMBAAGj
ggEdMIIBGTAfBgNVHSMEGDAWgBTAephojYn7qwVkDBF9qn1luMrMTjAdBgNVHQ4E
FgQUVjOQL5300jDQDWIlE3gdIadREg8wEgYDVR0TAQH/BAgwBgEB/wIBADAOBgNV
HQ8BAf8EBAMCAQYwNQYDVR0fBC4wLDAqoCigJoYkaHR0cDovL2cuc3ltY2IuY29t
L2NybHMvZ3RnbG9iYWwuY3JsMC4GCCsGAQUFBwEBBCIwIDAeBggrBgEFBQcwAYYS
aHR0cDovL2cuc3ltY2QuY29tMEwGA1UdIARFMEMwQQYKYIZIAYb4RQEHNjAzMDEG
CCsGAQUFBwIBFiVodHRwOi8vd3d3Lmdlb3RydXN0LmNvbS9yZXNvdXJjZXMvY3Bz
MA0GCSqGSIb3DQEBCwUAA4IBAQCY+r8jflDa3G2ZWpdh46JnAHUjmK+frSE1qHiL
o68cOh5A4IQ5aoTV1Kif/r2yB3Z0ULC/agAZ9L3S9lV9kwwUzRPsxTFmtPRQUHHe
3vzOM5/+5RSlF0wQpNk6fqTn4L1Tf/3qjIBVfLyVqB/HMEEbkvjX5UK5cdcpcERV
QtV3ErWArVVfw1uTwFvWl8eNMUm3MIgz2MZQF8GwlAyI4zMorTAEBW3cI812TxzQ
tBd6BEILs9vkO75+beXhYJF+JNHfbsDJlyYXA9nsW1FfjSjJDiWWXJgBEBlrF1py
hfBacBBZSkOFomz4LZhM6+Mgc+kS6gNqBrO9QcocV98f9cQ3
-----END CERTIFICATE-----
