Certificate:
    Data:
        Version: 3 (0x2)
        Serial Number:
            06:5d:ca:7d:0f:aa:22:98:c3:0a:b0:61:29:40:de:7d
    Signature Algorithm: sha256WithRSAEncryption
        Issuer: C=US, O=GeoTrust Inc., OU=(c) 2008 GeoTrust Inc. - For authorized use only, CN=GeoTrust Primary Certification Authority - G3
        Validity
            Not Before: Jun 12 00:00:00 2014 GMT
            Not After : Jun 11 23:59:59 2029 GMT
        Subject: CN=Apple IST CA 6 - G1, OU=Certification Authority, O=Apple Inc., C=US
        Subject Public Key Info:
            Public Key Algorithm: rsaEncryption
                Public-Key: (2048 bit)
                Modulus:
                    00:e7:dc:81:f0:9a:55:51:fd:03:80:fd:ca:f5:f8:
                    2e:ef:d4:bc:c1:f0:1f:19:09:0c:74:3f:55:3a:ca:
                    6e:a5:86:2c:fb:65:7e:07:dc:18:60:e2:df:0d:09:
                    19:84:b1:e5:07:1a:1e:08:25:cc:59:3e:6b:62:81:
                    d1:55:85:dc:86:91:3f:f1:bb:f7:1c:ae:79:7c:41:
                    d0:7d:d0:98:3c:2b:ce:53:6f:47:d5:6e:48:6f:7e:
                    4d:2e:90:37:6f:84:4f:20:75:8c:1b:ab:3a:00:b2:
                    dc:b2:3a:3f:7f:cd:f7:c6:c0:91:a2:bb:0c:55:84:
                    b9:85:be:1d:bb:16:8e:81:12:cf:0e:3a:ba:36:76:
                    0f:14:f9:23:04:66:03:58:22:fc:f8:7e:67:3f:5c:
                    6b:8d:ac:ae:e4:2e:6d:2e:18:eb:cc:dd:5c:8f:04:
                    97:d3:ef:0f:06:02:93:16:86:46:f5:19:5b:6f:72:
                    85:07:46:09:6f:e9:76:17:f7:83:18:5f:b7:1a:a2:
                    39:97:ca:29:60:c2:f2:73:83:0d:84:d1:bf:db:9e:
                    ef:6a:7f:d1:d1:fb:76:fc:ef:5c:bb:0f:16:0c:8b:
                    c2:0b:70:86:5e:d3:52:dd:6e:76:b4:7f:bf:50:60:
                    38:f1:64:f5:d6:50:ef:43:ad:6b:8c:d4:30:b0:b3:
                    c9:29
                Exponent: 65537 (0x10001)
        X509v3 extensions:
            X509v3 Basic Constraints: critical
                CA:TRUE, pathlen:0
            X509v3 Certificate Policies: 
                Policy: 2.16.840.1.113733.1.7.54
                  CPS: http://www.geotrust.com/resources/cps

            X509v3 Key Usage: critical
                Certificate Sign, CRL Sign
            Authority Information Access: 
                OCSP - URI:http://g.symcd.com

            X509v3 CRL Distribution Points: 

                Full Name:
                  URI:http://g.symcb.com/GeoTrustPCA-G3.crl

            X509v3 Subject Key Identifier: 
                F3:3E:A5:5C:5C:2C:63:2A:1F:F8:B4:D5:FE:A4:15:66:D2:B9:E7:35
            X509v3 Authority Key Identifier: 
                keyid:C4:79:CA:8E:A1:4E:03:1D:1C:DC:6B:DB:31:5B:94:3E:3F:30:7F:2D

    Signature Algorithm: sha256WithRSAEncryption
         7a:f8:19:02:b5:f1:f4:90:9d:80:f0:8a:af:60:27:4e:4b:e5:
         de:75:36:61:65:91:aa:43:4c:58:fa:4f:aa:5b:20:5b:80:65:
         ff:78:90:e2:f1:56:70:fa:78:4d:5b:b6:b4:b2:26:7a:7b:fd:
         10:b2:5a:40:4e:2a:54:72:50:6e:95:3a:66:28:44:b5:87:b8:
         62:10:cb:9c:23:e9:59:a2:25:bc:c5:02:06:d9:3e:d0:d8:1b:
         c7:f6:39:63:da:25:55:a8:5e:b6:d8:83:e6:12:f3:e0:32:a8:
         a3:99:0d:c7:12:ae:fd:ef:c4:6e:25:da:b5:8d:1c:64:01:47:
         cf:2b:c2:62:53:a9:9d:a1:f6:6f:1d:65:2b:53:5d:72:6e:93:
         92:46:4e:e8:60:c9:5d:80:13:37:ff:6a:c2:21:e4:c2:81:51:
         68:75:10:6c:3e:23:8e:f9:74:26:d1:4c:3c:b5:ed:c9:a0:fe:
         79:43:b7:be:2b:fb:0c:96:ea:cf:35:eb:1b:72:4a:63:b8:69:
         d0:69:fa:fa:dc:9e:de:97:ef:e5:94:28:40:86:61:e4:fe:ae:
         86:8d:66:61:cc:8f:19:0b:2d:b2:4e:52:9d:6d:8a:f9:dd:97:
         d7:d1:95:fc:91:6f:ff:ca:21:bc:04:04:90:20:6e:a0:3a:fd:
         c6:2e:cb:c9
-----BEGIN CERTIFICATE-----
MIIEpTCCA42gAwIBAgIQBl3KfQ+qIpjDCrBhKUDefTANBgkqhkiG9w0BAQsFADCB
mDELMAkGA1UEBhMCVVMxFjAUBgNVBAoTDUdlb1RydXN0IEluYy4xOTA3BgNVBAsT
MChjKSAyMDA4IEdlb1RydXN0IEluYy4gLSBGb3IgYXV0aG9yaXplZCB1c2Ugb25s
eTE2MDQGA1UEAxMtR2VvVHJ1c3QgUHJpbWFyeSBDZXJ0aWZpY2F0aW9uIEF1dGhv
cml0eSAtIEczMB4XDTE0MDYxMjAwMDAwMFoXDTI5MDYxMTIzNTk1OVowYjEcMBoG
A1UEAwwTQXBwbGUgSVNUIENBIDYgLSBHMTEgMB4GA1UECwwXQ2VydGlmaWNhdGlv
biBBdXRob3JpdHkxEzARBgNVBAoMCkFwcGxlIEluYy4xCzAJBgNVBAYTAlVTMIIB
IjANBgkqhkiG9w0BAQEFAAOCAQ8AMIIBCgKCAQEA59yB8JpVUf0DgP3K9fgu79S8
wfAfGQkMdD9VOspupYYs+2V+B9wYYOLfDQkZhLHlBxoeCCXMWT5rYoHRVYXchpE/
8bv3HK55fEHQfdCYPCvOU29H1W5Ib35NLpA3b4RPIHWMG6s6ALLcsjo/f833xsCR
orsMVYS5hb4duxaOgRLPDjq6NnYPFPkjBGYDWCL8+H5nP1xrjayu5C5tLhjrzN1c
jwSX0+8PBgKTFoZG9Rlbb3KFB0YJb+l2F/eDGF+3GqI5l8opYMLyc4MNhNG/257v
an/R0ft2/O9cuw8WDIvCC3CGXtNS3W52tH+/UGA48WT11lDvQ61rjNQwsLPJKQID
AQABo4IBHjCCARowEgYDVR0TAQH/BAgwBgEB/wIBADBMBgNVHSAERTBDMEEGCmCG
SAGG+EUBBzYwMzAxBggrBgEFBQcCARYlaHR0cDovL3d3dy5nZW90cnVzdC5jb20v
cmVzb3VyY2VzL2NwczAOBgNVHQ8BAf8EBAMCAQYwLgYIKwYBBQUHAQEEIjAgMB4G
CCsGAQUFBzABhhJodHRwOi8vZy5zeW1jZC5jb20wNgYDVR0fBC8wLTAroCmgJ4Yl
aHR0cDovL2cuc3ltY2IuY29tL0dlb1RydXN0UENBLUczLmNybDAdBgNVHQ4EFgQU
8z6lXFwsYyof+LTV/qQVZtK55zUwHwYDVR0jBBgwFoAUxHnKjqFOAx0c3GvbMVuU
Pj8wfy0wDQYJKoZIhvcNAQELBQADggEBAHr4GQK18fSQnYDwiq9gJ05L5d51NmFl
kapDTFj6T6pbIFuAZf94kOLxVnD6eE1btrSyJnp7/RCyWkBOKlRyUG6VOmYoRLWH
uGIQy5wj6VmiJbzFAgbZPtDYG8f2OWPaJVWoXrbYg+YS8+AyqKOZDccSrv3vxG4l
2rWNHGQBR88rwmJTqZ2h9m8dZStTXXJuk5JGTuhgyV2AEzf/asIh5MKBUWh1EGw+
I475dCbRTDy17cmg/nlDt74r+wyW6s816xtySmO4adBp+vrcnt6X7+WUKECGYeT+
roaNZmHMjxkLLbJOUp1tivndl9fRlfyRb//KIbwEBJAgbqA6/cYuy8k=
-----END CERTIFICATE-----
