Certificate:
    Data:
        Version: 3 (0x2)
        Serial Number:
            13:52:2e:bf:c1:dd:5c:e1:1e:f2:76:40:75:1f:e7:df
    Signature Algorithm: ecdsa-with-SHA384
        Issuer: C=US, O=GeoTrust Inc., OU=(c) 2007 GeoTrust Inc. - For authorized use only, CN=GeoTrust Primary Certification Authority - G2
        Validity
            Not Before: Jun  9 00:00:00 2016 GMT
            Not After : Jun  8 23:59:59 2031 GMT
        Subject: CN=Apple IST CA 8 - G1, OU=Certification Authority, O=Apple Inc., C=US
        Subject Public Key Info:
            Public Key Algorithm: id-ecPublicKey
                Public-Key: (256 bit)
                pub: 
                    04:2d:54:8e:68:b0:10:13:ef:f4:2d:db:d8:09:b2:
                    43:e8:9d:65:99:6e:34:b8:d4:97:c9:8e:c9:d6:a8:
                    22:37:32:c8:71:60:ee:b0:f1:f2:c5:64:f6:ba:47:
                    5f:fc:e6:07:78:32:2d:f6:ca:80:20:c9:fd:70:f8:
                    72:93:21:88:45
                ASN1 OID: prime256v1
        X509v3 extensions:
            X509v3 Basic Constraints: critical
                CA:TRUE, pathlen:0
            X509v3 CRL Distribution Points: 

                Full Name:
                  URI:http://g.symcb.com/GeoTrustPCA-G2.crl

            X509v3 Key Usage: critical
                Certificate Sign, CRL Sign
            Authority Information Access: 
                OCSP - URI:http://g.symcd.com

            X509v3 Certificate Policies: 
                Policy: 2.23.140.1.2.2
                  CPS: https://www.geotrust.com/resources/cps

            X509v3 Extended Key Usage: 
                TLS Web Server Authentication, TLS Web Client Authentication
            X509v3 Subject Key Identifier: 
                C3:C4:A4:58:05:63:D7:83:06:BA:96:8D:DC:B2:8F:32:F6:BB:B7:41
            X509v3 Authority Key Identifier: 
                keyid:15:5F:35:57:51:55:FB:25:B2:AD:03:69:FC:01:A3:FA:BE:11:55:D5

    Signature Algorithm: ecdsa-with-SHA384
         30:64:02:30:47:da:33:0d:c9:b8:c2:93:74:ec:3a:27:57:c4:
         95:fd:60:33:cc:77:94:b7:28:30:af:f2:fc:93:74:91:a1:b6:
         89:72:ed:f4:09:44:db:f9:ae:75:73:fb:a6:06:7e:c3:02:30:
         4a:7a:c3:28:5e:2f:b3:4a:9a:a6:af:b1:db:a2:c7:64:7e:8f:
         50:77:c1:18:de:97:32:58:81:7c:e0:33:79:f0:85:02:8a:94:
         95:b1:a4:5e:c8:18:7b:af:6b:5b:5a:c6
-----BEGIN CERTIFICATE-----
MIIDVDCCAtugAwIBAgIQE1Iuv8HdXOEe8nZAdR/n3zAKBggqhkjOPQQDAzCBmDEL
MAkGA1UEBhMCVVMxFjAUBgNVBAoTDUdlb1RydXN0IEluYy4xOTA3BgNVBAsTMChj
KSAyMDA3IEdlb1RydXN0IEluYy4gLSBGb3IgYXV0aG9yaXplZCB1c2Ugb25seTE2
MDQGA1UEAxMtR2VvVHJ1c3QgUHJpbWFyeSBDZXJ0aWZpY2F0aW9uIEF1dGhvcml0
eSAtIEcyMB4XDTE2MDYwOTAwMDAwMFoXDTMxMDYwODIzNTk1OVowYjEcMBoGA1UE
AwwTQXBwbGUgSVNUIENBIDggLSBHMTEgMB4GA1UECwwXQ2VydGlmaWNhdGlvbiBB
dXRob3JpdHkxEzARBgNVBAoMCkFwcGxlIEluYy4xCzAJBgNVBAYTAlVTMFkwEwYH
KoZIzj0CAQYIKoZIzj0DAQcDQgAELVSOaLAQE+/0LdvYCbJD6J1lmW40uNSXyY7J
1qgiNzLIcWDusPHyxWT2ukdf/OYHeDIt9sqAIMn9cPhykyGIRaOCATowggE2MBIG
A1UdEwEB/wQIMAYBAf8CAQAwNgYDVR0fBC8wLTAroCmgJ4YlaHR0cDovL2cuc3lt
Y2IuY29tL0dlb1RydXN0UENBLUcyLmNybDAOBgNVHQ8BAf8EBAMCAQYwLgYIKwYB
BQUHAQEEIjAgMB4GCCsGAQUFBzABhhJodHRwOi8vZy5zeW1jZC5jb20wSQYDVR0g
BEIwQDA+BgZngQwBAgIwNDAyBggrBgEFBQcCARYmaHR0cHM6Ly93d3cuZ2VvdHJ1
c3QuY29tL3Jlc291cmNlcy9jcHMwHQYDVR0lBBYwFAYIKwYBBQUHAwEGCCsGAQUF
BwMCMB0GA1UdDgQWBBTDxKRYBWPXgwa6lo3cso8y9ru3QTAfBgNVHSMEGDAWgBQV
XzVXUVX7JbKtA2n8AaP6vhFV1TAKBggqhkjOPQQDAwNnADBkAjBH2jMNybjCk3Ts
OidXxJX9YDPMd5S3KDCv8vyTdJGhtoly7fQJRNv5rnVz+6YGfsMCMEp6wyheL7NK
mqavsduix2R+j1B3wRjelzJYgXzgM3nwhQKKlJWxpF7IGHuva1taxg==
-----END CERTIFICATE-----
