Certificate:
    Data:
        Version: 3 (0x2)
        Serial Number:
            3d:cd:5f:22:5e:a4:c9:6d:4b:90:94:a0:2d:2b:56:c6
    Signature Algorithm: ecdsa-with-SHA384
        Issuer: C=US, O=VeriSign, Inc., OU=VeriSign Trust Network, OU=(c) 2007 VeriSign, Inc. - For authorized use only, CN=VeriSign Class 3 Public Primary Certification Authority - G4
        Validity
            Not Before: Nov  6 00:00:00 2017 GMT
            Not After : Nov  5 23:59:59 2022 GMT
        Subject: C=US, O=DigiCert Inc, OU=www.digicert.com, CN=DigiCert Global Root G3
        Subject Public Key Info:
            Public Key Algorithm: id-ecPublicKey
                Public-Key: (384 bit)
                pub: 
                    04:dd:a7:d9:bb:8a:b8:0b:fb:0b:7f:21:d2:f0:be:
                    be:73:f3:33:5d:1a:bc:34:ea:de:c6:9b:bc:d0:95:
                    f6:f0:cc:d0:0b:ba:61:5b:51:46:7e:9e:2d:9f:ee:
                    8e:63:0c:17:ec:07:70:f5:cf:84:2e:40:83:9c:e8:
                    3f:41:6d:3b:ad:d3:a4:14:59:36:78:9d:03:43:ee:
                    10:13:6c:72:de:ae:88:a7:a1:6b:b5:43:ce:67:dc:
                    23:ff:03:1c:a3:e2:3e
                ASN1 OID: secp384r1
        X509v3 extensions:
            X509v3 Key Usage: critical
                Digital Signature, Certificate Sign, CRL Sign
            X509v3 Subject Key Identifier: 
                B3:DB:48:A4:F9:A1:C5:D8:AE:36:41:CC:11:63:69:62:29:BC:4B:C6
            X509v3 Basic Constraints: critical
                CA:TRUE
            X509v3 Certificate Policies: 
                Policy: X509v3 Any Policy
                  CPS: https://d.symcb.com/cps
                  User Notice:
                    Explicit Text: https://d.symcb.com/rpa

            X509v3 CRL Distribution Points: 

                Full Name:
                  URI:http://s.symcb.com/pca3-g4.crl

            Authority Information Access: 
                OCSP - URI:http://s.symcd.com

            X509v3 Authority Key Identifier: 
                keyid:B3:16:91:FD:EE:A6:6E:E4:B5:2E:49:8F:87:78:81:80:EC:E5:B1:B5

    Signature Algorithm: ecdsa-with-SHA384
         30:65:02:31:00:f7:91:70:39:bc:f0:9b:8f:73:b1:c1:bf:cb:
         62:a2:06:ef:04:f3:eb:bf:ee:4a:cf:a9:fb:02:21:17:c1:af:
         77:bc:cc:34:ff:2d:79:54:b3:8e:57:46:fb:9e:9d:f8:05:02:
         30:26:bf:8d:dd:63:bd:65:80:46:cd:4f:12:82:21:79:e4:cf:
         71:09:3b:fd:ac:90:3f:34:3d:ba:0c:0c:d9:5f:80:88:88:c9:
         92:af:93:24:4e:44:c9:1c:ed:40:24:15:23
-----BEGIN CERTIFICATE-----
MIIDkDCCAxagAwIBAgIQPc1fIl6kyW1LkJSgLStWxjAKBggqhkjOPQQDAzCByjEL
MAkGA1UEBhMCVVMxFzAVBgNVBAoTDlZlcmlTaWduLCBJbmMuMR8wHQYDVQQLExZW
ZXJpU2lnbiBUcnVzdCBOZXR3b3JrMTowOAYDVQQLEzEoYykgMjAwNyBWZXJpU2ln
biwgSW5jLiAtIEZvciBhdXRob3JpemVkIHVzZSBvbmx5MUUwQwYDVQQDEzxWZXJp
U2lnbiBDbGFzcyAzIFB1YmxpYyBQcmltYXJ5IENlcnRpZmljYXRpb24gQXV0aG9y
aXR5IC0gRzQwHhcNMTcxMTA2MDAwMDAwWhcNMjIxMTA1MjM1OTU5WjBhMQswCQYD
VQQGEwJVUzEVMBMGA1UEChMMRGlnaUNlcnQgSW5jMRkwFwYDVQQLExB3d3cuZGln
aWNlcnQuY29tMSAwHgYDVQQDExdEaWdpQ2VydCBHbG9iYWwgUm9vdCBHMzB2MBAG
ByqGSM49AgEGBSuBBAAiA2IABN2n2buKuAv7C38h0vC+vnPzM10avDTq3sabvNCV
9vDM0Au6YVtRRn6eLZ/ujmMMF+wHcPXPhC5Ag5zoP0FtO63TpBRZNnidA0PuEBNs
ct6uiKeha7VDzmfcI/8DHKPiPqOCAScwggEjMA4GA1UdDwEB/wQEAwIBhjAdBgNV
HQ4EFgQUs9tIpPmhxdiuNkHMEWNpYim8S8YwDwYDVR0TAQH/BAUwAwEB/zBfBgNV
HSAEWDBWMFQGBFUdIAAwTDAjBggrBgEFBQcCARYXaHR0cHM6Ly9kLnN5bWNiLmNv
bS9jcHMwJQYIKwYBBQUHAgIwGQwXaHR0cHM6Ly9kLnN5bWNiLmNvbS9ycGEwLwYD
VR0fBCgwJjAkoCKgIIYeaHR0cDovL3Muc3ltY2IuY29tL3BjYTMtZzQuY3JsMC4G
CCsGAQUFBwEBBCIwIDAeBggrBgEFBQcwAYYSaHR0cDovL3Muc3ltY2QuY29tMB8G
A1UdIwQYMBaAFLMWkf3upm7ktS5Jj4d4gYDs5bG1MAoGCCqGSM49BAMDA2gAMGUC
MQD3kXA5vPCbj3Oxwb/LYqIG7wTz67/uSs+p+wIhF8Gvd7zMNP8teVSzjldG+56d
+AUCMCa/jd1jvWWARs1PEoIheeTPcQk7/ayQPzQ9ugwM2V+AiIjJkq+TJE5EyRzt
QCQVIw==
-----END CERTIFICATE-----
