Certificate:
    Data:
        Version: 3 (0x2)
        Serial Number: 12 (0xc)
    Signature Algorithm: sha256WithRSAEncryption
        Issuer: C=US, ST=California, L=Mountain View, O=Test CA, CN=Test Root CA
        Validity
            Not Before: Oct 30 00:00:00 2008 GMT
            Not After : Oct 29 00:00:00 2018 GMT
        Subject: C=US, ST=California, L=Mountain View, O=Test CA, CN=127.0.0.1
        Subject Public Key Info:
            Public Key Algorithm: rsaEncryption
                Public-Key: (2048 bit)
                Modulus:
                    00:ae:21:b3:7f:5c:19:df:fd:97:51:cd:d4:30:35:
                    eb:50:4e:66:03:78:79:10:82:cb:02:5f:af:63:30:
                    4a:54:ef:3e:3b:b8:76:7f:73:23:88:a7:4f:3c:65:
                    78:1b:11:ea:49:f1:25:d4:cc:17:67:12:51:ce:a1:
                    f6:15:57:c6:9c:19:3c:8c:f0:9d:ce:c5:5e:a4:36:
                    d7:61:d3:21:21:c7:33:78:47:d6:74:e9:fa:b8:d8:
                    f2:f4:01:b4:ac:9f:69:d0:09:bc:1a:7c:35:7c:12:
                    c4:54:ba:5b:2b:80:37:6c:75:fe:08:36:44:bc:f1:
                    3b:a9:c9:2b:a0:97:f8:75:4f:cd:27:24:f0:66:5e:
                    8b:b9:b0:b1:49:50:80:80:00:de:83:e3:cb:09:c5:
                    14:6e:9a:1f:28:0d:4a:7a:3b:90:19:13:e6:d0:32:
                    08:6f:97:5f:2a:3e:a7:88:ef:98:01:fd:0c:2c:2b:
                    ba:5c:24:33:1d:b7:c3:48:55:d5:e3:5e:c0:ea:e9:
                    b2:8b:f5:b4:5d:10:50:48:88:59:0b:48:a5:80:94:
                    2a:34:d6:b8:47:e6:ee:23:cc:e1:72:cf:ce:97:34:
                    99:01:2f:66:7e:d4:39:be:5a:0a:01:47:8e:1d:5f:
                    83:34:bf:69:6b:12:63:4c:47:25:0d:4c:b0:07:db:
                    32:c7
                Exponent: 65537 (0x10001)
        X509v3 extensions:
            X509v3 Basic Constraints: critical
                CA:FALSE
            X509v3 Subject Key Identifier: 
                66:B2:C9:2E:D5:94:64:B0:57:CC:2C:7C:47:3E:4C:32:A0:62:1D:ED
            X509v3 Authority Key Identifier: 
                keyid:9B:26:0B:8A:98:A9:BB:1D:B9:1F:1C:E3:1A:40:33:ED:8E:17:88:AB

            X509v3 Extended Key Usage: 
                TLS Web Server Authentication, TLS Web Client Authentication
            X509v3 Subject Alternative Name: 
                IP Address:127.0.0.1
    Signature Algorithm: sha256WithRSAEncryption
         5d:52:44:7e:39:ff:d6:01:44:8a:a3:f2:b2:13:98:d2:cd:e1:
         00:09:23:2d:05:3a:73:39:96:c6:88:c2:c1:5f:b8:8a:2b:18:
         8c:71:df:56:87:ed:8d:d1:14:36:c3:ef:58:8a:99:ce:88:ba:
         f3:80:d6:7f:31:2e:3d:3a:22:7d:de:1b:33:94:33:b1:e4:cb:
         30:bc:a6:48:fa:f9:1f:f3:12:a8:9f:38:5c:10:7d:50:d2:65:
         ab:10:06:19:de:2f:a5:42:3f:70:1b:99:79:96:9d:e2:74:2a:
         90:b7:a7:37:61:23:3e:b9:c2:ae:d8:1a:a5:00:60:c6:e8:48:
         ce:98:3e:0a:04:12:0c:ce:e1:3b:7a:14:e8:0a:44:78:51:37:
         0d:98:05:f5:d6:43:f1:4e:a3:48:0b:ea:44:da:03:6a:90:a2:
         be:85:91:b6:07:43:ec:32:f8:d8:36:7f:d9:17:c9:ee:7b:50:
         d6:ef:2b:1f:f2:9c:41:35:9d:7d:8a:34:87:df:3e:c7:78:55:
         cc:89:b5:30:07:13:66:a8:ab:f8:72:9f:13:ed:58:14:25:85:
         06:1d:56:5b:84:5b:8a:53:22:73:55:17:08:0a:38:d7:1e:2f:
         74:58:d2:2b:72:64:a0:40:eb:ac:1a:bd:c6:65:ea:a4:3e:13:
         62:04:39:e0
-----BEGIN CERTIFICATE-----
MIIDvzCCAqegAwIBAgIBDDANBgkqhkiG9w0BAQsFADBjMQswCQYDVQQGEwJVUzET
MBEGA1UECAwKQ2FsaWZvcm5pYTEWMBQGA1UEBwwNTW91bnRhaW4gVmlldzEQMA4G
A1UECgwHVGVzdCBDQTEVMBMGA1UEAwwMVGVzdCBSb290IENBMB4XDTA4MTAzMDAw
MDAwMFoXDTE4MTAyOTAwMDAwMFowYDELMAkGA1UEBhMCVVMxEzARBgNVBAgMCkNh
bGlmb3JuaWExFjAUBgNVBAcMDU1vdW50YWluIFZpZXcxEDAOBgNVBAoMB1Rlc3Qg
Q0ExEjAQBgNVBAMMCTEyNy4wLjAuMTCCASIwDQYJKoZIhvcNAQEBBQADggEPADCC
AQoCggEBAK4hs39cGd/9l1HN1DA161BOZgN4eRCCywJfr2MwSlTvPju4dn9zI4in
TzxleBsR6knxJdTMF2cSUc6h9hVXxpwZPIzwnc7FXqQ212HTISHHM3hH1nTp+rjY
8vQBtKyfadAJvBp8NXwSxFS6WyuAN2x1/gg2RLzxO6nJK6CX+HVPzSck8GZei7mw
sUlQgIAA3oPjywnFFG6aHygNSno7kBkT5tAyCG+XXyo+p4jvmAH9DCwrulwkMx23
w0hV1eNewOrpsov1tF0QUEiIWQtIpYCUKjTWuEfm7iPM4XLPzpc0mQEvZn7UOb5a
CgFHjh1fgzS/aWsSY0xHJQ1MsAfbMscCAwEAAaOBgDB+MAwGA1UdEwEB/wQCMAAw
HQYDVR0OBBYEFGayyS7VlGSwV8wsfEc+TDKgYh3tMB8GA1UdIwQYMBaAFJsmC4qY
qbsduR8c4xpAM+2OF4irMB0GA1UdJQQWMBQGCCsGAQUFBwMBBggrBgEFBQcDAjAP
BgNVHREECDAGhwR/AAABMA0GCSqGSIb3DQEBCwUAA4IBAQBdUkR+Of/WAUSKo/Ky
E5jSzeEACSMtBTpzOZbGiMLBX7iKKxiMcd9Wh+2N0RQ2w+9YipnOiLrzgNZ/MS49
OiJ93hszlDOx5MswvKZI+vkf8xKonzhcEH1Q0mWrEAYZ3i+lQj9wG5l5lp3idCqQ
t6c3YSM+ucKu2BqlAGDG6EjOmD4KBBIMzuE7ehToCkR4UTcNmAX11kPxTqNIC+pE
2gNqkKK+hZG2B0PsMvjYNn/ZF8nue1DW7ysf8pxBNZ19ijSH3z7HeFXMibUwBxNm
qKv4cp8T7VgUJYUGHVZbhFuKUyJzVRcICjjXHi90WNIrcmSgQOusGr3GZeqkPhNi
BDng
-----END CERTIFICATE-----
