Certificate:
    Data:
        Version: 3 (0x2)
        Serial Number: 13 (0xd)
    Signature Algorithm: sha256WithRSAEncryption
        Issuer: C=US, ST=California, L=Mountain View, O=Test CA, CN=Test Root CA
        Validity
            Not Before: Oct 30 00:00:00 2014 GMT
            Not After : Jun  2 17:10:52 2028 GMT
        Subject: C=US, ST=California, L=Mountain View, O=Test CA, CN=127.0.0.1
        Subject Public Key Info:
            Public Key Algorithm: rsaEncryption
                Public-Key: (2048 bit)
                Modulus:
                    00:d2:33:c9:3e:ee:c5:00:08:54:d0:a9:26:f1:21:
                    21:86:20:92:dc:1f:c9:0f:95:c3:60:8b:72:14:51:
                    60:44:6e:b6:bd:f4:59:28:70:4c:df:87:e0:c9:2c:
                    db:c8:b3:4d:c8:72:92:0e:ab:55:a5:10:8e:e4:cf:
                    77:23:77:25:a5:62:95:fc:32:b3:da:66:2f:ae:23:
                    5e:3d:aa:1d:87:96:61:a5:eb:86:39:e1:74:a2:1d:
                    a2:50:e1:93:e6:dc:ab:70:99:e4:e4:49:72:6c:00:
                    e8:53:06:1f:86:19:37:79:83:2e:a5:69:b7:80:4c:
                    06:f4:1c:6f:61:76:6b:71:da:ef:0d:2d:30:20:8c:
                    d1:69:9b:c1:63:00:6f:8f:af:6e:f0:0f:64:bd:fd:
                    3a:17:dd:fe:62:44:b2:74:33:2d:98:de:04:e1:e9:
                    e7:92:1d:bf:9b:dc:3c:90:b9:db:1d:ba:cf:84:72:
                    27:54:e9:59:10:37:44:db:5e:1c:ba:45:16:9c:9b:
                    85:7d:c2:8f:74:da:8c:12:4f:fc:64:8f:4d:7b:91:
                    84:2b:10:b6:a3:ab:f6:0d:f0:27:73:55:0c:2d:1c:
                    2b:2f:7d:bc:46:70:c7:25:c1:b2:0c:2a:21:e5:a2:
                    42:7f:91:4c:e7:f6:50:76:26:82:78:f0:50:88:45:
                    68:71
                Exponent: 65537 (0x10001)
        X509v3 extensions:
            X509v3 Basic Constraints: critical
                CA:FALSE
            X509v3 Subject Key Identifier: 
                49:8C:47:E1:3D:FB:65:5C:B5:B9:78:5A:DC:3D:AC:DC:C2:55:84:BA
            X509v3 Authority Key Identifier: 
                keyid:9B:26:0B:8A:98:A9:BB:1D:B9:1F:1C:E3:1A:40:33:ED:8E:17:88:AB

            X509v3 Extended Key Usage: 
                TLS Web Server Authentication, TLS Web Client Authentication
            X509v3 Subject Alternative Name: 
                IP Address:127.0.0.1
    Signature Algorithm: sha256WithRSAEncryption
         16:b3:2e:6b:4a:d1:8b:ea:56:72:cd:e7:e7:51:1f:70:19:48:
         52:5c:6f:b6:ba:e0:f1:0a:0f:38:aa:ed:de:8c:32:56:74:1d:
         69:30:ee:68:ba:2b:7e:6b:93:f0:69:7f:5f:bb:18:88:41:3e:
         86:3a:00:f8:23:f9:d1:ab:53:9d:50:ea:2e:37:37:0d:0a:cc:
         af:22:90:11:29:f3:b6:d4:28:47:83:75:66:19:19:88:a0:20:
         6b:64:7b:95:32:5d:85:14:c6:a6:77:11:a5:c4:72:72:c1:aa:
         3a:dd:ee:dc:28:71:4e:1e:ae:d5:1d:74:3e:71:8a:da:7e:f8:
         4c:2c:20:6c:01:ee:33:90:27:3a:5d:87:75:73:4c:24:c0:ad:
         b0:6e:a3:32:bc:e4:93:53:73:40:cb:37:55:4b:d2:d5:79:b9:
         86:bc:69:35:d1:33:11:4a:33:ad:d1:78:18:99:c8:b0:fb:c6:
         82:40:87:56:47:ff:f1:ec:2a:07:53:ea:7f:17:a8:78:3c:21:
         e5:e7:6e:54:16:02:8b:71:c9:fb:41:c4:f7:f0:1d:9d:8e:5b:
         94:6f:2c:25:12:95:02:ca:08:d5:42:16:fd:b8:dc:d8:4b:07:
         8f:bb:b2:4e:51:e8:32:87:61:a1:96:de:ff:24:86:4f:41:38:
         65:18:f0:b8
-----BEGIN CERTIFICATE-----
MIIDvzCCAqegAwIBAgIBDTANBgkqhkiG9w0BAQsFADBjMQswCQYDVQQGEwJVUzET
MBEGA1UECAwKQ2FsaWZvcm5pYTEWMBQGA1UEBwwNTW91bnRhaW4gVmlldzEQMA4G
A1UECgwHVGVzdCBDQTEVMBMGA1UEAwwMVGVzdCBSb290IENBMB4XDTE0MTAzMDAw
MDAwMFoXDTI4MDYwMjE3MTA1MlowYDELMAkGA1UEBhMCVVMxEzARBgNVBAgMCkNh
bGlmb3JuaWExFjAUBgNVBAcMDU1vdW50YWluIFZpZXcxEDAOBgNVBAoMB1Rlc3Qg
Q0ExEjAQBgNVBAMMCTEyNy4wLjAuMTCCASIwDQYJKoZIhvcNAQEBBQADggEPADCC
AQoCggEBANIzyT7uxQAIVNCpJvEhIYYgktwfyQ+Vw2CLchRRYERutr30WShwTN+H
4Mks28izTchykg6rVaUQjuTPdyN3JaVilfwys9pmL64jXj2qHYeWYaXrhjnhdKId
olDhk+bcq3CZ5ORJcmwA6FMGH4YZN3mDLqVpt4BMBvQcb2F2a3Ha7w0tMCCM0Wmb
wWMAb4+vbvAPZL39Ohfd/mJEsnQzLZjeBOHp55Idv5vcPJC52x26z4RyJ1TpWRA3
RNteHLpFFpybhX3Cj3TajBJP/GSPTXuRhCsQtqOr9g3wJ3NVDC0cKy99vEZwxyXB
sgwqIeWiQn+RTOf2UHYmgnjwUIhFaHECAwEAAaOBgDB+MAwGA1UdEwEB/wQCMAAw
HQYDVR0OBBYEFEmMR+E9+2Vctbl4Wtw9rNzCVYS6MB8GA1UdIwQYMBaAFJsmC4qY
qbsduR8c4xpAM+2OF4irMB0GA1UdJQQWMBQGCCsGAQUFBwMBBggrBgEFBQcDAjAP
BgNVHREECDAGhwR/AAABMA0GCSqGSIb3DQEBCwUAA4IBAQAWsy5rStGL6lZyzefn
UR9wGUhSXG+2uuDxCg84qu3ejDJWdB1pMO5ouit+a5PwaX9fuxiIQT6GOgD4I/nR
q1OdUOouNzcNCsyvIpARKfO21ChHg3VmGRmIoCBrZHuVMl2FFMamdxGlxHJywao6
3e7cKHFOHq7VHXQ+cYrafvhMLCBsAe4zkCc6XYd1c0wkwK2wbqMyvOSTU3NAyzdV
S9LVebmGvGk10TMRSjOt0XgYmciw+8aCQIdWR//x7CoHU+p/F6h4PCHl525UFgKL
ccn7QcT38B2djluUbywlEpUCygjVQhb9uNzYSwePu7JOUegyh2Ghlt7/JIZPQThl
GPC4
-----END CERTIFICATE-----
