Certificate:
    Data:
        Version: 3 (0x2)
        Serial Number: 14 (0xe)
    Signature Algorithm: sha256WithRSAEncryption
        Issuer: C=US, ST=California, L=Mountain View, O=Test CA, CN=Test Root CA
        Validity
            Not Before: Apr  2 00:00:00 2015 GMT
            Not After : Jul  2 00:00:00 2018 GMT
        Subject: C=US, ST=California, L=Mountain View, O=Test CA, CN=127.0.0.1
        Subject Public Key Info:
            Public Key Algorithm: rsaEncryption
                Public-Key: (2048 bit)
                Modulus:
                    00:ab:bd:7c:d8:34:99:c9:fa:d9:7e:0a:ac:77:89:
                    fb:de:ee:b0:ec:59:45:f6:a0:15:b9:60:2a:0a:8f:
                    77:a7:43:dc:62:e6:20:9e:ef:9f:c3:4f:59:f4:cb:
                    23:32:85:0f:a4:66:77:f6:bc:f2:1b:d1:b7:dc:c3:
                    66:a0:83:37:73:2a:6a:80:9b:a1:aa:8c:18:ad:49:
                    b0:44:e8:cf:11:da:0d:52:ab:59:50:d4:87:c8:98:
                    4f:fc:7e:46:49:53:e5:3b:10:dd:29:7b:0b:fa:38:
                    76:7e:b5:a6:a8:9b:e4:20:b8:99:18:7d:57:46:dd:
                    33:46:7a:2a:ae:dc:3b:18:1b:68:b3:36:37:6d:1a:
                    ec:78:f5:65:0f:5d:f9:1b:ec:68:7d:a4:83:79:ad:
                    cc:a0:68:4f:6c:5b:36:c1:48:0b:3f:3e:4c:ae:91:
                    de:4a:db:f6:a9:82:c2:54:9d:6f:28:db:00:bb:0f:
                    a4:44:43:40:c3:b0:e3:ec:f8:57:8c:c1:db:bb:00:
                    64:15:48:06:7b:01:da:34:bc:ac:c1:61:ec:07:76:
                    80:08:86:94:34:c4:d8:db:65:80:6a:7f:c0:b9:61:
                    f5:3c:92:99:45:ce:17:92:81:81:32:43:39:35:ac:
                    a4:04:5a:d6:f0:5e:01:3e:f2:3f:3b:74:c9:33:77:
                    87:c1
                Exponent: 65537 (0x10001)
        X509v3 extensions:
            X509v3 Basic Constraints: critical
                CA:FALSE
            X509v3 Subject Key Identifier: 
                10:E9:95:5F:D7:78:0F:A8:F8:3C:89:9A:36:AA:E9:F2:52:C3:60:30
            X509v3 Authority Key Identifier: 
                keyid:9B:26:0B:8A:98:A9:BB:1D:B9:1F:1C:E3:1A:40:33:ED:8E:17:88:AB

            X509v3 Extended Key Usage: 
                TLS Web Server Authentication, TLS Web Client Authentication
            X509v3 Subject Alternative Name: 
                IP Address:127.0.0.1
    Signature Algorithm: sha256WithRSAEncryption
         05:a5:b1:fe:ec:c3:19:31:04:40:47:70:79:b6:c3:99:ca:ff:
         26:f8:26:88:fc:c9:fc:30:27:d7:15:4e:cb:df:45:09:1e:ea:
         bc:ac:9f:99:3a:a7:cc:bf:dd:93:a7:96:ff:5b:b9:9a:bb:49:
         1d:3c:ab:53:97:c8:83:4a:87:3d:e0:81:d1:47:68:ac:ea:1f:
         bc:88:3c:74:17:39:34:23:4d:28:a5:db:20:16:c7:ea:08:ef:
         c4:bc:f4:8c:5a:94:b0:f6:1a:23:e3:c3:e3:a6:ef:52:f8:70:
         d1:59:95:21:e7:57:b6:bb:c8:05:6a:c7:7e:ba:b8:36:4b:75:
         5c:6c:74:1f:0d:a0:18:c9:ad:db:9a:b6:f8:eb:63:25:b8:88:
         48:b7:43:68:dd:6c:ce:0b:4f:c5:1f:7b:5f:94:c6:29:62:77:
         2a:85:9c:61:8b:a7:67:c8:17:5b:2f:a7:a5:0b:d2:d8:eb:1d:
         8f:ed:67:93:3a:df:f1:29:e9:97:71:a3:01:48:3d:be:f5:15:
         5d:f5:32:bc:18:52:9f:9c:3b:64:e8:a9:55:32:91:6d:c9:cc:
         84:65:16:39:4c:ad:20:2b:e9:e9:46:f3:71:7c:44:45:05:6f:
         68:86:66:5e:0c:e2:7d:86:65:9c:6e:e5:39:2d:a8:03:30:b2:
         e2:77:5d:70
-----BEGIN CERTIFICATE-----
MIIDvzCCAqegAwIBAgIBDjANBgkqhkiG9w0BAQsFADBjMQswCQYDVQQGEwJVUzET
MBEGA1UECAwKQ2FsaWZvcm5pYTEWMBQGA1UEBwwNTW91bnRhaW4gVmlldzEQMA4G
A1UECgwHVGVzdCBDQTEVMBMGA1UEAwwMVGVzdCBSb290IENBMB4XDTE1MDQwMjAw
MDAwMFoXDTE4MDcwMjAwMDAwMFowYDELMAkGA1UEBhMCVVMxEzARBgNVBAgMCkNh
bGlmb3JuaWExFjAUBgNVBAcMDU1vdW50YWluIFZpZXcxEDAOBgNVBAoMB1Rlc3Qg
Q0ExEjAQBgNVBAMMCTEyNy4wLjAuMTCCASIwDQYJKoZIhvcNAQEBBQADggEPADCC
AQoCggEBAKu9fNg0mcn62X4KrHeJ+97usOxZRfagFblgKgqPd6dD3GLmIJ7vn8NP
WfTLIzKFD6Rmd/a88hvRt9zDZqCDN3MqaoCboaqMGK1JsETozxHaDVKrWVDUh8iY
T/x+RklT5TsQ3Sl7C/o4dn61pqib5CC4mRh9V0bdM0Z6Kq7cOxgbaLM2N20a7Hj1
ZQ9d+RvsaH2kg3mtzKBoT2xbNsFICz8+TK6R3krb9qmCwlSdbyjbALsPpERDQMOw
4+z4V4zB27sAZBVIBnsB2jS8rMFh7Ad2gAiGlDTE2NtlgGp/wLlh9TySmUXOF5KB
gTJDOTWspARa1vBeAT7yPzt0yTN3h8ECAwEAAaOBgDB+MAwGA1UdEwEB/wQCMAAw
HQYDVR0OBBYEFBDplV/XeA+o+DyJmjaq6fJSw2AwMB8GA1UdIwQYMBaAFJsmC4qY
qbsduR8c4xpAM+2OF4irMB0GA1UdJQQWMBQGCCsGAQUFBwMBBggrBgEFBQcDAjAP
BgNVHREECDAGhwR/AAABMA0GCSqGSIb3DQEBCwUAA4IBAQAFpbH+7MMZMQRAR3B5
tsOZyv8m+CaI/Mn8MCfXFU7L30UJHuq8rJ+ZOqfMv92Tp5b/W7mau0kdPKtTl8iD
Soc94IHRR2is6h+8iDx0Fzk0I00opdsgFsfqCO/EvPSMWpSw9hoj48Pjpu9S+HDR
WZUh51e2u8gFasd+urg2S3VcbHQfDaAYya3bmrb462MluIhIt0No3WzOC0/FH3tf
lMYpYncqhZxhi6dnyBdbL6elC9LY6x2P7WeTOt/xKemXcaMBSD2+9RVd9TK8GFKf
nDtk6KlVMpFtycyEZRY5TK0gK+npRvNxfERFBW9ohmZeDOJ9hmWcbuU5LagDMLLi
d11w
-----END CERTIFICATE-----
