Certificate:
    Data:
        Version: 3 (0x2)
        Serial Number: 30 (0x1e)
    Signature Algorithm: sha256WithRSAEncryption
        Issuer: C=US, ST=California, L=Mountain View, O=Test CA, CN=Test Root CA
        Validity
            Not Before: Feb 28 00:00:00 2017 GMT
            Not After : May 30 00:00:00 2020 GMT
        Subject: C=US, ST=California, L=Mountain View, O=Test CA, CN=127.0.0.1
        Subject Public Key Info:
            Public Key Algorithm: rsaEncryption
                Public-Key: (2048 bit)
                Modulus:
                    00:e0:95:35:0d:8e:3b:c4:7c:1d:ea:d6:1a:41:a9:
                    4c:14:6e:3c:12:a3:01:55:fc:b5:ee:d5:7a:d3:4d:
                    b5:f4:9b:0e:57:50:cc:28:17:4f:68:93:5f:14:e2:
                    ac:c7:eb:1d:e1:13:82:b6:14:eb:9d:42:26:1e:3c:
                    37:c7:73:e2:93:0f:d9:5b:e7:2f:46:60:54:e6:a4:
                    1c:89:ac:9c:30:1f:29:bf:36:e2:88:8a:e5:ac:14:
                    67:df:d7:93:38:85:d8:71:5a:5c:ae:80:d1:f9:ef:
                    12:82:91:08:be:de:07:70:25:be:50:3c:c6:5e:e1:
                    15:82:9d:1d:cb:2b:4c:b1:ea:2d:e4:6f:db:33:d8:
                    d3:27:d0:c1:8f:52:db:91:1a:b6:03:9e:fb:3b:49:
                    7e:ef:4a:fd:38:b2:c6:26:ea:63:85:be:0f:50:c3:
                    24:4c:36:dc:96:7b:ae:59:1f:c5:44:2a:14:76:71:
                    39:ab:ac:0e:ad:bb:ca:32:94:9c:d4:5b:7d:71:6b:
                    c9:e8:4b:80:8f:e4:b8:07:bf:70:05:2f:52:b7:86:
                    7c:ca:de:b3:b3:38:56:5f:35:96:15:94:c3:0d:fd:
                    45:2b:38:ee:ca:ee:77:34:62:5d:85:57:d1:e3:30:
                    24:0e:b1:5c:21:80:5b:24:82:01:67:25:12:a7:8b:
                    3c:11
                Exponent: 65537 (0x10001)
        X509v3 extensions:
            X509v3 Basic Constraints: critical
                CA:FALSE
            X509v3 Subject Key Identifier: 
                39:50:0A:32:04:A7:EC:70:F4:1B:1E:68:F3:B3:40:57:A7:55:4D:8A
            X509v3 Authority Key Identifier: 
                keyid:9B:26:0B:8A:98:A9:BB:1D:B9:1F:1C:E3:1A:40:33:ED:8E:17:88:AB

            X509v3 Extended Key Usage: 
                TLS Web Server Authentication, TLS Web Client Authentication
            X509v3 Subject Alternative Name: 
                IP Address:127.0.0.1
    Signature Algorithm: sha256WithRSAEncryption
         83:f0:0b:fc:3c:6e:40:6b:00:58:de:43:2a:d4:ea:08:8c:88:
         9c:02:76:7d:9f:55:08:fc:da:c0:fe:9a:07:84:c2:5d:85:06:
         ec:ee:e4:8a:c4:c1:f2:6e:6e:a8:bc:8f:de:d2:b4:39:43:c8:
         99:56:57:b8:f7:2e:8c:90:a5:fd:7d:1f:79:8d:e1:2a:59:65:
         e6:9b:2b:5d:62:7b:b0:e5:66:45:5e:fe:a3:44:52:34:40:90:
         f6:35:dd:51:7d:38:07:0b:cd:84:ec:68:19:c5:c8:b4:0e:19:
         7f:f0:a8:92:33:59:8c:24:a8:7d:f0:b3:4b:3c:20:09:5d:b6:
         78:a2:b3:1e:86:e3:88:ff:94:00:74:97:d0:41:91:45:f5:1d:
         32:e2:3f:fa:cc:90:2a:fd:8d:e2:84:e5:1b:16:83:13:3e:1c:
         6b:9f:55:0a:b9:00:16:b7:3f:07:68:1b:60:cf:46:56:ba:54:
         05:06:90:6b:40:16:cd:4c:67:46:87:f1:05:35:c6:ca:07:fb:
         e2:ca:c1:ed:37:1e:a5:ec:87:ca:4f:bf:98:e6:07:8e:66:76:
         26:67:b9:28:5f:95:ef:83:35:09:94:ba:2b:48:53:51:0d:85:
         62:7e:b3:a3:d0:f7:44:62:14:21:bf:b8:99:2b:b6:0b:be:b8:
         c9:ee:96:56
-----BEGIN CERTIFICATE-----
MIIDvzCCAqegAwIBAgIBHjANBgkqhkiG9w0BAQsFADBjMQswCQYDVQQGEwJVUzET
MBEGA1UECAwKQ2FsaWZvcm5pYTEWMBQGA1UEBwwNTW91bnRhaW4gVmlldzEQMA4G
A1UECgwHVGVzdCBDQTEVMBMGA1UEAwwMVGVzdCBSb290IENBMB4XDTE3MDIyODAw
MDAwMFoXDTIwMDUzMDAwMDAwMFowYDELMAkGA1UEBhMCVVMxEzARBgNVBAgMCkNh
bGlmb3JuaWExFjAUBgNVBAcMDU1vdW50YWluIFZpZXcxEDAOBgNVBAoMB1Rlc3Qg
Q0ExEjAQBgNVBAMMCTEyNy4wLjAuMTCCASIwDQYJKoZIhvcNAQEBBQADggEPADCC
AQoCggEBAOCVNQ2OO8R8HerWGkGpTBRuPBKjAVX8te7VetNNtfSbDldQzCgXT2iT
XxTirMfrHeETgrYU651CJh48N8dz4pMP2VvnL0ZgVOakHImsnDAfKb824oiK5awU
Z9/XkziF2HFaXK6A0fnvEoKRCL7eB3AlvlA8xl7hFYKdHcsrTLHqLeRv2zPY0yfQ
wY9S25EatgOe+ztJfu9K/TiyxibqY4W+D1DDJEw23JZ7rlkfxUQqFHZxOausDq27
yjKUnNRbfXFryehLgI/kuAe/cAUvUreGfMres7M4Vl81lhWUww39RSs47srudzRi
XYVX0eMwJA6xXCGAWySCAWclEqeLPBECAwEAAaOBgDB+MAwGA1UdEwEB/wQCMAAw
HQYDVR0OBBYEFDlQCjIEp+xw9BseaPOzQFenVU2KMB8GA1UdIwQYMBaAFJsmC4qY
qbsduR8c4xpAM+2OF4irMB0GA1UdJQQWMBQGCCsGAQUFBwMBBggrBgEFBQcDAjAP
BgNVHREECDAGhwR/AAABMA0GCSqGSIb3DQEBCwUAA4IBAQCD8Av8PG5AawBY3kMq
1OoIjIicAnZ9n1UI/NrA/poHhMJdhQbs7uSKxMHybm6ovI/e0rQ5Q8iZVle49y6M
kKX9fR95jeEqWWXmmytdYnuw5WZFXv6jRFI0QJD2Nd1RfTgHC82E7GgZxci0Dhl/
8KiSM1mMJKh98LNLPCAJXbZ4orMehuOI/5QAdJfQQZFF9R0y4j/6zJAq/Y3ihOUb
FoMTPhxrn1UKuQAWtz8HaBtgz0ZWulQFBpBrQBbNTGdGh/EFNcbKB/viysHtNx6l
7IfKT7+Y5geOZnYmZ7koX5XvgzUJlLorSFNRDYVifrOj0PdEYhQhv7iZK7YLvrjJ
7pZW
-----END CERTIFICATE-----
