Certificate:
    Data:
        Version: 3 (0x2)
        Serial Number: 15 (0xf)
    Signature Algorithm: sha256WithRSAEncryption
        Issuer: C=US, ST=California, L=Mountain View, O=Test CA, CN=Test Root CA
        Validity
            Not Before: Apr  2 00:00:00 2015 GMT
            Not After : Aug  1 00:00:00 2018 GMT
        Subject: C=US, ST=California, L=Mountain View, O=Test CA, CN=127.0.0.1
        Subject Public Key Info:
            Public Key Algorithm: rsaEncryption
                Public-Key: (2048 bit)
                Modulus:
                    00:b9:66:bc:55:7c:ca:70:eb:2e:6a:8b:11:8c:af:
                    1e:2d:e2:ae:a5:b9:96:be:0a:16:08:2b:98:d6:8c:
                    a6:24:87:a8:0e:2e:23:f0:5a:8b:fa:6e:b7:dc:b2:
                    2a:56:57:d7:76:91:69:c3:23:44:f3:40:74:d7:83:
                    6d:fb:94:d9:e8:e6:34:96:2d:cb:43:02:69:c4:5f:
                    c0:01:09:9a:0f:55:5b:f5:b8:77:5e:ab:0b:58:46:
                    1f:d4:42:59:43:3f:5a:92:5a:ca:22:8d:a9:18:ff:
                    ac:48:e9:f3:a4:a4:f3:d5:9b:e8:23:70:cd:26:f2:
                    02:0b:e3:1e:a5:e6:ea:46:0f:39:06:fb:1b:f3:e9:
                    ce:65:df:15:e6:3f:72:c0:03:72:5e:3d:e0:4c:94:
                    27:8c:ee:76:44:49:eb:f0:27:0f:d9:fc:02:fe:e5:
                    fd:70:d8:fe:8a:a6:99:61:52:76:b9:6b:af:89:50:
                    84:ab:2b:c9:2a:13:0d:3b:f8:fe:50:61:a8:e0:57:
                    e1:f6:14:66:00:55:15:b3:99:03:be:fe:6f:24:39:
                    12:b6:8b:bd:d5:60:7f:21:c2:24:68:07:62:dd:73:
                    72:49:0a:09:cc:65:27:7c:37:0e:00:9b:b5:8a:4f:
                    70:fb:c5:14:34:42:cb:27:4b:22:50:8d:5b:17:0f:
                    9b:85
                Exponent: 65537 (0x10001)
        X509v3 extensions:
            X509v3 Basic Constraints: critical
                CA:FALSE
            X509v3 Subject Key Identifier: 
                CE:65:A6:37:A7:B6:38:4B:38:A3:6E:80:C7:7C:13:FB:51:C2:45:B6
            X509v3 Authority Key Identifier: 
                keyid:9B:26:0B:8A:98:A9:BB:1D:B9:1F:1C:E3:1A:40:33:ED:8E:17:88:AB

            X509v3 Extended Key Usage: 
                TLS Web Server Authentication, TLS Web Client Authentication
            X509v3 Subject Alternative Name: 
                IP Address:127.0.0.1
    Signature Algorithm: sha256WithRSAEncryption
         25:63:1e:16:83:f3:48:52:80:be:0b:82:4c:24:27:58:44:b0:
         1a:38:e4:4d:49:b8:86:43:a2:c7:59:31:40:74:3b:a7:18:07:
         30:7d:f6:5c:e5:f3:1f:49:d3:32:1c:f1:b9:47:c8:52:5b:19:
         93:a9:6b:80:41:96:a9:35:ce:d1:ff:9d:82:c6:13:ca:04:56:
         38:fc:df:cf:5a:54:5f:77:a9:28:c5:c6:0b:0b:56:04:e8:37:
         73:d3:8e:b9:6f:c8:92:46:ab:35:07:5e:55:06:d2:fc:ac:8b:
         e2:c7:4d:6c:30:1f:db:c1:29:b9:1b:2a:e1:b3:43:37:33:42:
         ad:3a:fa:20:96:46:f5:84:ea:15:c2:83:c9:12:c7:71:54:37:
         53:88:45:00:aa:62:d9:c1:f5:1e:c5:f1:11:95:7d:31:54:21:
         56:37:1d:36:b0:42:c8:a8:6d:83:01:8d:14:f8:e3:88:05:b6:
         81:43:d3:19:5d:3b:f4:6b:81:cf:2b:e8:cd:57:54:0e:6f:7a:
         ef:fc:47:e6:3c:a9:cb:14:4a:6e:29:c7:00:ae:86:c3:fe:74:
         38:92:37:bd:6a:08:97:f5:5c:26:b6:15:41:11:7a:1e:b9:71:
         e7:9e:73:6b:f4:10:03:76:43:86:91:02:f8:30:4c:e7:bc:af:
         55:10:bf:52
-----BEGIN CERTIFICATE-----
MIIDvzCCAqegAwIBAgIBDzANBgkqhkiG9w0BAQsFADBjMQswCQYDVQQGEwJVUzET
MBEGA1UECAwKQ2FsaWZvcm5pYTEWMBQGA1UEBwwNTW91bnRhaW4gVmlldzEQMA4G
A1UECgwHVGVzdCBDQTEVMBMGA1UEAwwMVGVzdCBSb290IENBMB4XDTE1MDQwMjAw
MDAwMFoXDTE4MDgwMTAwMDAwMFowYDELMAkGA1UEBhMCVVMxEzARBgNVBAgMCkNh
bGlmb3JuaWExFjAUBgNVBAcMDU1vdW50YWluIFZpZXcxEDAOBgNVBAoMB1Rlc3Qg
Q0ExEjAQBgNVBAMMCTEyNy4wLjAuMTCCASIwDQYJKoZIhvcNAQEBBQADggEPADCC
AQoCggEBALlmvFV8ynDrLmqLEYyvHi3irqW5lr4KFggrmNaMpiSHqA4uI/Bai/pu
t9yyKlZX13aRacMjRPNAdNeDbfuU2ejmNJYty0MCacRfwAEJmg9VW/W4d16rC1hG
H9RCWUM/WpJayiKNqRj/rEjp86Sk89Wb6CNwzSbyAgvjHqXm6kYPOQb7G/PpzmXf
FeY/csADcl494EyUJ4zudkRJ6/AnD9n8Av7l/XDY/oqmmWFSdrlrr4lQhKsrySoT
DTv4/lBhqOBX4fYUZgBVFbOZA77+byQ5EraLvdVgfyHCJGgHYt1zckkKCcxlJ3w3
DgCbtYpPcPvFFDRCyydLIlCNWxcPm4UCAwEAAaOBgDB+MAwGA1UdEwEB/wQCMAAw
HQYDVR0OBBYEFM5lpjentjhLOKNugMd8E/tRwkW2MB8GA1UdIwQYMBaAFJsmC4qY
qbsduR8c4xpAM+2OF4irMB0GA1UdJQQWMBQGCCsGAQUFBwMBBggrBgEFBQcDAjAP
BgNVHREECDAGhwR/AAABMA0GCSqGSIb3DQEBCwUAA4IBAQAlYx4Wg/NIUoC+C4JM
JCdYRLAaOORNSbiGQ6LHWTFAdDunGAcwffZc5fMfSdMyHPG5R8hSWxmTqWuAQZap
Nc7R/52CxhPKBFY4/N/PWlRfd6koxcYLC1YE6Ddz0465b8iSRqs1B15VBtL8rIvi
x01sMB/bwSm5Gyrhs0M3M0KtOvoglkb1hOoVwoPJEsdxVDdTiEUAqmLZwfUexfER
lX0xVCFWNx02sELIqG2DAY0U+OOIBbaBQ9MZXTv0a4HPK+jNV1QOb3rv/EfmPKnL
FEpuKccArobD/nQ4kje9agiX9VwmthVBEXoeuXHnnnNr9BADdkOGkQL4MEznvK9V
EL9S
-----END CERTIFICATE-----
