Certificate:
    Data:
        Version: 3 (0x2)
        Serial Number: 16 (0x10)
    Signature Algorithm: sha256WithRSAEncryption
        Issuer: C=US, ST=California, L=Mountain View, O=Test CA, CN=Test Root CA
        Validity
            Not Before: Oct 30 00:00:00 2014 GMT
            Not After : Sep 30 00:00:00 2019 GMT
        Subject: C=US, ST=California, L=Mountain View, O=Test CA, CN=127.0.0.1
        Subject Public Key Info:
            Public Key Algorithm: rsaEncryption
                Public-Key: (2048 bit)
                Modulus:
                    00:d7:ad:de:70:7e:14:f1:ca:94:be:98:67:43:26:
                    f8:b3:52:cf:da:cf:a3:ef:1b:68:c6:bd:89:ed:dd:
                    1d:c0:75:ee:5c:1c:bb:a4:da:d2:68:91:d9:52:ca:
                    49:9c:f4:fd:2e:03:de:da:01:51:6e:11:53:e0:9f:
                    3b:3b:f9:df:ed:18:ec:9c:54:90:4f:17:39:fd:5f:
                    d0:b3:37:1f:40:fe:8a:43:17:27:ed:81:d4:36:0b:
                    8c:c8:0d:d1:a0:79:0b:2a:36:76:80:c0:11:d0:2c:
                    30:2f:e0:97:8f:9a:2a:39:c7:98:81:91:c7:09:30:
                    12:10:5f:8c:7f:bd:8f:42:20:e2:82:dd:26:3c:1f:
                    2c:d1:9b:3c:92:25:8e:46:54:19:24:87:cc:e4:84:
                    d1:63:20:06:a9:08:53:cd:a6:81:bd:91:94:2b:4e:
                    05:84:32:93:d6:ce:56:1d:80:6d:4f:bc:ef:cb:d0:
                    bc:d4:c8:ce:ff:ac:1f:41:cc:4e:fb:2e:14:a3:54:
                    84:14:e4:5b:8b:f8:a4:d8:40:d9:11:12:1d:c5:6a:
                    d0:e7:13:e5:cb:97:9e:d2:61:64:c3:58:3a:c1:e2:
                    07:5a:b8:32:27:b9:fa:67:4d:69:05:8e:c5:92:03:
                    c1:e8:b6:0e:94:a4:91:64:99:72:50:bb:d0:5b:68:
                    2c:0d
                Exponent: 65537 (0x10001)
        X509v3 extensions:
            X509v3 Basic Constraints: critical
                CA:FALSE
            X509v3 Subject Key Identifier: 
                BA:4E:4A:D5:D7:99:D0:37:13:7B:64:37:1A:0B:1F:5E:9D:93:1F:F4
            X509v3 Authority Key Identifier: 
                keyid:9B:26:0B:8A:98:A9:BB:1D:B9:1F:1C:E3:1A:40:33:ED:8E:17:88:AB

            X509v3 Extended Key Usage: 
                TLS Web Server Authentication, TLS Web Client Authentication
            X509v3 Subject Alternative Name: 
                IP Address:127.0.0.1
    Signature Algorithm: sha256WithRSAEncryption
         a2:e4:6c:8f:21:3b:6c:ee:16:f3:58:41:35:18:e2:a7:88:e5:
         d5:7b:a5:4c:e3:36:9d:d9:f5:ba:98:38:6c:da:b8:b3:4e:fa:
         c8:38:fa:a9:89:62:90:cb:ec:6a:26:ac:f3:7b:5c:f1:68:06:
         dd:34:0f:fc:39:27:8f:fa:e9:c8:8e:81:0e:57:ca:40:6d:ee:
         79:a7:f7:02:28:18:60:2c:a7:81:c6:45:a2:2d:fc:2c:bc:87:
         76:3a:e1:b5:52:67:99:1b:0b:d6:f3:57:d5:29:ec:ee:a5:ea:
         1d:9c:29:ec:f9:f9:cf:48:72:86:15:99:a1:e6:55:e1:b6:e4:
         50:15:25:58:71:5e:26:a7:af:03:21:ce:ca:62:cd:98:d5:d4:
         0c:32:4a:05:82:35:2a:bd:06:ce:c2:05:01:55:82:ee:98:e2:
         a7:07:55:1e:0c:4b:48:05:42:89:29:08:13:0a:f5:1d:7c:9f:
         a4:09:99:35:bb:9b:44:ad:81:87:75:8a:b1:a0:bf:2d:46:c6:
         5b:90:84:03:20:6f:6e:d3:b9:52:44:06:28:3f:16:f2:75:27:
         66:01:70:39:79:39:84:ed:e5:61:b0:83:22:c9:f1:ad:ca:8a:
         6c:26:4a:c7:05:9a:7f:9f:29:6f:ed:a9:1e:8d:29:b5:08:26:
         21:61:c2:54
-----BEGIN CERTIFICATE-----
MIIDvzCCAqegAwIBAgIBEDANBgkqhkiG9w0BAQsFADBjMQswCQYDVQQGEwJVUzET
MBEGA1UECAwKQ2FsaWZvcm5pYTEWMBQGA1UEBwwNTW91bnRhaW4gVmlldzEQMA4G
A1UECgwHVGVzdCBDQTEVMBMGA1UEAwwMVGVzdCBSb290IENBMB4XDTE0MTAzMDAw
MDAwMFoXDTE5MDkzMDAwMDAwMFowYDELMAkGA1UEBhMCVVMxEzARBgNVBAgMCkNh
bGlmb3JuaWExFjAUBgNVBAcMDU1vdW50YWluIFZpZXcxEDAOBgNVBAoMB1Rlc3Qg
Q0ExEjAQBgNVBAMMCTEyNy4wLjAuMTCCASIwDQYJKoZIhvcNAQEBBQADggEPADCC
AQoCggEBANet3nB+FPHKlL6YZ0Mm+LNSz9rPo+8baMa9ie3dHcB17lwcu6Ta0miR
2VLKSZz0/S4D3toBUW4RU+CfOzv53+0Y7JxUkE8XOf1f0LM3H0D+ikMXJ+2B1DYL
jMgN0aB5Cyo2doDAEdAsMC/gl4+aKjnHmIGRxwkwEhBfjH+9j0Ig4oLdJjwfLNGb
PJIljkZUGSSHzOSE0WMgBqkIU82mgb2RlCtOBYQyk9bOVh2AbU+878vQvNTIzv+s
H0HMTvsuFKNUhBTkW4v4pNhA2RESHcVq0OcT5cuXntJhZMNYOsHiB1q4Mie5+mdN
aQWOxZIDwei2DpSkkWSZclC70FtoLA0CAwEAAaOBgDB+MAwGA1UdEwEB/wQCMAAw
HQYDVR0OBBYEFLpOStXXmdA3E3tkNxoLH16dkx/0MB8GA1UdIwQYMBaAFJsmC4qY
qbsduR8c4xpAM+2OF4irMB0GA1UdJQQWMBQGCCsGAQUFBwMBBggrBgEFBQcDAjAP
BgNVHREECDAGhwR/AAABMA0GCSqGSIb3DQEBCwUAA4IBAQCi5GyPITts7hbzWEE1
GOKniOXVe6VM4zad2fW6mDhs2rizTvrIOPqpiWKQy+xqJqzze1zxaAbdNA/8OSeP
+unIjoEOV8pAbe55p/cCKBhgLKeBxkWiLfwsvId2OuG1UmeZGwvW81fVKezupeod
nCns+fnPSHKGFZmh5lXhtuRQFSVYcV4mp68DIc7KYs2Y1dQMMkoFgjUqvQbOwgUB
VYLumOKnB1UeDEtIBUKJKQgTCvUdfJ+kCZk1u5tErYGHdYqxoL8tRsZbkIQDIG9u
07lSRAYoPxbydSdmAXA5eTmE7eVhsIMiyfGtyopsJkrHBZp/nylv7akejSm1CCYh
YcJU
-----END CERTIFICATE-----
