Certificate:
    Data:
        Version: 3 (0x2)
        Serial Number: 17 (0x11)
    Signature Algorithm: sha256WithRSAEncryption
        Issuer: C=US, ST=California, L=Mountain View, O=Test CA, CN=Test Root CA
        Validity
            Not Before: Oct 30 00:00:00 2014 GMT
            Not After : Jun  9 17:10:52 2022 GMT
        Subject: C=US, ST=California, L=Mountain View, O=Test CA, CN=127.0.0.1
        Subject Public Key Info:
            Public Key Algorithm: rsaEncryption
                Public-Key: (2048 bit)
                Modulus:
                    00:e1:6a:f0:32:d3:9e:18:77:0f:08:d1:d0:03:11:
                    ac:65:b3:11:e5:dd:5f:ee:74:f5:ff:c8:b1:56:80:
                    fd:ad:af:82:24:95:c0:7d:99:d2:62:46:bb:fb:9e:
                    75:40:5e:15:d0:9e:d9:29:0a:3f:25:bd:83:a5:da:
                    c6:41:99:59:b2:8e:7b:3e:bb:2d:0c:8f:ea:f9:26:
                    e5:c6:8f:4a:68:0b:fa:84:3c:1b:57:db:53:eb:6c:
                    af:9a:8a:7b:9b:b0:fb:cc:92:3e:8a:ea:24:d0:3c:
                    ff:06:c6:f0:79:b2:1b:8d:3f:3f:d6:ed:08:8c:48:
                    9c:40:fa:f9:28:95:d1:f3:5e:8d:1b:4b:63:c4:d3:
                    48:77:34:ee:82:db:6e:53:6b:32:ba:db:23:87:07:
                    85:ad:26:9b:1b:d0:bb:2f:6b:48:c0:17:d0:2a:af:
                    04:c2:87:10:5c:16:71:4c:a5:21:0d:5b:c0:80:1c:
                    c5:7c:39:4b:ca:93:23:5a:37:e4:fb:d2:7d:2c:f8:
                    1b:20:bc:06:01:76:05:63:07:bd:3d:b7:6f:b2:dd:
                    68:d9:88:76:9e:23:17:9a:8d:d1:58:b6:a9:9a:81:
                    72:c0:8c:2b:8b:b3:e0:c5:93:b1:50:49:d3:ef:de:
                    9b:e0:1f:75:77:cb:61:ae:f4:7a:f8:40:2e:88:77:
                    67:bf
                Exponent: 65537 (0x10001)
        X509v3 extensions:
            X509v3 Basic Constraints: critical
                CA:FALSE
            X509v3 Subject Key Identifier: 
                ED:25:EF:01:D1:A8:70:5C:5B:FD:6B:2C:9E:5E:69:2F:49:21:C1:DA
            X509v3 Authority Key Identifier: 
                keyid:9B:26:0B:8A:98:A9:BB:1D:B9:1F:1C:E3:1A:40:33:ED:8E:17:88:AB

            X509v3 Extended Key Usage: 
                TLS Web Server Authentication, TLS Web Client Authentication
            X509v3 Subject Alternative Name: 
                IP Address:127.0.0.1
    Signature Algorithm: sha256WithRSAEncryption
         19:1d:92:62:5e:9f:3a:4b:20:2c:2e:1a:25:31:1d:95:b4:21:
         d3:ec:ee:77:60:85:85:40:1c:eb:7f:22:9e:ab:1f:74:74:d5:
         cc:4b:af:c4:cc:4f:60:ab:05:14:f1:35:20:b7:ec:92:56:0e:
         2d:b4:de:65:f2:50:31:19:ad:9e:7e:bb:50:05:e4:e7:d8:5d:
         ed:d1:f8:58:75:5d:72:23:97:30:e6:e8:ac:83:35:1d:6a:5f:
         94:2f:55:59:1e:a5:a5:a1:90:86:d9:5b:0f:54:59:05:11:01:
         ee:a7:fe:c9:a3:13:32:13:d8:c4:55:95:c6:cf:fa:be:a5:ff:
         57:4d:e7:15:de:7e:82:8d:7f:d1:3b:49:0f:98:dc:28:c7:af:
         62:aa:f8:bd:a4:db:aa:a5:56:d3:49:91:5a:86:28:b0:5a:90:
         b9:7d:9f:e0:cc:f2:e3:dc:5e:f0:bf:92:38:7d:b8:d2:f4:af:
         83:ef:c7:02:60:e7:6b:12:d7:b9:ea:20:e7:3b:e4:75:61:cf:
         98:58:af:fe:11:81:08:b6:98:cc:ce:4f:d5:9c:93:88:c6:a7:
         52:31:53:d0:d0:cf:c5:65:e4:b3:0a:ef:4b:01:73:e3:8c:40:
         10:a4:52:4d:08:4c:85:8d:27:ad:f6:2f:4a:7a:9c:4b:d4:99:
         94:07:be:90
-----BEGIN CERTIFICATE-----
MIIDvzCCAqegAwIBAgIBETANBgkqhkiG9w0BAQsFADBjMQswCQYDVQQGEwJVUzET
MBEGA1UECAwKQ2FsaWZvcm5pYTEWMBQGA1UEBwwNTW91bnRhaW4gVmlldzEQMA4G
A1UECgwHVGVzdCBDQTEVMBMGA1UEAwwMVGVzdCBSb290IENBMB4XDTE0MTAzMDAw
MDAwMFoXDTIyMDYwOTE3MTA1MlowYDELMAkGA1UEBhMCVVMxEzARBgNVBAgMCkNh
bGlmb3JuaWExFjAUBgNVBAcMDU1vdW50YWluIFZpZXcxEDAOBgNVBAoMB1Rlc3Qg
Q0ExEjAQBgNVBAMMCTEyNy4wLjAuMTCCASIwDQYJKoZIhvcNAQEBBQADggEPADCC
AQoCggEBAOFq8DLTnhh3DwjR0AMRrGWzEeXdX+509f/IsVaA/a2vgiSVwH2Z0mJG
u/uedUBeFdCe2SkKPyW9g6XaxkGZWbKOez67LQyP6vkm5caPSmgL+oQ8G1fbU+ts
r5qKe5uw+8ySPorqJNA8/wbG8HmyG40/P9btCIxInED6+SiV0fNejRtLY8TTSHc0
7oLbblNrMrrbI4cHha0mmxvQuy9rSMAX0CqvBMKHEFwWcUylIQ1bwIAcxXw5S8qT
I1o35PvSfSz4GyC8BgF2BWMHvT23b7LdaNmIdp4jF5qN0Vi2qZqBcsCMK4uz4MWT
sVBJ0+/em+AfdXfLYa70evhALoh3Z78CAwEAAaOBgDB+MAwGA1UdEwEB/wQCMAAw
HQYDVR0OBBYEFO0l7wHRqHBcW/1rLJ5eaS9JIcHaMB8GA1UdIwQYMBaAFJsmC4qY
qbsduR8c4xpAM+2OF4irMB0GA1UdJQQWMBQGCCsGAQUFBwMBBggrBgEFBQcDAjAP
BgNVHREECDAGhwR/AAABMA0GCSqGSIb3DQEBCwUAA4IBAQAZHZJiXp86SyAsLhol
MR2VtCHT7O53YIWFQBzrfyKeqx90dNXMS6/EzE9gqwUU8TUgt+ySVg4ttN5l8lAx
Ga2efrtQBeTn2F3t0fhYdV1yI5cw5uisgzUdal+UL1VZHqWloZCG2VsPVFkFEQHu
p/7JoxMyE9jEVZXGz/q+pf9XTecV3n6CjX/RO0kPmNwox69iqvi9pNuqpVbTSZFa
hiiwWpC5fZ/gzPLj3F7wv5I4fbjS9K+D78cCYOdrEte56iDnO+R1Yc+YWK/+EYEI
tpjMzk/VnJOIxqdSMVPQ0M/FZeSzCu9LAXPjjEAQpFJNCEyFjSet9i9KepxL1JmU
B76Q
-----END CERTIFICATE-----
