Certificate:
    Data:
        Version: 3 (0x2)
        Serial Number: 28 (0x1c)
    Signature Algorithm: sha256WithRSAEncryption
        Issuer: C=US, ST=California, L=Mountain View, O=Test CA, CN=Test Root CA
        Validity
            Not Before: Mar  2 00:00:00 2018 GMT
            Not After : Jun  4 00:00:00 2020 GMT
        Subject: C=US, ST=California, L=Mountain View, O=Test CA, CN=127.0.0.1
        Subject Public Key Info:
            Public Key Algorithm: rsaEncryption
                Public-Key: (2048 bit)
                Modulus:
                    00:a9:a4:7e:68:33:ea:40:c5:66:fe:cf:92:6c:ab:
                    fc:dc:2c:e7:42:73:44:1a:f4:0e:8b:3b:3d:23:d7:
                    41:aa:21:7e:a6:98:06:9c:05:d3:e6:60:e5:52:5e:
                    4f:f2:dd:22:f3:1a:e7:7a:43:91:c5:7a:5b:b9:75:
                    f0:57:ae:69:73:e3:4d:7b:ec:e1:fa:05:34:93:7f:
                    95:84:dd:3b:75:73:ab:fc:fc:2d:84:04:3f:1f:20:
                    d8:2e:6e:b9:9e:51:b1:8f:57:17:67:56:ec:8c:5a:
                    08:36:a5:5e:4f:14:18:87:5f:82:f0:2c:87:d6:de:
                    06:d3:f7:7f:99:54:55:3f:ec:fc:51:20:ac:48:89:
                    34:22:c2:13:a5:75:20:e6:5b:c3:61:9e:8d:b2:24:
                    99:8b:c1:e3:3d:54:7a:5b:d6:68:83:b2:49:a1:9a:
                    df:70:e2:bb:eb:8c:0c:a8:9a:a0:af:5e:d3:e9:db:
                    93:51:9f:1c:48:80:0f:4d:76:20:34:23:fe:2a:8e:
                    52:e2:93:9a:e3:fb:6b:73:a6:fa:6f:2d:50:5a:65:
                    ce:ed:15:ca:94:9d:56:7f:9d:23:f5:ce:0b:54:04:
                    ad:ff:17:4e:92:4a:d1:1c:ab:a7:c2:9d:99:e7:3b:
                    f1:98:68:88:a7:5c:e5:c0:39:5f:c3:25:56:85:a6:
                    14:c1
                Exponent: 65537 (0x10001)
        X509v3 extensions:
            X509v3 Basic Constraints: critical
                CA:FALSE
            X509v3 Subject Key Identifier: 
                32:7A:77:17:24:D3:A1:E2:D9:79:98:0C:A0:19:65:18:06:7D:74:4B
            X509v3 Authority Key Identifier: 
                keyid:9B:26:0B:8A:98:A9:BB:1D:B9:1F:1C:E3:1A:40:33:ED:8E:17:88:AB

            X509v3 Extended Key Usage: 
                TLS Web Server Authentication, TLS Web Client Authentication
            X509v3 Subject Alternative Name: 
                IP Address:127.0.0.1
    Signature Algorithm: sha256WithRSAEncryption
         23:0d:4a:51:cc:45:b5:57:44:4b:db:8b:18:f9:77:85:72:ed:
         94:b8:20:31:52:0e:c3:49:71:2f:0b:1f:fe:a4:d9:39:e4:99:
         52:fd:a5:22:fc:9e:f4:45:9b:be:dd:a5:52:2b:45:74:52:61:
         e0:03:66:f2:88:c8:15:79:4a:cf:e1:71:b3:d9:40:21:93:5f:
         1a:a4:08:26:80:32:45:5a:0e:a4:b2:79:1f:02:5a:c1:c7:61:
         32:c4:e0:0d:07:32:71:38:f4:85:b8:55:84:0d:ec:b2:cc:f3:
         8d:a1:df:d2:70:c2:d4:f1:68:4c:b0:87:a7:37:4d:44:b7:d6:
         93:37:bb:d3:0d:9c:11:5e:4c:1e:f9:c5:5a:26:53:82:46:62:
         cf:10:fd:9c:c3:5f:48:02:69:90:9e:36:f6:77:fe:53:a6:6d:
         3c:52:ac:38:4b:44:d2:58:df:71:ec:e1:c3:6e:da:08:0c:ae:
         c7:19:ef:fe:94:1b:ce:2d:40:c9:e7:ff:9c:c1:8a:f6:0f:79:
         d6:bf:59:c3:ea:13:42:24:79:35:d6:85:13:54:d3:96:58:4c:
         8d:0a:01:d9:7d:37:97:9e:66:56:f7:75:f5:b8:8c:8b:a2:73:
         e1:07:ca:5b:41:3e:db:2c:c7:8a:ad:97:95:b9:1a:e5:51:2f:
         42:49:88:b4
-----BEGIN CERTIFICATE-----
MIIDvzCCAqegAwIBAgIBHDANBgkqhkiG9w0BAQsFADBjMQswCQYDVQQGEwJVUzET
MBEGA1UECAwKQ2FsaWZvcm5pYTEWMBQGA1UEBwwNTW91bnRhaW4gVmlldzEQMA4G
A1UECgwHVGVzdCBDQTEVMBMGA1UEAwwMVGVzdCBSb290IENBMB4XDTE4MDMwMjAw
MDAwMFoXDTIwMDYwNDAwMDAwMFowYDELMAkGA1UEBhMCVVMxEzARBgNVBAgMCkNh
bGlmb3JuaWExFjAUBgNVBAcMDU1vdW50YWluIFZpZXcxEDAOBgNVBAoMB1Rlc3Qg
Q0ExEjAQBgNVBAMMCTEyNy4wLjAuMTCCASIwDQYJKoZIhvcNAQEBBQADggEPADCC
AQoCggEBAKmkfmgz6kDFZv7Pkmyr/Nws50JzRBr0Dos7PSPXQaohfqaYBpwF0+Zg
5VJeT/LdIvMa53pDkcV6W7l18FeuaXPjTXvs4foFNJN/lYTdO3Vzq/z8LYQEPx8g
2C5uuZ5RsY9XF2dW7IxaCDalXk8UGIdfgvAsh9beBtP3f5lUVT/s/FEgrEiJNCLC
E6V1IOZbw2GejbIkmYvB4z1UelvWaIOySaGa33Diu+uMDKiaoK9e0+nbk1GfHEiA
D012IDQj/iqOUuKTmuP7a3Om+m8tUFplzu0VypSdVn+dI/XOC1QErf8XTpJK0Ryr
p8Kdmec78ZhoiKdc5cA5X8MlVoWmFMECAwEAAaOBgDB+MAwGA1UdEwEB/wQCMAAw
HQYDVR0OBBYEFDJ6dxck06Hi2XmYDKAZZRgGfXRLMB8GA1UdIwQYMBaAFJsmC4qY
qbsduR8c4xpAM+2OF4irMB0GA1UdJQQWMBQGCCsGAQUFBwMBBggrBgEFBQcDAjAP
BgNVHREECDAGhwR/AAABMA0GCSqGSIb3DQEBCwUAA4IBAQAjDUpRzEW1V0RL24sY
+XeFcu2UuCAxUg7DSXEvCx/+pNk55JlS/aUi/J70RZu+3aVSK0V0UmHgA2byiMgV
eUrP4XGz2UAhk18apAgmgDJFWg6ksnkfAlrBx2EyxOANBzJxOPSFuFWEDeyyzPON
od/ScMLU8WhMsIenN01Et9aTN7vTDZwRXkwe+cVaJlOCRmLPEP2cw19IAmmQnjb2
d/5Tpm08Uqw4S0TSWN9x7OHDbtoIDK7HGe/+lBvOLUDJ5/+cwYr2D3nWv1nD6hNC
JHk11oUTVNOWWEyNCgHZfTeXnmZW93X1uIyLonPhB8pbQT7bLMeKrZeVuRrlUS9C
SYi0
-----END CERTIFICATE-----
