Certificate:
    Data:
        Version: 3 (0x2)
        Serial Number: 29 (0x1d)
    Signature Algorithm: sha256WithRSAEncryption
        Issuer: C=US, ST=California, L=Mountain View, O=Test CA, CN=Test Root CA
        Validity
            Not Before: Mar  2 00:00:00 2018 GMT
            Not After : Jun  4 00:00:01 2020 GMT
        Subject: C=US, ST=California, L=Mountain View, O=Test CA, CN=127.0.0.1
        Subject Public Key Info:
            Public Key Algorithm: rsaEncryption
                Public-Key: (2048 bit)
                Modulus:
                    00:b1:72:29:83:ff:96:bf:59:ab:e7:e0:a2:c3:eb:
                    03:05:2a:34:92:0f:b9:4d:51:7a:4f:2d:3d:4b:24:
                    f8:d8:17:0e:9f:88:38:aa:fc:5b:bb:13:ab:a1:1d:
                    c6:1e:58:b2:b1:f5:04:bb:75:7f:70:9e:82:8f:97:
                    73:25:c8:ff:35:41:2f:0c:20:f1:4a:98:18:5f:aa:
                    8a:14:e8:9b:6c:f4:15:28:15:ad:52:da:f9:18:74:
                    70:f9:c7:93:3c:2b:ee:88:37:de:51:af:b7:0e:0c:
                    a1:4f:00:4f:48:fe:58:47:69:b8:57:98:f9:46:f7:
                    db:ab:59:02:e6:c5:55:45:04:26:6b:7b:52:41:b7:
                    24:4e:d4:c2:f9:bc:1b:ff:6d:fb:37:0f:88:f5:e8:
                    4e:24:e1:e5:ce:e7:2b:2d:a7:1c:44:18:cc:56:7d:
                    92:06:51:03:56:0f:f6:1c:fa:c6:52:39:aa:f7:f8:
                    09:d3:0d:4d:e7:fa:71:f9:79:3a:26:0a:85:cd:5b:
                    d5:3b:af:cb:49:d8:2c:f9:fb:cb:5e:f9:ca:8c:1d:
                    0e:b7:03:70:9b:84:f6:dc:9d:39:6e:19:5a:d1:76:
                    bb:57:57:be:e0:d1:4f:5b:30:5c:22:6e:5f:e4:27:
                    1a:0c:5d:62:65:9a:f3:e1:d9:45:be:6a:38:a4:15:
                    49:bb
                Exponent: 65537 (0x10001)
        X509v3 extensions:
            X509v3 Basic Constraints: critical
                CA:FALSE
            X509v3 Subject Key Identifier: 
                BC:F3:2D:55:5F:B1:CE:8D:5A:05:B4:FC:17:A9:4A:2F:14:8E:1C:F2
            X509v3 Authority Key Identifier: 
                keyid:9B:26:0B:8A:98:A9:BB:1D:B9:1F:1C:E3:1A:40:33:ED:8E:17:88:AB

            X509v3 Extended Key Usage: 
                TLS Web Server Authentication, TLS Web Client Authentication
            X509v3 Subject Alternative Name: 
                IP Address:127.0.0.1
    Signature Algorithm: sha256WithRSAEncryption
         76:6e:b9:fe:1c:ee:83:57:f7:cb:b8:51:e9:9a:c5:49:04:79:
         d7:fc:1b:8a:53:62:d5:50:fd:f6:11:73:3c:cd:be:49:27:6e:
         26:68:87:f8:2e:a8:de:0d:d4:a2:22:66:fc:f4:5b:fc:7c:e1:
         0b:06:ae:4d:8c:af:20:30:67:b0:2e:99:72:12:ee:54:89:4d:
         f8:21:32:d4:0f:50:54:ed:cb:4e:c9:8c:ba:ce:37:ec:a2:92:
         58:b4:6f:bd:98:5f:fd:10:71:39:ac:4e:da:ad:71:13:a4:7b:
         af:54:7e:47:11:30:55:93:50:ff:de:10:eb:be:9a:ca:77:cc:
         e6:10:3e:bd:a3:c8:ce:42:00:cd:1d:d1:a4:d0:79:b2:f2:df:
         09:7c:c9:8a:57:5e:b5:15:8f:d7:19:ad:5d:d5:9a:a8:5b:2a:
         3e:49:4e:a9:6e:c7:bc:c0:d6:4a:21:02:48:a4:c1:60:0d:dd:
         bb:a6:d9:d3:c7:4f:a8:35:63:a4:3c:43:47:3d:68:96:ba:44:
         4f:08:0d:a6:40:0a:c2:c6:76:a8:79:a2:5b:e9:00:da:4a:7e:
         87:46:94:d5:16:bc:08:e7:6f:66:3a:4a:37:fe:99:2f:25:38:
         2b:3a:cd:e9:2d:e4:dc:c0:9d:38:34:42:5a:6a:7b:be:dc:a7:
         d0:a7:9a:4f
-----BEGIN CERTIFICATE-----
MIIDvzCCAqegAwIBAgIBHTANBgkqhkiG9w0BAQsFADBjMQswCQYDVQQGEwJVUzET
MBEGA1UECAwKQ2FsaWZvcm5pYTEWMBQGA1UEBwwNTW91bnRhaW4gVmlldzEQMA4G
A1UECgwHVGVzdCBDQTEVMBMGA1UEAwwMVGVzdCBSb290IENBMB4XDTE4MDMwMjAw
MDAwMFoXDTIwMDYwNDAwMDAwMVowYDELMAkGA1UEBhMCVVMxEzARBgNVBAgMCkNh
bGlmb3JuaWExFjAUBgNVBAcMDU1vdW50YWluIFZpZXcxEDAOBgNVBAoMB1Rlc3Qg
Q0ExEjAQBgNVBAMMCTEyNy4wLjAuMTCCASIwDQYJKoZIhvcNAQEBBQADggEPADCC
AQoCggEBALFyKYP/lr9Zq+fgosPrAwUqNJIPuU1Rek8tPUsk+NgXDp+IOKr8W7sT
q6Edxh5YsrH1BLt1f3Cego+XcyXI/zVBLwwg8UqYGF+qihTom2z0FSgVrVLa+Rh0
cPnHkzwr7og33lGvtw4MoU8AT0j+WEdpuFeY+Ub326tZAubFVUUEJmt7UkG3JE7U
wvm8G/9t+zcPiPXoTiTh5c7nKy2nHEQYzFZ9kgZRA1YP9hz6xlI5qvf4CdMNTef6
cfl5OiYKhc1b1Tuvy0nYLPn7y175yowdDrcDcJuE9tydOW4ZWtF2u1dXvuDRT1sw
XCJuX+QnGgxdYmWa8+HZRb5qOKQVSbsCAwEAAaOBgDB+MAwGA1UdEwEB/wQCMAAw
HQYDVR0OBBYEFLzzLVVfsc6NWgW0/BepSi8UjhzyMB8GA1UdIwQYMBaAFJsmC4qY
qbsduR8c4xpAM+2OF4irMB0GA1UdJQQWMBQGCCsGAQUFBwMBBggrBgEFBQcDAjAP
BgNVHREECDAGhwR/AAABMA0GCSqGSIb3DQEBCwUAA4IBAQB2brn+HO6DV/fLuFHp
msVJBHnX/BuKU2LVUP32EXM8zb5JJ24maIf4LqjeDdSiImb89Fv8fOELBq5NjK8g
MGewLplyEu5UiU34ITLUD1BU7ctOyYy6zjfsopJYtG+9mF/9EHE5rE7arXETpHuv
VH5HETBVk1D/3hDrvprKd8zmED69o8jOQgDNHdGk0Hmy8t8JfMmKV161FY/XGa1d
1ZqoWyo+SU6pbse8wNZKIQJIpMFgDd27ptnTx0+oNWOkPENHPWiWukRPCA2mQArC
xnaoeaJb6QDaSn6HRpTVFrwI529mOko3/pkvJTgrOs3pLeTcwJ04NEJaanu+3KfQ
p5pP
-----END CERTIFICATE-----
