Certificate:
    Data:
        Version: 3 (0x2)
        Serial Number: 27 (0x1b)
    Signature Algorithm: sha256WithRSAEncryption
        Issuer: C=US, ST=California, L=Mountain View, O=Test CA, CN=Test Root CA
        Validity
            Not Before: Mar  2 00:00:00 2018 GMT
            Not After : Jun  5 00:00:00 2020 GMT
        Subject: C=US, ST=California, L=Mountain View, O=Test CA, CN=127.0.0.1
        Subject Public Key Info:
            Public Key Algorithm: rsaEncryption
                Public-Key: (2048 bit)
                Modulus:
                    00:cf:da:ab:7b:a6:ed:17:b4:7b:14:b9:8c:29:a3:
                    7f:25:cb:7c:a4:1c:23:da:c5:fc:8a:29:bd:be:b0:
                    3d:40:c1:51:08:46:db:73:8c:dd:5c:06:3e:8c:f2:
                    b5:d1:eb:b0:94:74:e0:46:14:b6:55:d0:bb:a9:b9:
                    63:ae:7c:ee:e6:4c:7a:81:f3:37:1f:37:8b:dc:86:
                    d1:79:0f:6e:ca:ca:ff:d0:91:e2:e9:f6:0c:38:ca:
                    29:18:d2:92:65:88:6d:d6:72:14:b2:8b:06:11:6f:
                    f7:3d:9d:54:3b:b5:ca:4d:d6:02:d8:1b:28:2c:bd:
                    35:09:d3:29:c7:1d:82:9b:12:3b:a8:5c:51:68:69:
                    72:d2:03:6a:2e:af:b5:33:fc:f3:57:b6:cb:7f:76:
                    d6:2d:f7:82:74:50:f0:ef:b0:ac:08:90:be:b1:6c:
                    47:ad:cb:e5:e1:fe:9a:c2:e8:0e:7f:e7:40:11:87:
                    ec:1b:37:cb:d2:6d:77:96:66:48:15:c2:f2:c2:9b:
                    aa:e0:64:ad:8f:ee:fe:81:ca:26:43:0f:21:f3:33:
                    47:0d:be:ab:a4:8f:8f:84:1d:bc:e8:8f:ef:4d:ad:
                    7b:39:30:22:c0:67:b2:ec:86:f7:f0:7b:f3:11:3d:
                    8d:b3:5e:74:a4:9f:75:e4:4a:6c:c2:b8:d5:91:52:
                    bf:4f
                Exponent: 65537 (0x10001)
        X509v3 extensions:
            X509v3 Basic Constraints: critical
                CA:FALSE
            X509v3 Subject Key Identifier: 
                57:B6:A1:A5:9D:E5:D4:1E:49:10:E6:56:D8:70:E6:A1:D5:74:F2:46
            X509v3 Authority Key Identifier: 
                keyid:9B:26:0B:8A:98:A9:BB:1D:B9:1F:1C:E3:1A:40:33:ED:8E:17:88:AB

            X509v3 Extended Key Usage: 
                TLS Web Server Authentication, TLS Web Client Authentication
            X509v3 Subject Alternative Name: 
                IP Address:127.0.0.1
    Signature Algorithm: sha256WithRSAEncryption
         92:f9:fd:c1:02:55:b9:61:ac:c5:15:87:4c:24:db:a5:b4:9b:
         33:ab:24:3e:4c:3d:28:f4:f1:2c:50:64:ca:8a:2f:79:df:af:
         e7:d8:cb:8e:98:c9:d3:f3:be:b3:40:ec:28:47:66:be:6f:75:
         b8:eb:3f:07:18:97:2c:a1:7d:65:3b:4f:d8:c9:4b:ba:21:c2:
         af:cf:90:aa:6a:a1:e7:70:3e:c0:54:6e:22:6c:11:ce:55:f2:
         d7:9d:6a:bb:4d:40:8c:24:05:04:05:c0:35:c4:28:b7:0b:d6:
         c9:39:a1:1b:6b:8a:aa:da:87:8f:ce:be:18:ac:04:1b:31:52:
         39:ab:03:cf:41:07:b5:64:e2:e5:5b:76:52:20:2a:9e:4d:17:
         c4:b6:64:09:0e:64:66:f9:d3:23:74:2c:fe:c1:79:15:e0:c0:
         59:a1:ee:71:f7:0a:8e:3a:5c:46:c0:18:20:a0:33:ff:02:37:
         46:61:a8:6a:51:ac:a5:39:a1:cf:49:61:76:6b:df:a9:68:63:
         e9:d2:1a:bb:43:60:d4:99:65:1a:91:04:03:42:43:db:2b:28:
         dc:c8:af:03:b4:71:5a:c9:17:a5:ff:c9:cc:04:c7:41:7f:b3:
         a5:d5:72:3d:77:45:f3:57:a0:1d:24:4f:8a:24:42:a5:9d:49:
         f2:18:cc:ac
-----BEGIN CERTIFICATE-----
MIIDvzCCAqegAwIBAgIBGzANBgkqhkiG9w0BAQsFADBjMQswCQYDVQQGEwJVUzET
MBEGA1UECAwKQ2FsaWZvcm5pYTEWMBQGA1UEBwwNTW91bnRhaW4gVmlldzEQMA4G
A1UECgwHVGVzdCBDQTEVMBMGA1UEAwwMVGVzdCBSb290IENBMB4XDTE4MDMwMjAw
MDAwMFoXDTIwMDYwNTAwMDAwMFowYDELMAkGA1UEBhMCVVMxEzARBgNVBAgMCkNh
bGlmb3JuaWExFjAUBgNVBAcMDU1vdW50YWluIFZpZXcxEDAOBgNVBAoMB1Rlc3Qg
Q0ExEjAQBgNVBAMMCTEyNy4wLjAuMTCCASIwDQYJKoZIhvcNAQEBBQADggEPADCC
AQoCggEBAM/aq3um7Re0exS5jCmjfyXLfKQcI9rF/Iopvb6wPUDBUQhG23OM3VwG
PozytdHrsJR04EYUtlXQu6m5Y6587uZMeoHzNx83i9yG0XkPbsrK/9CR4un2DDjK
KRjSkmWIbdZyFLKLBhFv9z2dVDu1yk3WAtgbKCy9NQnTKccdgpsSO6hcUWhpctID
ai6vtTP881e2y3921i33gnRQ8O+wrAiQvrFsR63L5eH+msLoDn/nQBGH7Bs3y9Jt
d5ZmSBXC8sKbquBkrY/u/oHKJkMPIfMzRw2+q6SPj4QdvOiP702tezkwIsBnsuyG
9/B78xE9jbNedKSfdeRKbMK41ZFSv08CAwEAAaOBgDB+MAwGA1UdEwEB/wQCMAAw
HQYDVR0OBBYEFFe2oaWd5dQeSRDmVthw5qHVdPJGMB8GA1UdIwQYMBaAFJsmC4qY
qbsduR8c4xpAM+2OF4irMB0GA1UdJQQWMBQGCCsGAQUFBwMBBggrBgEFBQcDAjAP
BgNVHREECDAGhwR/AAABMA0GCSqGSIb3DQEBCwUAA4IBAQCS+f3BAlW5YazFFYdM
JNultJszqyQ+TD0o9PEsUGTKii9536/n2MuOmMnT876zQOwoR2a+b3W46z8HGJcs
oX1lO0/YyUu6IcKvz5CqaqHncD7AVG4ibBHOVfLXnWq7TUCMJAUEBcA1xCi3C9bJ
OaEba4qq2oePzr4YrAQbMVI5qwPPQQe1ZOLlW3ZSICqeTRfEtmQJDmRm+dMjdCz+
wXkV4MBZoe5x9wqOOlxGwBggoDP/AjdGYahqUaylOaHPSWF2a9+paGPp0hq7Q2DU
mWUakQQDQkPbKyjcyK8DtHFayRel/8nMBMdBf7Ol1XI9d0XzV6AdJE+KJEKlnUny
GMys
-----END CERTIFICATE-----
