Certificate:
    Data:
        Version: 3 (0x2)
        Serial Number: 32 (0x20)
    Signature Algorithm: sha256WithRSAEncryption
        Issuer: C=US, ST=California, L=Mountain View, O=Test CA, CN=Test Root CA
        Validity
            Not Before: Jul  1 00:00:00 2019 GMT
            Not After : Dec 17 00:00:00 2021 GMT
        Subject: C=US, ST=California, L=Mountain View, O=Test CA, CN=127.0.0.1
        Subject Public Key Info:
            Public Key Algorithm: rsaEncryption
                Public-Key: (2048 bit)
                Modulus:
                    00:d2:76:d1:5f:28:08:6d:97:b7:6c:31:e1:7f:dd:
                    ff:c9:46:ac:c5:39:26:20:35:6d:50:58:4f:36:1f:
                    e9:c4:04:03:c3:80:d4:c0:a4:7d:8a:77:a9:72:76:
                    66:31:cb:24:5b:ed:cc:e5:b4:25:ec:7d:8c:74:58:
                    82:d4:0b:af:09:d6:01:6c:45:d3:d3:3f:d7:c8:87:
                    f7:91:21:0b:59:fe:40:50:ba:a2:b7:c3:a5:2b:35:
                    36:78:e8:b1:73:fe:f4:a3:b6:cc:b0:30:6f:01:cd:
                    4a:5c:d4:93:2b:a3:37:c5:c5:55:2c:92:8f:da:5d:
                    5b:6e:dc:e0:73:17:35:d6:f5:1c:29:3d:f8:1d:37:
                    98:41:65:9f:b1:f2:54:ec:39:35:95:3b:14:fd:60:
                    8e:63:0d:6d:3f:63:b7:18:8b:90:73:43:d4:0d:05:
                    d9:81:c8:5d:09:cc:43:a0:a7:fd:05:5f:fb:f2:b7:
                    bc:24:54:46:64:01:86:33:ca:45:7a:b0:70:1f:3e:
                    04:ad:33:38:74:44:2a:40:f2:e0:6a:e2:de:ed:c1:
                    20:3e:af:46:6b:c9:25:a5:15:54:56:7a:3a:7c:8f:
                    27:21:4f:d2:b6:5a:1f:21:8e:75:62:8b:40:58:f9:
                    54:8d:8e:20:1f:5f:9b:6e:65:44:b4:c3:a6:83:8b:
                    6d:d5
                Exponent: 65537 (0x10001)
        X509v3 extensions:
            X509v3 Basic Constraints: critical
                CA:FALSE
            X509v3 Subject Key Identifier: 
                D2:C1:43:17:52:15:0E:E2:4C:0C:BA:1B:EB:F5:E6:EF:F5:09:B0:EC
            X509v3 Authority Key Identifier: 
                keyid:9B:26:0B:8A:98:A9:BB:1D:B9:1F:1C:E3:1A:40:33:ED:8E:17:88:AB

            X509v3 Extended Key Usage: 
                TLS Web Server Authentication, TLS Web Client Authentication
            X509v3 Subject Alternative Name: 
                IP Address:127.0.0.1
    Signature Algorithm: sha256WithRSAEncryption
         bf:d2:85:20:48:0c:a9:b5:6c:76:13:d1:ef:56:6f:0d:42:cd:
         ae:97:26:7a:99:f3:d4:72:66:5e:db:ae:28:94:2f:9b:86:d5:
         94:00:5e:aa:c5:f6:f6:40:1b:99:1b:0f:5d:7e:74:95:2e:ef:
         b8:bf:df:80:6c:b3:97:f2:e7:c8:4a:da:12:73:f4:ab:ea:a0:
         74:63:57:e0:9f:5f:1e:7e:f3:c7:de:e7:4c:69:54:92:d9:67:
         a9:79:8b:c9:b9:ce:23:96:d2:25:85:4a:32:06:ca:6b:db:bb:
         02:12:34:02:f2:85:a8:40:81:f5:42:d3:d3:8c:fa:af:ce:29:
         6a:cd:cf:46:df:88:d6:d4:69:77:19:62:c2:09:b3:a8:00:32:
         db:a8:9e:66:c3:5e:56:79:8c:76:50:c4:e8:48:60:48:93:a8:
         af:5c:32:d4:e0:e7:91:1f:12:25:9b:a5:67:0e:4a:bf:eb:84:
         be:ba:f7:0b:ac:09:60:1b:fe:92:2b:98:1e:23:24:9c:97:fd:
         5e:ee:5a:2f:c2:80:cc:f6:55:31:77:b2:c4:5d:ff:f2:c7:cd:
         d8:a8:bb:ee:76:70:7f:04:63:24:df:9f:99:b1:35:79:9e:52:
         17:73:83:95:55:6e:bb:56:4b:76:c4:d0:b2:03:bf:8c:e7:7d:
         40:26:9e:3b
-----BEGIN CERTIFICATE-----
MIIDvzCCAqegAwIBAgIBIDANBgkqhkiG9w0BAQsFADBjMQswCQYDVQQGEwJVUzET
MBEGA1UECAwKQ2FsaWZvcm5pYTEWMBQGA1UEBwwNTW91bnRhaW4gVmlldzEQMA4G
A1UECgwHVGVzdCBDQTEVMBMGA1UEAwwMVGVzdCBSb290IENBMB4XDTE5MDcwMTAw
MDAwMFoXDTIxMTIxNzAwMDAwMFowYDELMAkGA1UEBhMCVVMxEzARBgNVBAgMCkNh
bGlmb3JuaWExFjAUBgNVBAcMDU1vdW50YWluIFZpZXcxEDAOBgNVBAoMB1Rlc3Qg
Q0ExEjAQBgNVBAMMCTEyNy4wLjAuMTCCASIwDQYJKoZIhvcNAQEBBQADggEPADCC
AQoCggEBANJ20V8oCG2Xt2wx4X/d/8lGrMU5JiA1bVBYTzYf6cQEA8OA1MCkfYp3
qXJ2ZjHLJFvtzOW0Jex9jHRYgtQLrwnWAWxF09M/18iH95EhC1n+QFC6orfDpSs1
NnjosXP+9KO2zLAwbwHNSlzUkyujN8XFVSySj9pdW27c4HMXNdb1HCk9+B03mEFl
n7HyVOw5NZU7FP1gjmMNbT9jtxiLkHND1A0F2YHIXQnMQ6Cn/QVf+/K3vCRURmQB
hjPKRXqwcB8+BK0zOHREKkDy4Gri3u3BID6vRmvJJaUVVFZ6OnyPJyFP0rZaHyGO
dWKLQFj5VI2OIB9fm25lRLTDpoOLbdUCAwEAAaOBgDB+MAwGA1UdEwEB/wQCMAAw
HQYDVR0OBBYEFNLBQxdSFQ7iTAy6G+v15u/1CbDsMB8GA1UdIwQYMBaAFJsmC4qY
qbsduR8c4xpAM+2OF4irMB0GA1UdJQQWMBQGCCsGAQUFBwMBBggrBgEFBQcDAjAP
BgNVHREECDAGhwR/AAABMA0GCSqGSIb3DQEBCwUAA4IBAQC/0oUgSAyptWx2E9Hv
Vm8NQs2ulyZ6mfPUcmZe264olC+bhtWUAF6qxfb2QBuZGw9dfnSVLu+4v9+AbLOX
8ufIStoSc/Sr6qB0Y1fgn18efvPH3udMaVSS2WepeYvJuc4jltIlhUoyBspr27sC
EjQC8oWoQIH1QtPTjPqvzilqzc9G34jW1Gl3GWLCCbOoADLbqJ5mw15WeYx2UMTo
SGBIk6ivXDLU4OeRHxIlm6VnDkq/64S+uvcLrAlgG/6SK5geIyScl/1e7lovwoDM
9lUxd7LEXf/yx83YqLvudnB/BGMk35+ZsTV5nlIXc4OVVW67Vkt2xNCyA7+M531A
Jp47
-----END CERTIFICATE-----
