Certificate:
    Data:
        Version: 3 (0x2)
        Serial Number: 9897276640789498169 (0x895a30aab2078939)
    Signature Algorithm: sha256WithRSAEncryption
        Issuer: CN=AIA Test Root CA
        Validity
            Not Before: Feb 28 23:02:39 2017 GMT
            Not After : Feb 26 23:02:39 2027 GMT
        Subject: CN=AIA Test Root CA
        Subject Public Key Info:
            Public Key Algorithm: rsaEncryption
                Public-Key: (2048 bit)
                Modulus:
                    00:99:a5:b7:7f:fe:7e:6c:e5:24:55:70:90:45:42:
                    fc:a8:e6:af:93:f7:9d:a8:ed:a1:fd:92:21:ec:4d:
                    be:db:08:9a:65:2a:c8:3e:5d:ec:bc:c9:47:af:43:
                    f7:20:b1:4f:ee:51:58:23:c2:82:88:85:68:a3:d0:
                    f2:77:68:ea:c7:64:b1:79:40:07:ac:69:2e:bd:9e:
                    6d:1d:ec:52:89:df:2e:20:59:e5:af:07:da:8f:8c:
                    74:d5:84:88:9b:e9:c1:63:68:34:50:85:22:e6:0d:
                    39:60:83:c8:4d:fd:39:b2:fd:d3:57:68:dc:18:ae:
                    b1:b7:51:4a:e6:02:9b:56:16:21:0e:a4:06:17:c9:
                    91:ee:c1:34:ea:36:1e:b0:e9:d4:e5:02:48:29:dd:
                    e2:6e:c7:5f:28:ef:3a:67:32:04:9e:9e:91:d2:15:
                    7e:e9:3a:4c:5d:52:9c:72:09:59:a0:b3:36:8c:6a:
                    c1:86:81:3b:e8:54:f4:35:77:f6:31:b6:6a:ca:60:
                    fb:5b:34:38:a4:ca:6e:f2:a2:6f:e6:96:83:08:6b:
                    bf:d5:37:e8:f7:db:60:06:eb:7a:76:cb:00:e8:de:
                    2a:c0:ad:36:dc:7d:b7:63:f7:e7:b0:b4:a2:2a:7b:
                    3f:03:d0:70:30:92:f3:f7:00:ca:d2:53:30:b8:a4:
                    b7:73
                Exponent: 65537 (0x10001)
        X509v3 extensions:
            X509v3 Basic Constraints: critical
                CA:TRUE
            X509v3 Key Usage: critical
                Certificate Sign, CRL Sign
    Signature Algorithm: sha256WithRSAEncryption
         0d:c5:f4:18:aa:e4:08:e9:9a:d5:99:6c:ab:e3:6c:3a:f7:22:
         86:67:48:52:91:4b:55:18:e4:ce:c4:bb:2c:43:fe:67:d1:31:
         ea:3e:29:00:ed:f7:ea:1a:5b:9c:9d:9c:fe:98:ac:9a:22:e2:
         e2:af:86:90:3c:d0:f0:fa:e4:9d:1e:6f:a1:ad:18:4e:59:bf:
         fb:d3:00:f7:aa:51:31:cb:b5:8e:79:fc:09:74:6c:aa:04:02:
         d8:ed:69:22:62:b7:c8:ea:45:64:55:30:71:c2:fe:bd:02:c1:
         a0:f6:40:aa:f8:ad:cf:d2:02:88:f1:69:fe:65:90:a9:5d:82:
         8c:57:4c:f1:91:84:9e:c5:0f:5e:90:0d:4e:f1:0d:cf:b4:d4:
         42:b4:68:78:29:2d:f2:da:5a:0d:7a:1d:16:97:68:54:1c:de:
         30:04:a2:7a:a4:b7:b6:27:1f:98:94:bf:d6:82:16:fd:75:b2:
         d5:2c:45:71:75:38:01:4e:8b:92:bb:70:b1:e1:10:37:b8:e0:
         4d:64:a5:2c:29:9a:57:d9:df:14:95:64:58:a9:87:4e:7c:3f:
         49:cc:f2:b9:6c:d0:76:fc:1b:2e:83:d9:43:40:87:fd:0f:d5:
         26:04:fa:a9:cd:a7:07:ac:e2:d3:bc:2a:75:4e:c3:e9:2a:f1:
         21:b2:62:d6
-----BEGIN CERTIFICATE-----
MIIC3DCCAcSgAwIBAgIJAIlaMKqyB4k5MA0GCSqGSIb3DQEBCwUAMBsxGTAXBgNV
BAMMEEFJQSBUZXN0IFJvb3QgQ0EwHhcNMTcwMjI4MjMwMjM5WhcNMjcwMjI2MjMw
MjM5WjAbMRkwFwYDVQQDDBBBSUEgVGVzdCBSb290IENBMIIBIjANBgkqhkiG9w0B
AQEFAAOCAQ8AMIIBCgKCAQEAmaW3f/5+bOUkVXCQRUL8qOavk/edqO2h/ZIh7E2+
2wiaZSrIPl3svMlHr0P3ILFP7lFYI8KCiIVoo9Dyd2jqx2SxeUAHrGkuvZ5tHexS
id8uIFnlrwfaj4x01YSIm+nBY2g0UIUi5g05YIPITf05sv3TV2jcGK6xt1FK5gKb
VhYhDqQGF8mR7sE06jYesOnU5QJIKd3ibsdfKO86ZzIEnp6R0hV+6TpMXVKccglZ
oLM2jGrBhoE76FT0NXf2MbZqymD7WzQ4pMpu8qJv5paDCGu/1Tfo99tgBut6dssA
6N4qwK023H23Y/fnsLSiKns/A9BwMJLz9wDK0lMwuKS3cwIDAQABoyMwITAPBgNV
HRMBAf8EBTADAQH/MA4GA1UdDwEB/wQEAwIBBjANBgkqhkiG9w0BAQsFAAOCAQEA
DcX0GKrkCOma1Zlsq+NsOvcihmdIUpFLVRjkzsS7LEP+Z9Ex6j4pAO336hpbnJ2c
/pismiLi4q+GkDzQ8PrknR5voa0YTlm/+9MA96pRMcu1jnn8CXRsqgQC2O1pImK3
yOpFZFUwccL+vQLBoPZAqvitz9ICiPFp/mWQqV2CjFdM8ZGEnsUPXpANTvENz7TU
QrRoeCkt8tpaDXodFpdoVBzeMASieqS3ticfmJS/1oIW/XWy1SxFcXU4AU6Lkrtw
seEQN7jgTWSlLCmaV9nfFJVkWKmHTnw/SczyuWzQdvwbLoPZQ0CH/Q/VJgT6qc2n
B6zi07wqdU7D6SrxIbJi1g==
-----END CERTIFICATE-----
