Certificate:
    Data:
        Version: 3 (0x2)
        Serial Number: 1 (0x1)
    Signature Algorithm: sha256WithRSAEncryption
        Issuer: CN=AIA Test Intermediate CA
        Validity
            Not Before: Feb 28 23:02:39 2017 GMT
            Not After : Feb 26 23:02:39 2027 GMT
        Subject: CN=aia-host.invalid
        Subject Public Key Info:
            Public Key Algorithm: rsaEncryption
                Public-Key: (2048 bit)
                Modulus:
                    00:e2:a9:b9:44:17:83:cf:57:d4:22:86:54:52:d3:
                    42:7d:03:84:9a:f9:3f:05:16:73:ad:4e:55:d1:d0:
                    ad:f3:cf:fd:1a:80:38:73:50:b7:fa:13:c8:c6:69:
                    38:4c:9c:4a:fb:c6:a0:a2:44:f3:7e:66:76:ec:dd:
                    ef:e9:5d:2a:16:8b:b5:65:e3:78:e7:b7:e5:d1:88:
                    c8:d8:e0:3a:8f:1c:bb:8c:b3:8d:8e:52:9f:bc:15:
                    9f:92:12:8e:d5:56:84:dc:c1:f8:b8:58:d5:e9:be:
                    72:2b:ad:aa:d4:63:b6:69:da:e0:4d:58:af:8a:3a:
                    f7:85:2f:62:2b:24:c2:49:6f:1c:65:55:8c:92:bb:
                    c1:23:47:38:9d:51:17:14:92:86:b7:9e:d0:07:1b:
                    14:38:36:2c:ca:e6:77:b8:03:ec:53:04:44:29:d5:
                    ae:91:41:52:48:5d:90:50:b0:63:32:97:f5:62:1a:
                    08:11:96:2a:b4:97:66:1b:b4:56:b5:7e:c2:a9:5b:
                    89:d8:fe:de:44:7c:ff:61:6e:f3:02:9f:88:30:eb:
                    4b:80:14:48:84:33:ff:e4:28:c0:e3:5a:6a:55:dd:
                    48:75:b2:61:e6:e9:f5:3d:3a:55:45:b4:93:4e:e0:
                    03:c9:a1:de:8c:eb:30:8a:d3:8f:e7:1f:4a:a9:72:
                    c2:bf
                Exponent: 65537 (0x10001)
        X509v3 extensions:
            X509v3 Basic Constraints: critical
                CA:FALSE
            X509v3 Extended Key Usage: 
                TLS Web Server Authentication, TLS Web Client Authentication
            Authority Information Access: 
                CA Issuers - URI:http://aia-test.invalid

            X509v3 Subject Alternative Name: 
                DNS:aia-host.invalid
    Signature Algorithm: sha256WithRSAEncryption
         a1:98:0f:e0:29:2f:bb:f4:5e:56:15:a1:c6:2f:4a:26:1a:31:
         b2:8e:85:31:aa:7f:96:db:bc:24:d1:10:88:fd:e1:fa:c0:5b:
         e2:f3:44:0e:4c:ba:d4:46:3d:52:de:39:c2:4c:2e:bf:7c:f9:
         37:27:99:1b:b9:6b:13:fc:51:df:a0:51:9f:26:c2:4a:03:cd:
         f0:d9:5c:b8:1e:6e:f2:2c:52:d4:b0:a2:09:c4:c4:9d:b8:be:
         a3:98:bf:38:b3:9d:78:f3:14:87:71:18:eb:f1:85:f3:37:7d:
         f8:63:90:24:81:02:ec:04:33:ff:db:2e:f7:33:36:8c:37:ba:
         89:94:4e:3a:12:0d:29:9f:ab:34:5f:28:0a:de:f5:cb:6e:f1:
         ca:f2:e7:43:ea:e7:74:18:3c:e5:b1:12:a5:d8:db:66:64:21:
         19:ac:bf:c1:cb:6b:a4:4a:2c:f0:11:de:a3:4c:1e:7b:82:f1:
         28:44:b4:f7:44:06:69:de:cc:bd:88:ef:04:1d:27:57:5e:e4:
         2f:ba:51:e8:43:50:f1:50:18:9b:7c:84:0e:cd:ac:f3:63:d5:
         f0:68:39:3b:04:a5:7e:e4:51:17:95:24:7c:b9:31:50:ec:ed:
         99:ef:a8:9a:02:36:b1:10:46:ea:0b:e1:d2:75:e7:93:7d:a5:
         07:b1:47:93
-----BEGIN CERTIFICATE-----
MIIDOzCCAiOgAwIBAgIBATANBgkqhkiG9w0BAQsFADAjMSEwHwYDVQQDDBhBSUEg
VGVzdCBJbnRlcm1lZGlhdGUgQ0EwHhcNMTcwMjI4MjMwMjM5WhcNMjcwMjI2MjMw
MjM5WjAbMRkwFwYDVQQDDBBhaWEtaG9zdC5pbnZhbGlkMIIBIjANBgkqhkiG9w0B
AQEFAAOCAQ8AMIIBCgKCAQEA4qm5RBeDz1fUIoZUUtNCfQOEmvk/BRZzrU5V0dCt
88/9GoA4c1C3+hPIxmk4TJxK+8agokTzfmZ27N3v6V0qFou1ZeN457fl0YjI2OA6
jxy7jLONjlKfvBWfkhKO1VaE3MH4uFjV6b5yK62q1GO2adrgTVivijr3hS9iKyTC
SW8cZVWMkrvBI0c4nVEXFJKGt57QBxsUODYsyuZ3uAPsUwREKdWukUFSSF2QULBj
Mpf1YhoIEZYqtJdmG7RWtX7CqVuJ2P7eRHz/YW7zAp+IMOtLgBRIhDP/5CjA41pq
Vd1IdbJh5un1PTpVRbSTTuADyaHejOswitOP5x9KqXLCvwIDAQABo4GBMH8wDAYD
VR0TAQH/BAIwADAdBgNVHSUEFjAUBggrBgEFBQcDAQYIKwYBBQUHAwIwMwYIKwYB
BQUHAQEEJzAlMCMGCCsGAQUFBzAChhdodHRwOi8vYWlhLXRlc3QuaW52YWxpZDAb
BgNVHREEFDASghBhaWEtaG9zdC5pbnZhbGlkMA0GCSqGSIb3DQEBCwUAA4IBAQCh
mA/gKS+79F5WFaHGL0omGjGyjoUxqn+W27wk0RCI/eH6wFvi80QOTLrURj1S3jnC
TC6/fPk3J5kbuWsT/FHfoFGfJsJKA83w2Vy4Hm7yLFLUsKIJxMSduL6jmL84s514
8xSHcRjr8YXzN334Y5AkgQLsBDP/2y73MzaMN7qJlE46Eg0pn6s0XygK3vXLbvHK
8udD6ud0GDzlsRKl2NtmZCEZrL/By2ukSizwEd6jTB57gvEoRLT3RAZp3sy9iO8E
HSdXXuQvulHoQ1DxUBibfIQOzazzY9XwaDk7BKV+5FEXlSR8uTFQ7O2Z76iaAjax
EEbqC+HSdeeTfaUHsUeT
-----END CERTIFICATE-----
