-----BEGIN PRIVATE KEY-----
MIIEvQIBADANBgkqhkiG9w0BAQEFAASCBKcwggSjAgEAAoIBAQC0v9KXM+UTW3dl
vXMadSibR1nmtzDoRjNtWFvaHwr/5OQt8h34iehkLvbDzdejjtf3zefYDhDD51bS
/OXm007i/4JNGGOHsKPe2u8KN3ustbdDzvIHOd8U6cOkQT5+aEc0m3thxBjmE86z
tKbgugPu5OvnqvRtvpdbqgaXUAHQeLjWkrDk4rlDiLWuFGR9UnDUBRwJJdXiT8mo
gttBMcO+RG8L1P2/we7ZYr87j7UAyNHfXUoTrXHkS1/R2XJMg9iTQL9szS9mDgTW
uUMoJMkl/Vlw/j3yqQpOwpvE3p5XXl0WJeZ4tkRJKZ32v3T7hdYN8WVY8ivWjxBJ
yAAtiOItAgMBAAECggEAXuyGumXEnl/g2oueEX0J8FKOgj4e7z0+8OQAiRLYgf9B
XmfTGZ3DcCnB6p8F6p2wCjIW2j64y0mJLZEnZAwBV/F8CuUOEErSJM2x0BnHV7Kv
JmtebDEWWTNTTcX9/gDhtF0bdQK5WMt6OKJdKZRHUITk52u+pov7jWZDw99+tG5w
InCv1RekWbAGZWLs9hyzpOpvp0tGM2O9+XCWQh/LLeLb5rJkTcH8NKv9Xh+tLeSU
i/FER+rQHsMVA4uHdBmRgPsBnPrJopcKWQImRXDGidEd5AUWLIECQdnZI8pbtmjV
0HZj+UuUlDFdALmCHX+NxR4Z+hyi+E96ZWw/J9FHwQKBgQDYX0e873Sf4tDOn0cZ
Olof3cXPri8ezKoeAD8tfY0bxLIoOwDUtJXZeGEZD3sduDJDCdvS1M/eeW04ePlx
kTmcDecaYm4t3KYzbPauudbMQEQFvsoivp8ct/synPcRtGPTHg+GUHaqWT1d4DjT
WClxx67ugD/YQYs5UY/uLjm4tQKBgQDV2lh1Uk3xBj15FZrzg/7GM7bK3L/Xcxzz
VewAksKuVEyoqHfZAo6P/xOiQkwc9kBoet43MiNyph/kYssQowE+Pg+WffB1Ve4F
kVsq6z1mwAfnYD6m4GHxfrV6VxwM3ItiX+PiKQ4YWsbyjc/vC4ZRSarLwbk8Woya
lNucr2hGmQKBgF5sdioFdaewm98Psz9XL61oYsLXCMkwF60v/mIjwEi19emIljw8
8ogM+JKvJtM5ZvXKf5vqMyyrYPacFH9zGOj5SDlDa0GoYP9gNebaQtqv0P+Q2zV+
aoFl6MGVrlyTlFy1aaD7zE1a1GT7TNEuUCfPNI/wd+wv7kn9RgpzMc1hAoGBAJrh
5Zkq/+olc9ZDcJMXsSkJgUURdhvrcjdGroOHx1oNEexA/3P7ZxchTa4ByDBdpS5G
drSRKp05dfWqG5o0BI140z9SfRnuH1KHAPlnoHPPdqn7ycSA1E7cT0GI33btMEIS
YvCEfYHkFRzM2qEtvp0W9o1WA/uTNSwrzZaAb8xZAoGAZZLwniPa8zkd+4WAPSN6
LVj+1dGasfL/zftFhVxu0/KCpdggghG26Ej0ieG71k8Xg9tpZDJvo9Kj0s8Hu4Zu
TnhwwRVyUHls+Gl0t8XXV/ryRLHB8zY45k6A+Yvc/iOYQVmY2rE4kB4PDsrJ+d5P
wA1o1OPvcx28oBjHViWoWJQ=
-----END PRIVATE KEY-----
Certificate:
    Data:
        Version: 3 (0x2)
        Serial Number: 8 (0x8)
    Signature Algorithm: sha256WithRSAEncryption
        Issuer: C=US, ST=California, L=Mountain View, O=Test CA, CN=Test Root CA
        Validity
            Not Before: Jan  1 00:00:00 1 GMT
            Not After : Jan  1 00:00:00 1 GMT
        Subject: CN=Leaf Certificate
        Subject Public Key Info:
            Public Key Algorithm: rsaEncryption
                Public-Key: (2048 bit)
                Modulus:
                    00:b4:bf:d2:97:33:e5:13:5b:77:65:bd:73:1a:75:
                    28:9b:47:59:e6:b7:30:e8:46:33:6d:58:5b:da:1f:
                    0a:ff:e4:e4:2d:f2:1d:f8:89:e8:64:2e:f6:c3:cd:
                    d7:a3:8e:d7:f7:cd:e7:d8:0e:10:c3:e7:56:d2:fc:
                    e5:e6:d3:4e:e2:ff:82:4d:18:63:87:b0:a3:de:da:
                    ef:0a:37:7b:ac:b5:b7:43:ce:f2:07:39:df:14:e9:
                    c3:a4:41:3e:7e:68:47:34:9b:7b:61:c4:18:e6:13:
                    ce:b3:b4:a6:e0:ba:03:ee:e4:eb:e7:aa:f4:6d:be:
                    97:5b:aa:06:97:50:01:d0:78:b8:d6:92:b0:e4:e2:
                    b9:43:88:b5:ae:14:64:7d:52:70:d4:05:1c:09:25:
                    d5:e2:4f:c9:a8:82:db:41:31:c3:be:44:6f:0b:d4:
                    fd:bf:c1:ee:d9:62:bf:3b:8f:b5:00:c8:d1:df:5d:
                    4a:13:ad:71:e4:4b:5f:d1:d9:72:4c:83:d8:93:40:
                    bf:6c:cd:2f:66:0e:04:d6:b9:43:28:24:c9:25:fd:
                    59:70:fe:3d:f2:a9:0a:4e:c2:9b:c4:de:9e:57:5e:
                    5d:16:25:e6:78:b6:44:49:29:9d:f6:bf:74:fb:85:
                    d6:0d:f1:65:58:f2:2b:d6:8f:10:49:c8:00:2d:88:
                    e2:2d
                Exponent: 65537 (0x10001)
        X509v3 extensions:
            X509v3 Basic Constraints: critical
                CA:FALSE
            X509v3 Subject Key Identifier: 
                E0:DC:E0:2F:07:88:74:3A:9F:D3:30:A3:71:8A:F9:D6:A5:E5:A6:53
            X509v3 Authority Key Identifier: 
                keyid:9B:26:0B:8A:98:A9:BB:1D:B9:1F:1C:E3:1A:40:33:ED:8E:17:88:AB

            X509v3 Extended Key Usage: 
                TLS Web Server Authentication, TLS Web Client Authentication
            X509v3 Subject Alternative Name: 
                IP Address:127.0.0.1
    Signature Algorithm: sha256WithRSAEncryption
         86:50:e0:4c:98:8e:43:69:c2:2f:f5:2e:2e:64:30:28:0f:49:
         48:d1:9a:61:bc:49:01:f8:84:0a:04:91:d4:04:ee:9d:02:fd:
         00:2b:6d:57:d5:23:c7:62:eb:e2:96:15:90:bb:1d:3a:8f:98:
         32:1b:0f:04:d1:e8:ce:e6:4f:a3:2b:3a:41:9c:04:15:b2:30:
         3d:ef:f9:d1:8f:73:f2:f6:f9:0b:2e:8a:05:ce:ec:8f:1d:f1:
         84:c0:ba:a3:ef:c3:1a:83:fb:19:1e:03:fd:46:3b:97:28:55:
         af:0a:e9:3f:36:90:a0:8a:a6:13:ff:d1:10:ac:d1:7e:79:54:
         ae:fe:74:b9:7c:3f:8c:b4:e1:3c:5d:0b:18:92:69:00:04:0a:
         be:0a:c9:bd:57:ec:9b:c3:8d:d9:07:fd:97:5b:04:e9:b1:29:
         d9:82:8e:f6:fe:ce:76:2c:b3:d4:3b:f3:06:6d:30:a6:b5:1d:
         4b:f0:8c:57:07:1d:0e:23:6e:e4:50:fb:ef:74:d7:78:ff:be:
         31:97:66:ce:9f:a8:98:48:21:97:56:29:d5:c2:6e:66:6f:9e:
         f3:ad:cc:92:f0:ad:fb:0b:e7:90:42:f3:27:13:69:35:71:bb:
         ee:9d:fd:dc:ee:3b:62:c4:2a:98:ca:15:6f:15:d9:f9:0f:82:
         eb:fe:80:03
-----BEGIN CERTIFICATE-----
MIIDfjCCAmagAwIBAgIBCDANBgkqhkiG9w0BAQsFADBjMQswCQYDVQQGEwJVUzET
MBEGA1UECAwKQ2FsaWZvcm5pYTEWMBQGA1UEBwwNTW91bnRhaW4gVmlldzEQMA4G
A1UECgwHVGVzdCBDQTEVMBMGA1UEAwwMVGVzdCBSb290IENBMCIYDzAwMDEwMTAx
MDAwMDAwWhgPMDAwMTAxMDEwMDAwMDBaMBsxGTAXBgNVBAMTEExlYWYgQ2VydGlm
aWNhdGUwggEiMA0GCSqGSIb3DQEBAQUAA4IBDwAwggEKAoIBAQC0v9KXM+UTW3dl
vXMadSibR1nmtzDoRjNtWFvaHwr/5OQt8h34iehkLvbDzdejjtf3zefYDhDD51bS
/OXm007i/4JNGGOHsKPe2u8KN3ustbdDzvIHOd8U6cOkQT5+aEc0m3thxBjmE86z
tKbgugPu5OvnqvRtvpdbqgaXUAHQeLjWkrDk4rlDiLWuFGR9UnDUBRwJJdXiT8mo
gttBMcO+RG8L1P2/we7ZYr87j7UAyNHfXUoTrXHkS1/R2XJMg9iTQL9szS9mDgTW
uUMoJMkl/Vlw/j3yqQpOwpvE3p5XXl0WJeZ4tkRJKZ32v3T7hdYN8WVY8ivWjxBJ
yAAtiOItAgMBAAGjgYAwfjAMBgNVHRMBAf8EAjAAMB0GA1UdDgQWBBTg3OAvB4h0
Op/TMKNxivnWpeWmUzAfBgNVHSMEGDAWgBSbJguKmKm7HbkfHOMaQDPtjheIqzAd
BgNVHSUEFjAUBggrBgEFBQcDAQYIKwYBBQUHAwIwDwYDVR0RBAgwBocEfwAAATAN
BgkqhkiG9w0BAQsFAAOCAQEAhlDgTJiOQ2nCL/UuLmQwKA9JSNGaYbxJAfiECgSR
1ATunQL9ACttV9Ujx2Lr4pYVkLsdOo+YMhsPBNHozuZPoys6QZwEFbIwPe/50Y9z
8vb5Cy6KBc7sjx3xhMC6o+/DGoP7GR4D/UY7lyhVrwrpPzaQoIqmE//REKzRfnlU
rv50uXw/jLThPF0LGJJpAAQKvgrJvVfsm8ON2Qf9l1sE6bEp2YKO9v7Odiyz1Dvz
Bm0wprUdS/CMVwcdDiNu5FD773TXeP++MZdmzp+omEghl1Yp1cJuZm+e863MkvCt
+wvnkELzJxNpNXG77p393O47YsQqmMoVbxXZ+Q+C6/6AAw==
-----END CERTIFICATE-----
