Certificate:
    Data:
        Version: 3 (0x2)
        Serial Number: 4099 (0x1003)
    Signature Algorithm: sha256WithRSAEncryption
        Issuer: CN=E CA
        Validity
            Not Before: Dec  9 20:18:57 2016 GMT
            Not After : Dec  7 20:18:57 2026 GMT
        Subject: CN=Client Cert F
        Subject Public Key Info:
            Public Key Algorithm: rsaEncryption
                Public-Key: (2048 bit)
                Modulus:
                    00:b3:5c:32:bb:c0:48:28:37:9b:45:ab:78:a0:ea:
                    72:13:26:5d:46:ee:71:c4:24:9c:ed:a8:b6:81:35:
                    d7:72:ba:0a:ae:a9:4e:20:61:12:22:e0:00:67:80:
                    70:be:ac:ef:03:b2:d4:b0:3a:fc:c5:ab:85:7b:04:
                    4b:61:85:7a:17:6c:43:36:67:0b:19:7c:74:b8:65:
                    e9:1c:fd:f0:df:42:bc:0c:fd:09:7e:4f:7d:38:c0:
                    52:71:e5:2b:19:80:82:aa:69:c2:36:6b:b7:2d:07:
                    f4:74:62:bf:8e:90:ed:47:1a:64:24:ac:4c:b8:d2:
                    2a:d0:9d:86:08:c1:18:9e:3e:de:4f:12:5c:64:a4:
                    2b:86:43:12:81:67:0c:8c:56:e4:16:46:3c:29:cf:
                    4e:18:ea:4f:66:5f:b4:d6:73:5f:1e:93:ad:df:c9:
                    06:65:cc:dc:42:ba:e9:86:42:08:a1:ab:a5:fc:22:
                    d3:23:57:a0:da:6c:80:de:c5:f9:9c:c5:11:65:9c:
                    b2:df:f3:d6:c8:bd:aa:af:40:66:ed:ce:5f:04:46:
                    17:e6:92:ea:64:c8:b3:e4:20:cb:e0:44:09:15:1f:
                    7c:e4:e0:07:cd:22:7c:bd:a0:06:65:35:d4:3e:1c:
                    07:61:8f:01:53:22:25:85:93:75:73:42:c7:c1:c0:
                    12:9f
                Exponent: 65537 (0x10001)
        X509v3 extensions:
            X509v3 Subject Alternative Name: 
                email:santest@example.com, othername:<unsupported>
    Signature Algorithm: sha256WithRSAEncryption
         98:4b:03:9b:ef:b9:8b:47:81:42:9c:5b:a0:49:54:2e:e1:95:
         51:87:9c:5c:83:b1:3c:ab:21:29:7e:e0:de:11:92:ad:75:5e:
         9d:e2:51:70:0e:95:e3:68:3f:2e:ad:69:50:31:57:6b:6d:7b:
         6c:d2:c5:4b:e5:a7:a1:20:ba:bf:1a:8e:86:47:94:72:35:34:
         07:5f:1a:cf:3f:13:ad:53:7f:6b:db:ef:d8:00:a2:5c:e9:5c:
         20:47:5a:9e:f6:91:c5:9b:05:69:f3:25:05:e2:8b:dd:d8:41:
         99:64:44:ed:74:e2:eb:f7:42:2c:b5:d0:f1:ac:64:c0:f4:87:
         e9:3e:51:52:41:a3:c2:4e:58:c2:ee:fe:b4:25:37:b9:3d:c2:
         f0:cf:c0:90:7f:f6:02:b2:38:88:92:2a:e0:d4:db:87:5c:b2:
         02:a6:60:b4:da:ab:53:d2:b2:7d:64:d5:d3:b6:35:66:96:f0:
         ec:fb:9c:8d:35:40:e1:4a:7e:52:98:1f:1b:a2:e3:e4:35:70:
         ec:33:ad:e8:a4:ed:a4:26:7d:07:a5:03:92:ac:11:81:4f:0f:
         b3:c7:97:7f:29:d8:09:d1:28:11:f6:8d:9a:e0:5f:26:b9:7f:
         74:77:e7:74:b1:5b:0f:7c:ae:13:d1:75:bc:ad:49:51:05:39:
         06:53:6d:5c
-----BEGIN CERTIFICATE-----
MIIC8jCCAdqgAwIBAgICEAMwDQYJKoZIhvcNAQELBQAwDzENMAsGA1UEAwwERSBD
QTAeFw0xNjEyMDkyMDE4NTdaFw0yNjEyMDcyMDE4NTdaMBgxFjAUBgNVBAMMDUNs
aWVudCBDZXJ0IEYwggEiMA0GCSqGSIb3DQEBAQUAA4IBDwAwggEKAoIBAQCzXDK7
wEgoN5tFq3ig6nITJl1G7nHEJJztqLaBNddyugquqU4gYRIi4ABngHC+rO8DstSw
OvzFq4V7BEthhXoXbEM2ZwsZfHS4Zekc/fDfQrwM/Ql+T304wFJx5SsZgIKqacI2
a7ctB/R0Yr+OkO1HGmQkrEy40irQnYYIwRiePt5PElxkpCuGQxKBZwyMVuQWRjwp
z04Y6k9mX7TWc18ek63fyQZlzNxCuumGQgihq6X8ItMjV6DabIDexfmcxRFlnLLf
89bIvaqvQGbtzl8ERhfmkupkyLPkIMvgRAkVH3zk4AfNIny9oAZlNdQ+HAdhjwFT
IiWFk3VzQsfBwBKfAgMBAAGjTzBNMEsGA1UdEQREMEKBE3NhbnRlc3RAZXhhbXBs
ZS5jb22gKwYKKwYBBAGCNxQCA6AdDBtzYW50ZXN0QGFkLmNvcnAuZXhhbXBsZS5j
b20wDQYJKoZIhvcNAQELBQADggEBAJhLA5vvuYtHgUKcW6BJVC7hlVGHnFyDsTyr
ISl+4N4Rkq11Xp3iUXAOleNoPy6taVAxV2tte2zSxUvlp6Egur8ajoZHlHI1NAdf
Gs8/E61Tf2vb79gAolzpXCBHWp72kcWbBWnzJQXii93YQZlkRO104uv3Qiy10PGs
ZMD0h+k+UVJBo8JOWMLu/rQlN7k9wvDPwJB/9gKyOIiSKuDU24dcsgKmYLTaq1PS
sn1k1dO2NWaW8Oz7nI01QOFKflKYHxui4+Q1cOwzreik7aQmfQelA5KsEYFPD7PH
l38p2AnRKBH2jZrgXya5f3R353SxWw98rhPRdbytSVEFOQZTbVw=
-----END CERTIFICATE-----
