Certificate:
    Data:
        Version: 3 (0x2)
        Serial Number: 4098 (0x1002)
    Signature Algorithm: sha256WithRSAEncryption
        Issuer: CN=E CA
        Validity
            Not Before: Dec  9 20:18:57 2016 GMT
            Not After : Dec  7 20:18:57 2026 GMT
        Subject: CN=Client Cert D
        Subject Public Key Info:
            Public Key Algorithm: rsaEncryption
                Public-Key: (2048 bit)
                Modulus:
                    00:e0:8c:c2:95:fc:66:82:49:64:24:7b:9a:07:82:
                    65:2c:84:7a:67:c7:a1:22:3a:09:f3:af:02:f1:80:
                    39:23:6d:cf:0f:11:c8:1b:a5:be:97:71:7d:f0:81:
                    40:68:ee:35:ab:85:54:fc:88:a6:05:13:08:46:21:
                    99:3a:41:e0:06:2f:cd:41:2d:67:bb:5d:48:40:ac:
                    65:d5:ac:e5:8e:cd:b3:bf:32:c2:57:d8:f6:db:40:
                    8d:c8:3a:af:b3:1b:f5:df:fd:ba:5b:ea:db:8e:c6:
                    7e:d1:57:48:37:e9:61:e9:16:3d:02:18:43:70:0e:
                    41:bc:de:af:8d:93:85:47:4d:b2:a4:88:a7:a1:23:
                    8a:9e:16:4e:30:b4:55:b2:8b:0f:b8:a4:b5:aa:56:
                    97:0a:b5:83:f1:9e:e7:d6:d0:f8:92:86:7a:fb:d6:
                    22:60:25:60:67:ba:4a:35:32:12:f2:44:7c:6f:73:
                    e3:a6:6f:bc:43:e1:55:47:e1:d9:5a:86:32:48:4d:
                    67:ff:0e:af:0e:62:b8:ed:35:14:23:6b:dd:04:7a:
                    67:29:b8:ac:ff:f0:e3:54:7a:ec:0d:0d:59:aa:ab:
                    f1:47:00:d2:14:bb:48:a0:cc:2e:33:23:b7:ad:6b:
                    aa:b1:ad:85:9e:f8:09:6e:f0:3d:5c:3e:0f:bf:71:
                    77:8f
                Exponent: 65537 (0x10001)
        X509v3 extensions:
            X509v3 Basic Constraints: critical
                CA:FALSE
            X509v3 Extended Key Usage: 
                TLS Web Server Authentication, TLS Web Client Authentication
    Signature Algorithm: sha256WithRSAEncryption
         95:de:33:2f:e2:11:c2:6d:64:4a:5f:98:69:cb:a3:c6:bd:a1:
         0f:00:9c:32:c8:83:c7:05:14:21:e3:ab:fa:7a:f8:43:36:95:
         6c:85:8b:b5:ee:2c:fc:4b:77:95:8a:bf:2f:89:c1:cc:c2:21:
         99:40:c4:01:be:2a:4a:5b:d9:61:06:16:b0:5d:3f:27:ad:e3:
         57:5c:41:89:fb:3b:dc:73:45:ac:05:e2:dd:89:95:74:09:30:
         68:3c:3f:e8:bc:e6:94:4a:ed:4c:74:90:ad:a0:a4:97:c0:04:
         9b:13:81:a5:24:76:db:4c:49:8f:80:f9:7c:7f:8b:f9:de:45:
         65:5d:03:b2:c7:99:3b:56:b1:f8:29:7e:b4:69:fe:f9:29:b3:
         b6:59:bd:51:b1:02:97:5b:db:29:5e:9a:b5:1f:75:42:0f:7e:
         58:bc:e3:3f:39:ea:7b:12:c7:68:06:c0:e4:78:f4:e9:b4:9b:
         4c:fc:94:06:a3:1a:37:8b:3d:cd:67:f9:f4:e9:87:20:6c:07:
         71:62:85:78:35:96:9c:ef:98:59:33:50:83:7a:32:ad:22:01:
         3a:20:05:05:05:b0:62:9d:4e:20:94:1b:05:cc:7d:bb:ba:98:
         a0:51:d2:50:b5:cb:d8:97:0f:42:13:65:2a:14:b8:cd:f2:24:
         5f:0e:6e:6b
-----BEGIN CERTIFICATE-----
MIIC0jCCAbqgAwIBAgICEAIwDQYJKoZIhvcNAQELBQAwDzENMAsGA1UEAwwERSBD
QTAeFw0xNjEyMDkyMDE4NTdaFw0yNjEyMDcyMDE4NTdaMBgxFjAUBgNVBAMMDUNs
aWVudCBDZXJ0IEQwggEiMA0GCSqGSIb3DQEBAQUAA4IBDwAwggEKAoIBAQDgjMKV
/GaCSWQke5oHgmUshHpnx6EiOgnzrwLxgDkjbc8PEcgbpb6XcX3wgUBo7jWrhVT8
iKYFEwhGIZk6QeAGL81BLWe7XUhArGXVrOWOzbO/MsJX2PbbQI3IOq+zG/Xf/bpb
6tuOxn7RV0g36WHpFj0CGENwDkG83q+Nk4VHTbKkiKehI4qeFk4wtFWyiw+4pLWq
VpcKtYPxnufW0PiShnr71iJgJWBnuko1MhLyRHxvc+Omb7xD4VVH4dlahjJITWf/
Dq8OYrjtNRQja90EemcpuKz/8ONUeuwNDVmqq/FHANIUu0igzC4zI7eta6qxrYWe
+Alu8D1cPg+/cXePAgMBAAGjLzAtMAwGA1UdEwEB/wQCMAAwHQYDVR0lBBYwFAYI
KwYBBQUHAwEGCCsGAQUFBwMCMA0GCSqGSIb3DQEBCwUAA4IBAQCV3jMv4hHCbWRK
X5hpy6PGvaEPAJwyyIPHBRQh46v6evhDNpVshYu17iz8S3eVir8vicHMwiGZQMQB
vipKW9lhBhawXT8nreNXXEGJ+zvcc0WsBeLdiZV0CTBoPD/ovOaUSu1MdJCtoKSX
wASbE4GlJHbbTEmPgPl8f4v53kVlXQOyx5k7VrH4KX60af75KbO2Wb1RsQKXW9sp
Xpq1H3VCD35YvOM/Oep7EsdoBsDkePTptJtM/JQGoxo3iz3NZ/n06YcgbAdxYoV4
NZac75hZM1CDejKtIgE6IAUFBbBinU4glBsFzH27upigUdJQtcvYlw9CE2UqFLjN
8iRfDm5r
-----END CERTIFICATE-----
