Certificate:
    Data:
        Version: 3 (0x2)
        Serial Number: 4100 (0x1004)
    Signature Algorithm: sha256WithRSAEncryption
        Issuer: CN=E CA
        Validity
            Not Before: Dec  9 20:18:57 2016 GMT
            Not After : Dec  7 20:18:57 2026 GMT
        Subject: CN=Client Cert G
        Subject Public Key Info:
            Public Key Algorithm: id-ecPublicKey
                Public-Key: (256 bit)
                pub: 
                    04:89:c4:f7:d9:83:c4:39:9c:f8:f6:fc:bc:8b:66:
                    6e:70:ed:50:32:1d:62:e7:32:4c:06:62:8f:38:28:
                    33:63:59:7d:16:62:e1:bf:ad:6d:df:34:6d:c4:d6:
                    51:96:54:75:1c:58:80:38:83:88:55:c6:9d:86:b7:
                    c3:66:a1:79:67
                ASN1 OID: prime256v1
        X509v3 extensions:
            X509v3 Basic Constraints: critical
                CA:FALSE
            X509v3 Extended Key Usage: 
                TLS Web Server Authentication, TLS Web Client Authentication
    Signature Algorithm: sha256WithRSAEncryption
         43:3c:6f:e4:e7:89:a9:fe:f8:d0:d6:a0:13:94:1b:a1:98:22:
         26:0d:e1:3b:a1:91:41:f1:5e:88:38:cb:7d:f0:55:8c:c3:df:
         a3:99:31:71:0c:d0:1f:23:86:89:d7:ca:9f:f0:c6:bc:d2:b8:
         0b:4e:bc:bf:63:93:4e:c4:71:65:97:c0:f2:ea:35:34:9c:d5:
         b5:8e:15:2e:bb:0b:63:ab:f6:fd:5d:2d:22:f7:00:e6:5a:88:
         01:6f:f8:ef:8a:be:68:1d:95:b5:c9:b2:47:be:cd:98:bd:5a:
         ae:a2:b9:a3:53:bc:9e:87:de:40:a6:17:b5:7c:bd:4d:35:f5:
         29:72:22:a7:ee:2a:bc:4c:e2:b0:a6:98:47:1d:93:01:f8:53:
         ee:af:e3:3a:1f:a2:e0:36:eb:67:28:7a:39:b8:89:95:44:57:
         08:bb:20:8d:0b:27:36:15:ce:48:11:ae:32:07:ef:44:12:e5:
         97:2e:92:56:c4:d6:93:0f:41:25:38:e5:52:0e:c3:f3:cc:9d:
         de:b0:1d:4e:e3:51:79:63:0f:4c:58:ea:7c:e7:7a:ac:a8:f3:
         c4:45:16:34:77:ba:6b:a7:49:9c:aa:62:d1:dd:81:6b:55:08:
         38:39:11:23:a0:ec:50:ff:58:ca:22:d3:29:c8:2e:bc:35:62:
         9b:cd:56:fb
-----BEGIN CERTIFICATE-----
MIICBjCB76ADAgECAgIQBDANBgkqhkiG9w0BAQsFADAPMQ0wCwYDVQQDDARFIENB
MB4XDTE2MTIwOTIwMTg1N1oXDTI2MTIwNzIwMTg1N1owGDEWMBQGA1UEAwwNQ2xp
ZW50IENlcnQgRzBZMBMGByqGSM49AgEGCCqGSM49AwEHA0IABInE99mDxDmc+Pb8
vItmbnDtUDIdYucyTAZijzgoM2NZfRZi4b+tbd80bcTWUZZUdRxYgDiDiFXGnYa3
w2aheWejLzAtMAwGA1UdEwEB/wQCMAAwHQYDVR0lBBYwFAYIKwYBBQUHAwEGCCsG
AQUFBwMCMA0GCSqGSIb3DQEBCwUAA4IBAQBDPG/k54mp/vjQ1qATlBuhmCImDeE7
oZFB8V6IOMt98FWMw9+jmTFxDNAfI4aJ18qf8Ma80rgLTry/Y5NOxHFll8Dy6jU0
nNW1jhUuuwtjq/b9XS0i9wDmWogBb/jvir5oHZW1ybJHvs2YvVquormjU7yeh95A
phe1fL1NNfUpciKn7iq8TOKwpphHHZMB+FPur+M6H6LgNutnKHo5uImVRFcIuyCN
Cyc2Fc5IEa4yB+9EEuWXLpJWxNaTD0ElOOVSDsPzzJ3esB1O41F5Yw9MWOp853qs
qPPERRY0d7prp0mcqmLR3YFrVQg4OREjoOxQ/1jKItMpyC68NWKbzVb7
-----END CERTIFICATE-----
