Certificate:
    Data:
        Version: 3 (0x2)
        Serial Number: 4097 (0x1001)
    Signature Algorithm: sha256WithRSAEncryption
        Issuer: CN=C Root CA
        Validity
            Not Before: Dec  9 20:18:57 2016 GMT
            Not After : Dec  7 20:18:57 2026 GMT
        Subject: CN=B CA
        Subject Public Key Info:
            Public Key Algorithm: rsaEncryption
                Public-Key: (2048 bit)
                Modulus:
                    00:b3:87:98:77:4f:45:bb:de:87:86:1f:8b:1e:b2:
                    26:cb:56:a3:d3:10:85:5e:95:ed:aa:c3:87:17:f4:
                    40:86:bf:d7:e0:4a:ea:43:95:ce:b9:22:2a:c4:90:
                    f0:24:34:81:f2:5b:58:47:d3:d8:9b:eb:fc:90:4b:
                    54:41:6d:6a:c0:5d:82:56:49:47:c4:ab:29:48:a4:
                    23:05:fa:4f:a3:9e:83:65:5a:fd:57:c2:5a:4c:13:
                    bf:eb:75:ff:4d:f9:c1:5b:65:32:7d:bb:0d:e3:20:
                    6a:4c:b3:28:fc:01:11:68:c0:9c:4b:f6:a5:df:68:
                    0e:b2:c1:6f:b3:69:5f:53:35:2c:b9:3b:f8:c2:48:
                    3b:3f:8f:d1:9f:76:b1:3a:1a:22:7f:fd:28:e6:6e:
                    1c:96:95:c3:37:6f:c4:5a:24:28:25:5b:f6:a0:85:
                    f0:47:33:fa:9d:3b:38:cf:b1:d1:c9:06:d8:25:03:
                    bc:00:50:fe:08:dc:0d:d8:b1:87:94:8e:dc:74:ac:
                    2c:53:44:91:4c:67:0a:71:5e:d3:df:c6:58:ee:00:
                    fe:96:fd:2f:96:f8:9f:35:5a:4e:be:ca:c1:5a:55:
                    f8:4d:85:77:3d:a9:d6:aa:75:0f:b9:82:07:c4:89:
                    9e:9a:e6:39:f8:39:d2:be:62:cd:ca:43:a2:55:bf:
                    0b:81
                Exponent: 65537 (0x10001)
        X509v3 extensions:
            X509v3 Basic Constraints: critical
                CA:TRUE
            X509v3 Key Usage: critical
                Certificate Sign, CRL Sign
    Signature Algorithm: sha256WithRSAEncryption
         99:1e:ab:d0:ab:f7:27:85:ed:91:bc:b0:3e:af:57:a8:31:1d:
         8e:e8:4b:bc:3e:b4:82:c9:6c:62:3a:8d:48:be:a1:0a:42:27:
         11:18:ef:47:53:b2:46:5f:d0:de:31:4e:c3:de:e8:c5:f6:24:
         09:69:25:c9:e6:f8:1e:1a:b1:27:63:ff:07:8b:7b:e9:80:b5:
         68:d4:94:54:b6:fe:c6:a6:3b:61:01:f9:89:a2:50:f2:9b:a0:
         02:2a:85:bd:13:5a:43:45:a7:b7:7c:eb:1a:69:95:04:dc:c0:
         17:13:da:c8:73:fd:0b:94:a2:fe:af:e7:18:b4:b1:90:21:99:
         ad:f8:06:9a:6d:c1:e1:3b:f4:85:69:91:6d:68:84:9f:e9:09:
         30:08:f6:11:87:99:67:8f:16:cc:59:43:38:95:5e:fa:9d:c5:
         4a:2d:55:f2:3d:1a:49:5c:12:66:ea:40:2d:a1:de:08:40:a4:
         b3:dc:19:8a:23:04:a6:cf:a6:9b:2e:d0:2a:3c:5f:fa:4c:bb:
         5a:62:d0:0b:a4:f6:8c:06:42:54:b4:c6:63:e0:f1:f0:11:a8:
         ec:57:3d:93:6c:0c:67:a5:5a:8a:52:c5:37:b6:c3:7e:54:05:
         b0:82:d9:32:8a:a7:12:83:39:d9:bc:81:ce:db:e9:ad:e9:b7:
         5d:1d:6d:3a
-----BEGIN CERTIFICATE-----
MIICwjCCAaqgAwIBAgICEAEwDQYJKoZIhvcNAQELBQAwFDESMBAGA1UEAwwJQyBS
b290IENBMB4XDTE2MTIwOTIwMTg1N1oXDTI2MTIwNzIwMTg1N1owDzENMAsGA1UE
AwwEQiBDQTCCASIwDQYJKoZIhvcNAQEBBQADggEPADCCAQoCggEBALOHmHdPRbve
h4Yfix6yJstWo9MQhV6V7arDhxf0QIa/1+BK6kOVzrkiKsSQ8CQ0gfJbWEfT2Jvr
/JBLVEFtasBdglZJR8SrKUikIwX6T6Oeg2Va/VfCWkwTv+t1/035wVtlMn27DeMg
akyzKPwBEWjAnEv2pd9oDrLBb7NpX1M1LLk7+MJIOz+P0Z92sToaIn/9KOZuHJaV
wzdvxFokKCVb9qCF8Ecz+p07OM+x0ckG2CUDvABQ/gjcDdixh5SO3HSsLFNEkUxn
CnFe09/GWO4A/pb9L5b4nzVaTr7KwVpV+E2Fdz2p1qp1D7mCB8SJnprmOfg50r5i
zcpDolW/C4ECAwEAAaMjMCEwDwYDVR0TAQH/BAUwAwEB/zAOBgNVHQ8BAf8EBAMC
AQYwDQYJKoZIhvcNAQELBQADggEBAJkeq9Cr9yeF7ZG8sD6vV6gxHY7oS7w+tILJ
bGI6jUi+oQpCJxEY70dTskZf0N4xTsPe6MX2JAlpJcnm+B4asSdj/weLe+mAtWjU
lFS2/samO2EB+YmiUPKboAIqhb0TWkNFp7d86xpplQTcwBcT2shz/QuUov6v5xi0
sZAhma34BpptweE79IVpkW1ohJ/pCTAI9hGHmWePFsxZQziVXvqdxUotVfI9Gklc
EmbqQC2h3ghApLPcGYojBKbPppsu0Co8X/pMu1pi0Auk9owGQlS0xmPg8fARqOxX
PZNsDGelWopSxTe2w35UBbCC2TKKpxKDOdm8gc7b6a3pt10dbTo=
-----END CERTIFICATE-----
