Certificate:
    Data:
        Version: 3 (0x2)
        Serial Number: 4096 (0x1000)
    Signature Algorithm: sha256WithRSAEncryption
        Issuer: CN=B CA
        Validity
            Not Before: Dec  9 20:18:57 2016 GMT
            Not After : Dec  7 20:18:57 2026 GMT
        Subject: CN=Client Cert A
        Subject Public Key Info:
            Public Key Algorithm: rsaEncryption
                Public-Key: (2048 bit)
                Modulus:
                    00:c9:80:e3:74:9b:39:b7:49:b6:44:40:f0:91:ae:
                    46:84:50:86:8b:c7:0f:cc:34:e0:10:a6:aa:66:3d:
                    f0:cd:15:ff:4f:c9:bf:fe:32:11:4c:ad:59:7c:7c:
                    6e:cd:3e:b5:1a:71:8e:8a:eb:7c:5d:2c:36:f1:ae:
                    ff:59:8d:3f:d7:f7:1c:de:74:c6:9b:43:ee:bc:a9:
                    81:8e:b8:a5:40:26:7d:63:c9:1b:2c:2f:a5:11:06:
                    83:d7:2f:d3:30:4a:d0:37:d5:b9:fd:d1:3f:6d:4f:
                    75:0a:0d:33:21:72:60:5f:d6:b4:a4:6c:96:78:ce:
                    c2:f3:ba:bd:0d:19:32:fd:6c:1b:37:a7:92:f3:d7:
                    c0:b1:13:4f:20:b9:fb:7c:38:92:07:c5:f7:77:6e:
                    df:bf:f9:9f:5a:0c:3d:a7:3d:25:7b:0d:e1:63:89:
                    e9:a4:eb:a5:bc:17:5a:44:a8:31:24:a5:fc:29:30:
                    52:73:2d:e8:b0:3c:24:07:eb:ab:40:b6:a6:1a:c3:
                    ff:ee:28:23:20:6c:b9:c8:a3:b0:f2:75:ec:9d:fd:
                    46:ab:e1:83:85:2d:04:e0:26:ba:b1:e3:44:00:e8:
                    97:68:01:82:5b:bc:1f:37:20:4f:f9:a5:47:8f:40:
                    8d:bc:33:cd:d7:8e:c8:fc:f7:c6:28:6d:59:4a:f7:
                    62:a7
                Exponent: 65537 (0x10001)
        X509v3 extensions:
            X509v3 Basic Constraints: critical
                CA:FALSE
            X509v3 Extended Key Usage: 
                TLS Web Server Authentication, TLS Web Client Authentication
    Signature Algorithm: sha256WithRSAEncryption
         1f:ef:f9:19:b9:64:e7:15:e2:7f:4f:e0:9e:66:f0:2a:b8:8f:
         4e:63:0c:7c:d5:a0:37:68:d2:c8:c2:9a:7b:e1:bd:13:31:c8:
         ca:ce:96:c0:13:0a:bd:5e:f2:3c:8a:4d:0a:82:61:7e:35:0b:
         fc:07:83:82:6e:cc:97:18:ff:32:68:08:5b:1a:34:35:ca:f0:
         d2:19:d0:f0:35:66:c8:0b:44:ac:94:75:28:d8:cc:c1:b7:32:
         df:93:cb:94:48:43:c7:cc:06:d3:b8:6c:6a:b2:c0:9f:f7:ef:
         dd:36:c0:81:f9:e8:f0:7f:1c:d9:c5:92:31:91:de:88:a6:8d:
         0c:9e:e5:bf:a9:91:69:09:24:b1:5b:70:45:10:e1:8c:38:99:
         c3:06:95:da:6a:c5:02:20:f8:25:e2:0c:b2:76:e5:01:1c:4b:
         0b:77:5a:ec:ff:99:37:fc:38:ff:17:cb:42:1d:c2:2f:2f:1f:
         d1:be:d5:c6:22:89:e9:73:9c:ff:a9:03:77:cb:28:e5:e8:7e:
         0d:80:d4:75:88:ab:79:0b:bc:e3:98:1f:6e:0b:44:e2:c4:8a:
         e6:6c:1d:74:30:6a:84:a7:2d:84:96:c4:7c:a9:25:39:8e:c8:
         50:df:0f:41:3f:4b:cb:92:c9:92:ed:2a:73:f1:7d:c3:cf:60:
         a7:af:ab:85
-----BEGIN CERTIFICATE-----
MIIC0jCCAbqgAwIBAgICEAAwDQYJKoZIhvcNAQELBQAwDzENMAsGA1UEAwwEQiBD
QTAeFw0xNjEyMDkyMDE4NTdaFw0yNjEyMDcyMDE4NTdaMBgxFjAUBgNVBAMMDUNs
aWVudCBDZXJ0IEEwggEiMA0GCSqGSIb3DQEBAQUAA4IBDwAwggEKAoIBAQDJgON0
mzm3SbZEQPCRrkaEUIaLxw/MNOAQpqpmPfDNFf9Pyb/+MhFMrVl8fG7NPrUacY6K
63xdLDbxrv9ZjT/X9xzedMabQ+68qYGOuKVAJn1jyRssL6URBoPXL9MwStA31bn9
0T9tT3UKDTMhcmBf1rSkbJZ4zsLzur0NGTL9bBs3p5Lz18CxE08guft8OJIHxfd3
bt+/+Z9aDD2nPSV7DeFjiemk66W8F1pEqDEkpfwpMFJzLeiwPCQH66tAtqYaw//u
KCMgbLnIo7Dydeyd/Uar4YOFLQTgJrqx40QA6JdoAYJbvB83IE/5pUePQI28M83X
jsj898YobVlK92KnAgMBAAGjLzAtMAwGA1UdEwEB/wQCMAAwHQYDVR0lBBYwFAYI
KwYBBQUHAwEGCCsGAQUFBwMCMA0GCSqGSIb3DQEBCwUAA4IBAQAf7/kZuWTnFeJ/
T+CeZvAquI9OYwx81aA3aNLIwpp74b0TMcjKzpbAEwq9XvI8ik0KgmF+NQv8B4OC
bsyXGP8yaAhbGjQ1yvDSGdDwNWbIC0SslHUo2MzBtzLfk8uUSEPHzAbTuGxqssCf
9+/dNsCB+ejwfxzZxZIxkd6Ipo0MnuW/qZFpCSSxW3BFEOGMOJnDBpXaasUCIPgl
4gyyduUBHEsLd1rs/5k3/Dj/F8tCHcIvLx/RvtXGIonpc5z/qQN3yyjl6H4NgNR1
iKt5C7zjmB9uC0TixIrmbB10MGqEpy2ElsR8qSU5jshQ3w9BP0vLksmS7Spz8X3D
z2Cnr6uF
-----END CERTIFICATE-----
