-----BEGIN PRIVATE KEY-----
MIIEvQIBADANBgkqhkiG9w0BAQEFAASCBKcwggSjAgEAAoIBAQCp1J9FuvCmfgoP
pUn3w+iVRBwBOCXlZyzRcfRsiOfEGNnY8gEDNoyccKFHnj5rtJ/kQc9IgcZC2nob
qUSdHBEhUjKZbDZXOTXlBmpVY3qw0edMgwS9SSmaM5axPXEqJn7KShyzEC+3qux1
T+gH8DBgwiP2qjM1A6nqf0/QDDms15sKhZJm9Z/MBpbpO/4zPjYSdsADv9sc7uyU
xRnNp3PQWu/hZjgg9w0tZWOzBaKHTHJLV+wH8frRqwLdHoB+gSIUfmNnGHKe59ia
rWjGU4l5b4kOVS8e5dSfdvNLbUM8z8dMvRq68fJnCJLkqnV7cehYmi+c6iGvDbkV
y7vVzfWnAgMBAAECggEALyW5+c/GE1KWVHWcrU4T+axo4eXGj4MvLA4ovyDaxtPn
VpUItu2j56JVA97okVoZsXKbqxNsCQ9CKv+47qzmDIwXRASIqXpWffhj+MSfQQtk
3Rbab/optIdx5E6cZgk91cbxZLyvopuu/XprfhiuNY5wEYB6qtMTjug9LhLWyCa3
N2tTlIi8qMa79HPYcJ3l7en8jXrx+/856hCGGXXNP6H3HP4Kf171tZryDuekJhwt
pm6chDeFMkvJVa8GflKUxC5aVqhb84apCArvuaP/IXlDf0mEcyToyTjQaHitWtYo
BqueC3wMU5e5TvfQ3CKutWP3L9fQzU/mzpbEAuMMcQKBgQDUU47C0xwaIhfTyY2V
j9xDoEyJiRiaw0wUg2WtlNyIfUCOJSFxHeXqCmu1TurBxoNprlWZCf+myBR7hKXV
XbjRSluo7EFe6qF5ZxfVkTgaggSUmqd65kCDGyWQTZQ4tw+qal6T3TekJOwoAPa0
ifKfPmzW/uleFwsXRJb5ydNA3QKBgQDMw13gt6s9xSAjvmZwdHdwb7712K4RrcoL
vrdOI6HEVDYsu2+zJxEtp0koE1Dk5LBUP4VAaDw1ABcx+Qon29mFy/orc8uH0PEu
SES6kZxr70eKJ67jvgs370m8zM+IJsC4RJ1wu09Q0vsdJ2TZLG5jlQD1no08Ta37
Wv27zenGUwKBgH7ukPsBj9xDo3D2HlFaFnjLPNZAAliLBlGBF+kEhC6Iim4v3mUs
VYVrw2Y5jnhXf7pPAVcjNhVzqWMKMsVyaQmdZVyAGLhwliXorsP7M8oNDkX0iskb
G1gFg5hX+JNLRO9A9dd5uUjE1fU4VkQp78SpYhHJhKO+LOA1HfioYkV1AoGALHAt
3Iof2M0CN5+nvboY/cbSq6o1xNJxqfDe+U9UWTZpd3XKPRg6ay0F/HOMt9BF0FLk
yWCVyG7XmdnRcWsOHzJwfaOoxTX8Ua4PdGoLh4UrgnkwRG7HIoGFADt2wraeVp9V
h9Su1vyi0OXuxg8VefkpdyTMxAybuJQ7wtliZc8CgYEAouBfKjc3xn/jrf++kgie
taZ+ormKZs2mfTfcEMeQv7Bd7sEUWCoRevdorTlHaw1DKBqFq56Y1v3ppH83C6DH
5v1+43M6zq7qWGSgf5nbQ1ZBMUR0FMcBujc9JFX52Zc7ScvE1hwMT3lBJut/ln5W
h1oQd50MoCr4WE39Em4/H3o=
-----END PRIVATE KEY-----
Certificate:
    Data:
        Version: 3 (0x2)
        Serial Number: 24 (0x18)
    Signature Algorithm: sha256WithRSAEncryption
        Issuer: C=US, ST=California, L=Mountain View, O=Test CA, CN=Test Root CA
        Validity
            Not Before: Dec 20 00:00:00 2017 GMT
            Not After : Dec 20 00:00:00 2020 GMT
        Subject: C=US, ST=California, L=Mountain View, O=Test CA, CN=127.0.0.1
        Subject Public Key Info:
            Public Key Algorithm: rsaEncryption
                Public-Key: (2048 bit)
                Modulus:
                    00:a9:d4:9f:45:ba:f0:a6:7e:0a:0f:a5:49:f7:c3:
                    e8:95:44:1c:01:38:25:e5:67:2c:d1:71:f4:6c:88:
                    e7:c4:18:d9:d8:f2:01:03:36:8c:9c:70:a1:47:9e:
                    3e:6b:b4:9f:e4:41:cf:48:81:c6:42:da:7a:1b:a9:
                    44:9d:1c:11:21:52:32:99:6c:36:57:39:35:e5:06:
                    6a:55:63:7a:b0:d1:e7:4c:83:04:bd:49:29:9a:33:
                    96:b1:3d:71:2a:26:7e:ca:4a:1c:b3:10:2f:b7:aa:
                    ec:75:4f:e8:07:f0:30:60:c2:23:f6:aa:33:35:03:
                    a9:ea:7f:4f:d0:0c:39:ac:d7:9b:0a:85:92:66:f5:
                    9f:cc:06:96:e9:3b:fe:33:3e:36:12:76:c0:03:bf:
                    db:1c:ee:ec:94:c5:19:cd:a7:73:d0:5a:ef:e1:66:
                    38:20:f7:0d:2d:65:63:b3:05:a2:87:4c:72:4b:57:
                    ec:07:f1:fa:d1:ab:02:dd:1e:80:7e:81:22:14:7e:
                    63:67:18:72:9e:e7:d8:9a:ad:68:c6:53:89:79:6f:
                    89:0e:55:2f:1e:e5:d4:9f:76:f3:4b:6d:43:3c:cf:
                    c7:4c:bd:1a:ba:f1:f2:67:08:92:e4:aa:75:7b:71:
                    e8:58:9a:2f:9c:ea:21:af:0d:b9:15:cb:bb:d5:cd:
                    f5:a7
                Exponent: 65537 (0x10001)
        X509v3 extensions:
            X509v3 Basic Constraints: critical
                CA:FALSE
            X509v3 Subject Key Identifier: 
                41:E5:87:59:14:3F:3E:99:24:67:DF:F8:B7:59:F6:81:3D:9C:F7:14
            X509v3 Authority Key Identifier: 
                keyid:9B:26:0B:8A:98:A9:BB:1D:B9:1F:1C:E3:1A:40:33:ED:8E:17:88:AB

            X509v3 Extended Key Usage: 
                TLS Web Server Authentication, TLS Web Client Authentication
    Signature Algorithm: sha256WithRSAEncryption
         39:41:78:9d:38:e1:d2:7e:92:34:7a:da:32:6c:2d:51:d6:a4:
         c1:d9:84:5f:24:2e:8f:ce:a8:60:29:ba:01:01:4b:a3:e0:fe:
         56:9c:5a:0b:8b:9f:b1:b6:55:89:0e:40:8f:09:0c:10:f1:dc:
         9a:3d:85:7c:ef:83:f9:0e:42:81:89:ac:a4:11:b9:e9:fd:db:
         58:54:63:51:66:5c:0e:0e:42:68:58:d9:0e:aa:54:70:6d:e7:
         51:e5:8b:fd:d0:da:dd:7b:b9:97:55:42:42:e7:39:b4:4b:4b:
         c4:89:90:d1:6e:4b:0a:fd:cc:a8:a3:a7:70:ed:d6:e8:c4:09:
         80:d7:b0:09:ae:db:d2:4b:4f:0a:ec:73:28:bf:6f:cb:61:bd:
         ab:5f:9a:2d:81:5e:e0:be:8c:32:d1:24:ea:a3:83:04:b8:81:
         97:e2:26:91:a2:fa:da:18:fa:54:58:46:d9:38:9b:66:b0:80:
         1d:a3:55:5b:86:7d:77:ca:0c:ba:e1:e6:c5:8c:e3:08:73:0f:
         73:b7:8b:42:75:6b:62:6e:bf:73:2d:4c:11:07:b4:b7:a0:72:
         0d:23:08:4b:65:8e:fd:1d:61:15:e6:d0:a5:ad:31:0b:d4:35:
         3a:f7:aa:e7:50:38:a2:dc:b0:24:52:9d:86:fc:ce:1a:d8:29:
         4b:de:82:af
-----BEGIN CERTIFICATE-----
MIIDrTCCApWgAwIBAgIBGDANBgkqhkiG9w0BAQsFADBjMQswCQYDVQQGEwJVUzET
MBEGA1UECAwKQ2FsaWZvcm5pYTEWMBQGA1UEBwwNTW91bnRhaW4gVmlldzEQMA4G
A1UECgwHVGVzdCBDQTEVMBMGA1UEAwwMVGVzdCBSb290IENBMB4XDTE3MTIyMDAw
MDAwMFoXDTIwMTIyMDAwMDAwMFowYDELMAkGA1UEBhMCVVMxEzARBgNVBAgMCkNh
bGlmb3JuaWExFjAUBgNVBAcMDU1vdW50YWluIFZpZXcxEDAOBgNVBAoMB1Rlc3Qg
Q0ExEjAQBgNVBAMMCTEyNy4wLjAuMTCCASIwDQYJKoZIhvcNAQEBBQADggEPADCC
AQoCggEBAKnUn0W68KZ+Cg+lSffD6JVEHAE4JeVnLNFx9GyI58QY2djyAQM2jJxw
oUeePmu0n+RBz0iBxkLaehupRJ0cESFSMplsNlc5NeUGalVjerDR50yDBL1JKZoz
lrE9cSomfspKHLMQL7eq7HVP6AfwMGDCI/aqMzUDqep/T9AMOazXmwqFkmb1n8wG
luk7/jM+NhJ2wAO/2xzu7JTFGc2nc9Ba7+FmOCD3DS1lY7MFoodMcktX7Afx+tGr
At0egH6BIhR+Y2cYcp7n2JqtaMZTiXlviQ5VLx7l1J9280ttQzzPx0y9Grrx8mcI
kuSqdXtx6FiaL5zqIa8NuRXLu9XN9acCAwEAAaNvMG0wDAYDVR0TAQH/BAIwADAd
BgNVHQ4EFgQUQeWHWRQ/PpkkZ9/4t1n2gT2c9xQwHwYDVR0jBBgwFoAUmyYLipip
ux25HxzjGkAz7Y4XiKswHQYDVR0lBBYwFAYIKwYBBQUHAwEGCCsGAQUFBwMCMA0G
CSqGSIb3DQEBCwUAA4IBAQA5QXidOOHSfpI0etoybC1R1qTB2YRfJC6PzqhgKboB
AUuj4P5WnFoLi5+xtlWJDkCPCQwQ8dyaPYV874P5DkKBiaykEbnp/dtYVGNRZlwO
DkJoWNkOqlRwbedR5Yv90Nrde7mXVUJC5zm0S0vEiZDRbksK/cyoo6dw7dboxAmA
17AJrtvSS08K7HMov2/LYb2rX5otgV7gvowy0STqo4MEuIGX4iaRovraGPpUWEbZ
OJtmsIAdo1Vbhn13ygy64ebFjOMIcw9zt4tCdWtibr9zLUwRB7S3oHINIwhLZY79
HWEV5tClrTEL1DU696rnUDii3LAkUp2G/M4a2ClL3oKv
-----END CERTIFICATE-----
