-----BEGIN RSA PRIVATE KEY-----
MIIEogIBAAKCAQEArb3ubpJlolhcRduBpP7VEoyb0BbLuEdRBEN+WeuuUmFCUjcE
srXy9HtlfRRNk0fPFr931k1gmjuoqzz2zJLEd3KitsRo9itnimi2u27pIUr2C912
4Gp4zq1tkXTQXiNID7VMpNdkpLeVSNHhgtNzZ7BjffOi3guU4SF74DuSwtorXnmE
CVcxh/TDPwniccahq8vnk3fsE2/eWMmPC2WJTKmMPtaoGis3M6S+gsuvQqnTfe7v
0IH8noDf56XB3+Efkz6NoxcAdPWkcvFG0IcwptEWkfbj3qMsmbuXEFJjbiDLFQGP
7gn1Qoa7xd5JfT7FNjPugCLwCntaxagE4gn6mQIDAQABAoIBAE67HMraaFfy9o1p
dQxRtjhbo1fenJ57Islt1FnnJO2LyUP8TpK1RM1pBYpyoty007EZPrLMCZSaqEpA
rA30DDecqQNtaarz7E2aOgQhtF8z2t9xkicL2Ia/rEEX0Dx4fHUx0PN57898qZeA
FFL2gvtfwRYYS5uXX/XM+JeaJ11IRCZTJCRkaoK6Ffyu0pi0yCg/WS852XlAuTWp
sguJRydFtt2xW8qF9Ua8mVVCVEo4olaopvGECu1cauj3Oxydk0vLc9lABPRQrS3u
0nTdovZiuk0EPy4s8pyFTo9isqSLq79HWi4v/ByXeCLRp6ZpjR7s3s/3SEyG2NG/
6nMtmiECgYEA5uWN232qNv0hGgQLzTUPwk8VyGbpSAoETYyT8nwc7o4ZS/tghvXI
4JFxyQFEoMxeMmVWS8FgN6DGnDjjXQGD40ZO6UkwFX48E07jE8sh767cCL80BO36
q8DSdicOUoYWvQ6WJw/RUNggIFzOZhjKlBw7Yjf5/buRkkOAJ3xk3nUCgYEAwKGd
Es0UjNU6/iYtNOlYlAxKQS8d+EwnxelWbBY6h89Uquqnt36+Bgv8ceDMx6JwjZGq
b6olv4f3HrmVwighEWUiiccniEuMx/50XInISHfHZV8OsQ9p5bUI0vHo3XNsegbg
JdeQqxC88JeCTrq7Fm09wKIZ8ft6WR0+DSAzbxUCgYAddei1usD/JykUErQWyNBr
8H9NBKR7Rpvp8SfnZqKiZYsgwMA+OBobXTNxfDHvemQCdh+eptvJ/T+aK0AHW+wi
EZR7+5ShCWxM4mHi4qY/2MXGb+8JOfwj8gRogu825Fj+YmASN9hzQkBHINBNApjG
cRu6mn3RPB+E1AwD/cE5CQKBgFDZA8XKUR+ytunIOB0G+uhYKConjlqSC/disaT3
x2UMvapmhjHbfgGnsjJReWEoajjgtDndna4/cJZyqcotcYONgOt2rL7lhpbB0zCr
m2Xe7886ED58C6QfUS7H3UZklVi53gXD7bH+em44CLbmZHNLMinRXzZSp80TGuID
a9LpAoGAUjwIqx5+5xS5uTScPShuxTVh5kTWMhBLVRyh/evzmb9ALk6fUyid8Xm3
q5E6l49iRsxHFbW2EQ9COp9CtZ3tgJbsivyeMazjlwpZhj1VotzrIHOSN0bup0KE
qX9WYiR6GU99/vFY8BKOBkVI6AdOfkPm5aWnMUzpceBtJHCJQdQ=
-----END RSA PRIVATE KEY-----
Certificate:
    Data:
        Version: 1 (0x0)
        Serial Number: 2 (0x2)
    Signature Algorithm: sha256WithRSAEncryption
        Issuer: CN=2048 RSA Test Root CA
        Validity
            Not Before: Aug 14 02:46:31 2014 GMT
            Not After : Aug 11 02:46:31 2024 GMT
        Subject: C=US, ST=California, L=Mountain View, O=Test CA, CN=127.0.0.1
        Subject Public Key Info:
            Public Key Algorithm: rsaEncryption
                Public-Key: (2048 bit)
                Modulus:
                    00:ad:bd:ee:6e:92:65:a2:58:5c:45:db:81:a4:fe:
                    d5:12:8c:9b:d0:16:cb:b8:47:51:04:43:7e:59:eb:
                    ae:52:61:42:52:37:04:b2:b5:f2:f4:7b:65:7d:14:
                    4d:93:47:cf:16:bf:77:d6:4d:60:9a:3b:a8:ab:3c:
                    f6:cc:92:c4:77:72:a2:b6:c4:68:f6:2b:67:8a:68:
                    b6:bb:6e:e9:21:4a:f6:0b:dd:76:e0:6a:78:ce:ad:
                    6d:91:74:d0:5e:23:48:0f:b5:4c:a4:d7:64:a4:b7:
                    95:48:d1:e1:82:d3:73:67:b0:63:7d:f3:a2:de:0b:
                    94:e1:21:7b:e0:3b:92:c2:da:2b:5e:79:84:09:57:
                    31:87:f4:c3:3f:09:e2:71:c6:a1:ab:cb:e7:93:77:
                    ec:13:6f:de:58:c9:8f:0b:65:89:4c:a9:8c:3e:d6:
                    a8:1a:2b:37:33:a4:be:82:cb:af:42:a9:d3:7d:ee:
                    ef:d0:81:fc:9e:80:df:e7:a5:c1:df:e1:1f:93:3e:
                    8d:a3:17:00:74:f5:a4:72:f1:46:d0:87:30:a6:d1:
                    16:91:f6:e3:de:a3:2c:99:bb:97:10:52:63:6e:20:
                    cb:15:01:8f:ee:09:f5:42:86:bb:c5:de:49:7d:3e:
                    c5:36:33:ee:80:22:f0:0a:7b:5a:c5:a8:04:e2:09:
                    fa:99
                Exponent: 65537 (0x10001)
        X509v3 extensions:
            X509v3 Subject Alternative Name: 
                IP Address:127.0.0.1
            X509v3 Basic Constraints: critical
                CA:FALSE
            X509v3 Subject Key Identifier: 
                C8:14:20:CB:A7:D1:AC:A1:7F:27:3E:72:47:1E:AF:50:EB:DF:CD:73
            X509v3 Extended Key Usage: critical
                Code Signing
    Signature Algorithm: sha256WithRSAEncryption
         18:5e:81:7e:31:f7:38:78:d2:2a:08:7f:57:60:a0:e1:b3:72:
         7e:7f:8a:6f:76:bd:cb:56:74:14:9a:65:96:0e:99:1b:59:90:
         4b:f1:d9:10:89:0a:5c:75:f3:01:1b:50:a5:00:b7:34:0f:d5:
         5a:24:df:10:79:83:17:9b:82:bf:66:b0:4f:eb:53:d1:0b:8c:
         01:b8:57:58:4f:31:f6:66:f3:89:ba:02:9c:fb:a4:1c:f8:e6:
         5d:14:44:13:d9:74:be:b3:1a:1d:6b:35:77:b7:08:28:d3:60:
         9f:ac:e5:72:57:20:03:2f:ce:5c:10:15:da:45:cd:d8:09:66:
         4c:a2:44:cb:9a:bf:b3:2e:1b:44:36:62:2f:e2:64:8f:72:b8:
         da:9a:fb:ef:f5:0e:04:39:d1:2d:9a:1e:bd:48:56:90:d3:3c:
         f4:d5:89:07:9f:f6:a6:c4:d3:ff:d6:fe:67:b8:29:f8:93:36:
         e0:4d:69:a3:1a:38:a0:ce:39:02:63:73:3d:dd:13:98:80:36:
         d0:1e:a0:23:55:8d:59:3f:dd:12:3c:ee:af:f7:a3:e4:f2:e3:
         57:b4:f5:f3:2a:e5:60:70:c1:88:89:f0:06:6d:de:c0:b1:cf:
         a5:65:cc:a0:d3:41:f6:fb:4e:94:ba:17:0a:60:59:bb:ac:18:
         d7:f6:9c:52
-----BEGIN CERTIFICATE-----
MIIDTjCCAjYCAQIwDQYJKoZIhvcNAQELBQAwIDEeMBwGA1UEAwwVMjA0OCBSU0Eg
VGVzdCBSb290IENBMB4XDTE0MDgxNDAyNDYzMVoXDTI0MDgxMTAyNDYzMVowYDEL
MAkGA1UEBhMCVVMxEzARBgNVBAgMCkNhbGlmb3JuaWExFjAUBgNVBAcMDU1vdW50
YWluIFZpZXcxEDAOBgNVBAoMB1Rlc3QgQ0ExEjAQBgNVBAMMCTEyNy4wLjAuMTCC
ASIwDQYJKoZIhvcNAQEBBQADggEPADCCAQoCggEBAK297m6SZaJYXEXbgaT+1RKM
m9AWy7hHUQRDflnrrlJhQlI3BLK18vR7ZX0UTZNHzxa/d9ZNYJo7qKs89sySxHdy
orbEaPYrZ4potrtu6SFK9gvdduBqeM6tbZF00F4jSA+1TKTXZKS3lUjR4YLTc2ew
Y33zot4LlOEhe+A7ksLaK155hAlXMYf0wz8J4nHGoavL55N37BNv3ljJjwtliUyp
jD7WqBorNzOkvoLLr0Kp033u79CB/J6A3+elwd/hH5M+jaMXAHT1pHLxRtCHMKbR
FpH2496jLJm7lxBSY24gyxUBj+4J9UKGu8XeSX0+xTYz7oAi8Ap7WsWoBOIJ+pkC
AwEAAaNYMFYwDwYDVR0RBAgwBocEfwAAATAMBgNVHRMBAf8EAjAAMB0GA1UdDgQW
BBTIFCDLp9GsoX8nPnJHHq9Q69/NczAWBgNVHSUBAf8EDDAKBggrBgEFBQcDAzAN
BgkqhkiG9w0BAQsFAAOCAQEAGF6BfjH3OHjSKgh/V2Cg4bNyfn+Kb3a9y1Z0FJpl
lg6ZG1mQS/HZEIkKXHXzARtQpQC3NA/VWiTfEHmDF5uCv2awT+tT0QuMAbhXWE8x
9mbziboCnPukHPjmXRREE9l0vrMaHWs1d7cIKNNgn6zlclcgAy/OXBAV2kXN2Alm
TKJEy5q/sy4bRDZiL+Jkj3K42pr77/UOBDnRLZoevUhWkNM89NWJB5/2psTT/9b+
Z7gp+JM24E1poxo4oM45AmNzPd0TmIA20B6gI1WNWT/dEjzur/ej5PLjV7T18yrl
YHDBiInwBm3ewLHPpWXMoNNB9vtOlLoXCmBZu6wY1/acUg==
-----END CERTIFICATE-----
