Certificate:
    Data:
        Version: 3 (0x2)
        Serial Number: 25 (0x19)
    Signature Algorithm: sha256WithRSAEncryption
        Issuer: C=US, ST=California, L=Mountain View, O=Test CA, CN=Test Root CA
        Validity
            Not Before: Dec 20 00:00:00 2017 GMT
            Not After : Dec 20 00:00:00 2020 GMT
        Subject: C=US, ST=California, L=Mountain View, O=Test CA, CN=127.0.0.1
        Subject Public Key Info:
            Public Key Algorithm: rsaEncryption
                Public-Key: (2048 bit)
                Modulus:
                    00:d0:c1:27:76:2d:56:e6:b9:e3:23:b9:b6:c3:0e:
                    f4:8c:cb:73:85:0e:45:ed:b8:ea:e6:21:b6:60:56:
                    1d:b7:24:72:b9:51:72:68:07:22:9f:8f:fd:47:c7:
                    da:9b:7b:5c:ad:e8:f5:6a:72:4d:8b:e4:55:fc:c6:
                    41:d8:53:5e:0a:ba:35:4e:bc:98:21:d0:c2:ae:f7:
                    ff:ec:8f:26:eb:a1:71:74:11:b7:21:fd:38:04:5a:
                    e5:42:3d:02:28:05:3a:8d:2d:9b:5e:7b:39:35:e4:
                    fe:59:a8:98:39:c7:6c:d1:9e:1a:d7:c3:11:78:cb:
                    44:72:e4:a0:89:83:e2:f8:de:c9:46:3a:c5:71:7f:
                    af:ee:e5:ba:1f:fa:97:19:f0:d0:5c:32:81:d3:7d:
                    80:99:70:49:2a:ba:c8:40:b0:32:51:ec:16:3b:4d:
                    61:05:e2:dc:b9:24:f0:a6:6b:ad:cd:53:1d:cd:9a:
                    ba:bb:df:96:f1:ac:e6:5e:03:cb:98:07:da:21:6e:
                    8c:ac:56:37:39:15:d4:ab:b0:43:d1:64:7a:05:59:
                    f8:f8:bd:4e:31:c7:8c:d6:23:e8:3d:99:ea:75:78:
                    25:8d:1a:83:32:39:ec:ec:69:ef:76:cc:b6:cf:06:
                    0e:1d:ca:ac:8c:b7:10:a7:d2:ec:18:86:7c:6f:20:
                    9c:bf
                Exponent: 65537 (0x10001)
        X509v3 extensions:
            X509v3 Basic Constraints: critical
                CA:FALSE
            X509v3 Subject Key Identifier: 
                4F:62:A1:56:D4:81:D5:18:65:C6:E0:DC:91:72:07:32:58:0C:79:EE
            X509v3 Authority Key Identifier: 
                keyid:9B:26:0B:8A:98:A9:BB:1D:B9:1F:1C:E3:1A:40:33:ED:8E:17:88:AB

            X509v3 Extended Key Usage: 
                TLS Web Server Authentication, TLS Web Client Authentication
            X509v3 Subject Alternative Name: 
                IP Address:127.0.0.1
    Signature Algorithm: sha256WithRSAEncryption
         a5:16:f1:6f:8d:ab:b2:d7:c1:f6:98:98:d4:2d:8d:0f:85:09:
         65:73:f4:72:40:66:8b:28:f3:e4:d8:b8:8e:21:2b:9f:27:f2:
         ab:0f:b6:e7:94:9a:1c:b1:58:9a:71:5e:79:d4:1b:9b:11:f3:
         52:ee:a2:00:85:75:d5:a0:6e:af:11:39:cd:72:f8:a8:57:09:
         09:4f:df:e7:42:26:63:08:a2:fb:19:ff:ab:97:e4:f1:01:7c:
         df:e5:87:58:e7:90:e6:61:c0:f8:35:89:5f:4b:f2:f0:ae:cb:
         1a:69:3b:1f:0b:ac:38:18:28:5a:ca:92:75:fa:ee:56:69:dd:
         dc:e8:c4:db:8f:84:20:d2:50:ee:34:32:e6:2f:90:aa:12:3d:
         db:56:a3:38:0f:80:b7:f5:32:b6:12:b8:30:1c:14:84:83:4e:
         7b:42:49:16:ef:1e:b0:3a:f5:03:30:72:86:1f:0d:77:1a:7b:
         44:8b:60:e4:34:49:d8:b0:af:8d:a6:f1:08:70:b3:69:54:5f:
         e0:2f:6d:42:2f:ff:68:07:fd:cf:c1:f7:fa:e7:5f:fe:1f:93:
         ba:02:01:29:69:37:97:6a:16:03:7f:2d:0c:b2:2a:d8:43:13:
         ed:cf:1b:2d:1f:b0:f3:b6:e1:98:cb:92:d3:26:5e:f4:a7:a3:
         90:de:6a:ab
-----BEGIN CERTIFICATE-----
MIIDvzCCAqegAwIBAgIBGTANBgkqhkiG9w0BAQsFADBjMQswCQYDVQQGEwJVUzET
MBEGA1UECAwKQ2FsaWZvcm5pYTEWMBQGA1UEBwwNTW91bnRhaW4gVmlldzEQMA4G
A1UECgwHVGVzdCBDQTEVMBMGA1UEAwwMVGVzdCBSb290IENBMB4XDTE3MTIyMDAw
MDAwMFoXDTIwMTIyMDAwMDAwMFowYDELMAkGA1UEBhMCVVMxEzARBgNVBAgMCkNh
bGlmb3JuaWExFjAUBgNVBAcMDU1vdW50YWluIFZpZXcxEDAOBgNVBAoMB1Rlc3Qg
Q0ExEjAQBgNVBAMMCTEyNy4wLjAuMTCCASIwDQYJKoZIhvcNAQEBBQADggEPADCC
AQoCggEBANDBJ3YtVua54yO5tsMO9IzLc4UORe246uYhtmBWHbckcrlRcmgHIp+P
/UfH2pt7XK3o9WpyTYvkVfzGQdhTXgq6NU68mCHQwq73/+yPJuuhcXQRtyH9OARa
5UI9AigFOo0tm157OTXk/lmomDnHbNGeGtfDEXjLRHLkoImD4vjeyUY6xXF/r+7l
uh/6lxnw0FwygdN9gJlwSSq6yECwMlHsFjtNYQXi3Lkk8KZrrc1THc2aurvflvGs
5l4Dy5gH2iFujKxWNzkV1KuwQ9FkegVZ+Pi9TjHHjNYj6D2Z6nV4JY0agzI57Oxp
73bMts8GDh3KrIy3EKfS7BiGfG8gnL8CAwEAAaOBgDB+MAwGA1UdEwEB/wQCMAAw
HQYDVR0OBBYEFE9ioVbUgdUYZcbg3JFyBzJYDHnuMB8GA1UdIwQYMBaAFJsmC4qY
qbsduR8c4xpAM+2OF4irMB0GA1UdJQQWMBQGCCsGAQUFBwMBBggrBgEFBQcDAjAP
BgNVHREECDAGhwR/AAABMA0GCSqGSIb3DQEBCwUAA4IBAQClFvFvjauy18H2mJjU
LY0PhQllc/RyQGaLKPPk2LiOISufJ/KrD7bnlJocsViacV551BubEfNS7qIAhXXV
oG6vETnNcvioVwkJT9/nQiZjCKL7Gf+rl+TxAXzf5YdY55DmYcD4NYlfS/Lwrssa
aTsfC6w4GChaypJ1+u5Wad3c6MTbj4Qg0lDuNDLmL5CqEj3bVqM4D4C39TK2Ergw
HBSEg057QkkW7x6wOvUDMHKGHw13GntEi2DkNEnYsK+NpvEIcLNpVF/gL21CL/9o
B/3Pwff651/+H5O6AgEpaTeXahYDfy0MsirYQxPtzxstH7DztuGYy5LTJl70p6OQ
3mqr
-----END CERTIFICATE-----
