Certificate:
    Data:
        Version: 3 (0x2)
        Serial Number: 16790907397325450812 (0xe9054950da0fee3c)
    Signature Algorithm: sha1WithRSAEncryption
        Issuer: CN=2048 RSA Test Root CA
        Validity
            Not Before: Aug 14 02:46:30 2014 GMT
            Not After : Aug 11 02:46:30 2024 GMT
        Subject: CN=2048 RSA Test Root CA
        Subject Public Key Info:
            Public Key Algorithm: rsaEncryption
                Public-Key: (2048 bit)
                Modulus:
                    00:9c:22:79:a9:f8:68:98:41:fc:84:fb:f3:1f:73:
                    0f:e0:70:35:c6:04:bb:8d:c0:48:ca:2a:f1:d3:16:
                    3b:8a:71:77:68:ba:c1:48:3c:77:12:ef:4c:d1:1d:
                    da:c1:98:dd:6d:46:50:b6:d7:a3:f3:7e:dc:8c:6b:
                    d2:db:05:bb:77:55:bf:bd:a6:f0:d8:9d:ff:2c:04:
                    1e:24:25:c2:0b:b8:e7:42:a1:c2:42:83:70:16:f1:
                    4a:ef:c0:68:d8:81:f4:41:51:dd:70:31:5a:5f:47:
                    6a:55:a8:3e:53:9a:71:ef:8e:d4:a6:79:8f:e4:a2:
                    79:34:d7:ad:b1:07:0f:21:90:a7:ff:12:c2:9d:8f:
                    26:19:66:c5:34:15:c9:d9:3f:9a:62:9f:37:bb:79:
                    1e:9e:24:16:a6:01:28:c6:99:54:75:91:f3:c2:5a:
                    87:7d:99:9e:23:f0:e0:f2:97:50:b4:3f:99:21:e7:
                    b1:c4:87:58:5f:ba:9a:a5:4b:39:38:64:4b:ba:b8:
                    67:fe:dd:c8:96:19:8a:7d:7c:44:fe:ff:39:15:61:
                    fb:7e:fa:e7:43:18:5a:cf:96:1d:f4:ff:9d:26:68:
                    27:c8:67:80:9a:ca:a3:f5:45:5f:fa:93:6c:65:53:
                    e3:e8:84:c1:39:7c:e5:01:61:01:99:12:fd:02:5f:
                    26:27
                Exponent: 65537 (0x10001)
        X509v3 extensions:
            X509v3 Basic Constraints: critical
                CA:TRUE
            X509v3 Subject Key Identifier: 
                51:48:E1:39:42:1C:AC:B2:1D:E5:45:A1:D1:79:16:32:81:F8:FE:5E
            X509v3 Key Usage: critical
                Certificate Sign, CRL Sign
    Signature Algorithm: sha1WithRSAEncryption
         2f:65:1c:d8:d7:7d:2d:3d:a6:21:e6:18:cb:c5:2c:d1:b7:61:
         77:f6:dc:8e:c0:18:7b:55:f8:ad:09:43:47:c9:2a:c5:00:80:
         ad:9c:61:77:d2:00:27:c2:2f:af:d8:60:30:a1:e1:0c:c3:f0:
         fb:32:5d:33:be:0a:44:d7:fc:59:9e:18:58:9e:82:56:0a:84:
         64:8f:a6:15:a8:e8:7f:6e:7d:97:b0:7a:df:25:3c:98:ce:d8:
         b6:de:72:3d:d9:a5:71:53:be:a6:a1:9d:f9:6c:10:16:ef:49:
         39:5c:58:0d:b7:40:63:6e:b9:71:41:5a:66:6e:fe:89:70:7b:
         e5:6f:98:96:64:43:fe:37:90:c6:49:ba:1b:84:58:da:bc:31:
         bd:c1:cd:ee:1a:53:62:44:d1:61:99:b9:06:43:2b:d4:75:4c:
         7f:af:6e:d3:2f:44:75:95:2c:0d:65:5e:a5:e8:d5:0d:9e:89:
         cc:2c:0a:5e:96:4b:0a:95:56:bc:18:98:14:d2:6f:64:76:ff:
         e6:9e:ce:ec:66:cb:26:fa:f3:8c:a4:e6:82:fb:24:cb:4d:38:
         9d:54:7b:12:0c:15:63:c0:75:4a:aa:cd:ac:6b:3e:86:d0:ab:
         2e:9c:48:55:e2:8d:9e:b4:fa:eb:e0:7f:a1:b5:d6:4c:13:9c:
         01:5a:03:1b
-----BEGIN CERTIFICATE-----
MIIDBTCCAe2gAwIBAgIJAOkFSVDaD+48MA0GCSqGSIb3DQEBBQUAMCAxHjAcBgNV
BAMMFTIwNDggUlNBIFRlc3QgUm9vdCBDQTAeFw0xNDA4MTQwMjQ2MzBaFw0yNDA4
MTEwMjQ2MzBaMCAxHjAcBgNVBAMMFTIwNDggUlNBIFRlc3QgUm9vdCBDQTCCASIw
DQYJKoZIhvcNAQEBBQADggEPADCCAQoCggEBAJwiean4aJhB/IT78x9zD+BwNcYE
u43ASMoq8dMWO4pxd2i6wUg8dxLvTNEd2sGY3W1GULbXo/N+3Ixr0tsFu3dVv72m
8Nid/ywEHiQlwgu450KhwkKDcBbxSu/AaNiB9EFR3XAxWl9HalWoPlOace+O1KZ5
j+SieTTXrbEHDyGQp/8Swp2PJhlmxTQVydk/mmKfN7t5Hp4kFqYBKMaZVHWR88Ja
h32ZniPw4PKXULQ/mSHnscSHWF+6mqVLOThkS7q4Z/7dyJYZin18RP7/ORVh+376
50MYWs+WHfT/nSZoJ8hngJrKo/VFX/qTbGVT4+iEwTl85QFhAZkS/QJfJicCAwEA
AaNCMEAwDwYDVR0TAQH/BAUwAwEB/zAdBgNVHQ4EFgQUUUjhOUIcrLId5UWh0XkW
MoH4/l4wDgYDVR0PAQH/BAQDAgEGMA0GCSqGSIb3DQEBBQUAA4IBAQAvZRzY130t
PaYh5hjLxSzRt2F39tyOwBh7VfitCUNHySrFAICtnGF30gAnwi+v2GAwoeEMw/D7
Ml0zvgpE1/xZnhhYnoJWCoRkj6YVqOh/bn2XsHrfJTyYzti23nI92aVxU76moZ35
bBAW70k5XFgNt0BjbrlxQVpmbv6JcHvlb5iWZEP+N5DGSbobhFjavDG9wc3uGlNi
RNFhmbkGQyvUdUx/r27TL0R1lSwNZV6l6NUNnonMLApelksKlVa8GJgU0m9kdv/m
ns7sZssm+vOMpOaC+yTLTTidVHsSDBVjwHVKqs2saz6G0KsunEhV4o2etPrr4H+h
tdZME5wBWgMb
-----END CERTIFICATE-----
