-----BEGIN PRIVATE KEY-----
MIIEvgIBADANBgkqhkiG9w0BAQEFAASCBKgwggSkAgEAAoIBAQDOyfwsFGz4KjJt
FmfGaisMwi3KJcI5RWUWvll6c94BNuVv643WZGaq/Yfx8bPCvKr9T5Q/1QnkXwRW
v8eRnocK5obwTQz8l1Md8PXsl81sT982C5Lk+HDBbXNrOlS56Q1W7ggNnC7Yxe09
KHoFI/BibDgHM/qeneNFmzfUEPVm1XbUgsQmodoV3e6Ncv4UlwjJ1n+3Zy+y09OQ
MGEjsnpSWnzQkwnYJTpPi8QslnkX4AoUf4Qt+cI5QU90A9ODDTTqRdifLFOH8XD5
OXPcqGwwdAx22SpUkpp4WHyLbbjthWOBarE4pvVlM6IG8bnOaW23EXgGiJOx0j+F
PZv8UQ25AgMBAAECggEAWZd1Y/utgo91rYGpkHNrF2oBwLU/QuTn+USbK8yLgOcx
3J2npB13xdl2TsKzaUmoo3sY9dbtJD5ueM86PcL7KyPZjr8zQzSk1DITul/Cpoys
XpQBHqbs40DyYqCxGKL6HpGed5cVTOHj+T1SMGvzuBC+7Y/9oz8wunWXaI+4YsaN
KTcahUeyw3B3nGu59iy8FtIgZE+XpXw6HmIM6fFq2qL9F1yCyOev5qpMQD+WbBVp
p6GDmt02mgatrIx4hDd//OfGAeLdnlpOHbs2Dzs2BL2j+V0UbatpzCX+9U3zb526
EYm1n6AOkHIrFRGSiGs/6XcB+rKG1wFqNL2WGFfkCQKBgQD8o7krKl6bzTR0gssg
BDggFSab5f12o+lm5BB5f8ZcTASSV9+LvlFuTOqg00JWrj3W4ykapGiqy5DUb/TC
9SUnHMWN+gWAP1byoqrvlsPGRvaOkZZZ8BMFlgaTVdmSYm2jEL41DhiOco7uxeID
hbGl969Az1DYqk6l0B8eXhvmhwKBgQDRiiIw611fCaWuN9mPZC1WMzKOhddSVqFK
VX9avQ5RF0BDDze4QmCC3pBOVQ54iUyawk3anMysirD4WFbJSSZ/LyV+ChGbLNW+
C3WnCOEoGnfXYRO8Anpba4uRODQD8aFSDhOwiX9cnGhn0LK+JWUsO73ubFp232id
GJp4lnQ5vwKBgQCPMNitr4kJ82fMtakdT2bkQDiu2c8sJEEQ0SjJRHOQMoHQ1D9e
vBL5Wl0NpE+QQ5fHKN9OO2sbit9emMn4ietx3KvYCaJ+iufkA/CwdRonUmdCbR/z
f8+4Nc0qStlTT7hmWQIFniSq8CE1EjFE38zNjbHmINrowrZq4qgQlTRpFwKBgH0o
Pd3sZ7wBfiW+lEOSuYW4VOVOSluTBQnqYYRoUinbcnXbnBOCCjWBDL7NDTSwBcKW
dnwylgolWSktUsEt4UGsfn93Mib2s8CtBZw8sIgMrzJFeM0eycjbRuT5phAI/quN
XvNeXWWKws3nmSv8GB9Am+TScYJ5VPoonPOUIl3vAoGBAIopah8JtNrmpWchIO5+
z7JeELzUWelGbKOoclWOVnaC80RWYaUe9Zf+6FDifSpbEo6Muf2dGm8+uC+DmQX0
sXscgfZafFYDLIFHjvFrL3kQH06jKhcbD6s48YHlBCHVZx5SJLGbbiVOnYtPubIS
uCQfr9VlJkIUbJCn5ekytz9K
-----END PRIVATE KEY-----
Certificate:
    Data:
        Version: 3 (0x2)
        Serial Number: 2 (0x2)
    Signature Algorithm: sha256WithRSAEncryption
        Issuer: C=US, ST=California, L=Mountain View, O=Test CA, CN=Test Root CA
        Validity
            Not Before: Jan  1 00:00:00 2006 GMT
            Not After : Jan  1 00:00:00 2007 GMT
        Subject: C=US, ST=California, L=Mountain View, O=Test CA, CN=127.0.0.1
        Subject Public Key Info:
            Public Key Algorithm: rsaEncryption
                Public-Key: (2048 bit)
                Modulus:
                    00:ce:c9:fc:2c:14:6c:f8:2a:32:6d:16:67:c6:6a:
                    2b:0c:c2:2d:ca:25:c2:39:45:65:16:be:59:7a:73:
                    de:01:36:e5:6f:eb:8d:d6:64:66:aa:fd:87:f1:f1:
                    b3:c2:bc:aa:fd:4f:94:3f:d5:09:e4:5f:04:56:bf:
                    c7:91:9e:87:0a:e6:86:f0:4d:0c:fc:97:53:1d:f0:
                    f5:ec:97:cd:6c:4f:df:36:0b:92:e4:f8:70:c1:6d:
                    73:6b:3a:54:b9:e9:0d:56:ee:08:0d:9c:2e:d8:c5:
                    ed:3d:28:7a:05:23:f0:62:6c:38:07:33:fa:9e:9d:
                    e3:45:9b:37:d4:10:f5:66:d5:76:d4:82:c4:26:a1:
                    da:15:dd:ee:8d:72:fe:14:97:08:c9:d6:7f:b7:67:
                    2f:b2:d3:d3:90:30:61:23:b2:7a:52:5a:7c:d0:93:
                    09:d8:25:3a:4f:8b:c4:2c:96:79:17:e0:0a:14:7f:
                    84:2d:f9:c2:39:41:4f:74:03:d3:83:0d:34:ea:45:
                    d8:9f:2c:53:87:f1:70:f9:39:73:dc:a8:6c:30:74:
                    0c:76:d9:2a:54:92:9a:78:58:7c:8b:6d:b8:ed:85:
                    63:81:6a:b1:38:a6:f5:65:33:a2:06:f1:b9:ce:69:
                    6d:b7:11:78:06:88:93:b1:d2:3f:85:3d:9b:fc:51:
                    0d:b9
                Exponent: 65537 (0x10001)
        X509v3 extensions:
            X509v3 Basic Constraints: critical
                CA:FALSE
            X509v3 Subject Key Identifier: 
                AC:97:8A:09:35:95:6A:EB:AD:D3:05:F5:A8:58:AB:E6:58:95:3A:BD
            X509v3 Authority Key Identifier: 
                keyid:9B:26:0B:8A:98:A9:BB:1D:B9:1F:1C:E3:1A:40:33:ED:8E:17:88:AB

            X509v3 Extended Key Usage: 
                TLS Web Server Authentication, TLS Web Client Authentication
            X509v3 Subject Alternative Name: 
                IP Address:127.0.0.1
    Signature Algorithm: sha256WithRSAEncryption
         97:9c:42:d2:b4:6f:c2:fd:d1:85:72:6f:92:9e:de:07:71:e8:
         cc:6d:97:93:82:2c:0d:62:c0:4a:cd:bc:7a:55:82:08:5a:1f:
         f9:aa:4a:16:35:de:19:86:25:12:93:0f:65:56:d7:bc:d3:6b:
         f7:39:de:9e:fa:43:b1:39:b5:5b:d3:32:33:d9:6f:86:0c:f6:
         12:cc:0b:a7:27:54:36:55:ce:26:6c:e3:64:a2:b2:c6:a6:3e:
         94:16:ec:4e:c0:f3:cc:6f:54:ff:26:bf:ac:ae:0f:c3:69:a3:
         80:35:44:e3:28:9e:1b:7e:98:2c:a3:cc:ef:25:0e:25:3f:36:
         c1:92:38:25:21:bf:d4:e5:0a:51:16:85:d6:36:ef:88:1a:56:
         2b:71:7c:88:50:c8:99:08:e2:a4:f0:50:12:c7:5f:6b:e8:01:
         e8:26:06:a3:24:d0:3c:67:9e:88:96:fa:b2:26:47:08:93:94:
         74:f9:97:0f:c2:28:85:97:e1:dc:f3:1b:66:f1:71:d7:65:4e:
         34:d1:fa:56:84:be:a3:a9:8e:11:a1:03:fe:14:b8:a6:7f:ee:
         53:ce:e9:72:57:d8:3d:2d:54:0c:5a:80:1d:6a:4a:16:ab:fe:
         2b:07:05:cf:c5:a9:10:38:83:32:b5:bb:7c:81:39:a4:16:1a:
         0e:c5:1d:92
-----BEGIN CERTIFICATE-----
MIIDvzCCAqegAwIBAgIBAjANBgkqhkiG9w0BAQsFADBjMQswCQYDVQQGEwJVUzET
MBEGA1UECAwKQ2FsaWZvcm5pYTEWMBQGA1UEBwwNTW91bnRhaW4gVmlldzEQMA4G
A1UECgwHVGVzdCBDQTEVMBMGA1UEAwwMVGVzdCBSb290IENBMB4XDTA2MDEwMTAw
MDAwMFoXDTA3MDEwMTAwMDAwMFowYDELMAkGA1UEBhMCVVMxEzARBgNVBAgMCkNh
bGlmb3JuaWExFjAUBgNVBAcMDU1vdW50YWluIFZpZXcxEDAOBgNVBAoMB1Rlc3Qg
Q0ExEjAQBgNVBAMMCTEyNy4wLjAuMTCCASIwDQYJKoZIhvcNAQEBBQADggEPADCC
AQoCggEBAM7J/CwUbPgqMm0WZ8ZqKwzCLcolwjlFZRa+WXpz3gE25W/rjdZkZqr9
h/Hxs8K8qv1PlD/VCeRfBFa/x5GehwrmhvBNDPyXUx3w9eyXzWxP3zYLkuT4cMFt
c2s6VLnpDVbuCA2cLtjF7T0oegUj8GJsOAcz+p6d40WbN9QQ9WbVdtSCxCah2hXd
7o1y/hSXCMnWf7dnL7LT05AwYSOyelJafNCTCdglOk+LxCyWeRfgChR/hC35wjlB
T3QD04MNNOpF2J8sU4fxcPk5c9yobDB0DHbZKlSSmnhYfIttuO2FY4FqsTim9WUz
ogbxuc5pbbcReAaIk7HSP4U9m/xRDbkCAwEAAaOBgDB+MAwGA1UdEwEB/wQCMAAw
HQYDVR0OBBYEFKyXigk1lWrrrdMF9ahYq+ZYlTq9MB8GA1UdIwQYMBaAFJsmC4qY
qbsduR8c4xpAM+2OF4irMB0GA1UdJQQWMBQGCCsGAQUFBwMBBggrBgEFBQcDAjAP
BgNVHREECDAGhwR/AAABMA0GCSqGSIb3DQEBCwUAA4IBAQCXnELStG/C/dGFcm+S
nt4HcejMbZeTgiwNYsBKzbx6VYIIWh/5qkoWNd4ZhiUSkw9lVte802v3Od6e+kOx
ObVb0zIz2W+GDPYSzAunJ1Q2Vc4mbONkorLGpj6UFuxOwPPMb1T/Jr+srg/DaaOA
NUTjKJ4bfpgso8zvJQ4lPzbBkjglIb/U5QpRFoXWNu+IGlYrcXyIUMiZCOKk8FAS
x19r6AHoJgajJNA8Z56IlvqyJkcIk5R0+ZcPwiiFl+Hc8xtm8XHXZU400fpWhL6j
qY4RoQP+FLimf+5TzulyV9g9LVQMWoAdakoWq/4rBwXPxakQOIMytbt8gTmkFhoO
xR2S
-----END CERTIFICATE-----
