Certificate:
    Data:
        Version: 3 (0x2)
        Serial Number: 1 (0x1)
    Signature Algorithm: sha256WithRSAEncryption
        Issuer: CN=Policy Test Intermediate CA
        Validity
            Not Before: Feb 28 23:52:34 2017 GMT
            Not After : Feb 26 23:52:34 2027 GMT
        Subject: CN=policy_test.example
        Subject Public Key Info:
            Public Key Algorithm: rsaEncryption
                Public-Key: (2048 bit)
                Modulus:
                    00:b3:2a:fe:85:4f:88:af:bb:62:62:b7:03:a7:c4:
                    d7:29:37:d6:73:31:22:93:d1:5f:33:f6:8f:bf:33:
                    00:a6:ae:72:da:cb:3d:86:3b:f8:22:29:32:a7:4f:
                    aa:21:fd:43:47:83:18:96:c2:5c:76:f2:9a:6a:e1:
                    49:84:22:1f:a7:d6:d6:a9:ce:d5:06:17:e3:67:65:
                    1b:9a:05:38:2b:ee:e5:7b:ed:4e:69:b8:13:78:bc:
                    41:b5:19:30:6a:13:d7:94:a9:d6:63:96:54:fb:61:
                    a6:64:3a:ec:2a:83:27:c7:85:6d:57:1b:0a:67:aa:
                    a2:ac:56:ef:24:24:62:df:46:4d:cc:75:25:db:19:
                    7c:75:29:41:cc:88:c1:4d:a8:cc:ec:d5:23:a0:34:
                    e7:96:57:6a:92:f8:34:ce:26:0c:41:29:99:be:54:
                    db:d9:6f:45:5d:f7:f2:6d:c2:8b:fe:e6:4a:29:4f:
                    74:8b:70:d5:8f:7f:64:b7:70:c6:2c:5a:01:d5:1d:
                    6b:bb:ad:9f:3f:44:33:fe:dc:60:9a:79:a6:dc:ac:
                    fb:79:f9:b5:f0:7f:e0:ea:96:e5:1a:bf:24:3c:e4:
                    4f:55:3c:64:c0:d2:28:ee:b3:8d:c4:9b:a4:63:60:
                    eb:ca:28:54:7e:d1:61:e9:cb:f6:14:d1:77:f5:f3:
                    aa:89
                Exponent: 65537 (0x10001)
        X509v3 extensions:
            X509v3 Basic Constraints: critical
                CA:FALSE
            X509v3 Extended Key Usage: 
                TLS Web Server Authentication, TLS Web Client Authentication
            X509v3 Certificate Policies: 
                Policy: 1.2.3.4

            X509v3 Subject Alternative Name: 
                DNS:policy_test.example
    Signature Algorithm: sha256WithRSAEncryption
         c4:94:39:60:06:55:5d:2e:af:55:e2:ab:e5:b5:fc:96:fd:24:
         c2:08:80:fd:55:e4:d1:5c:c8:44:d2:9f:0c:0f:1a:47:2f:da:
         33:f9:1b:11:aa:27:1c:81:e0:ba:0e:77:26:97:08:6b:80:2e:
         81:d6:e2:37:22:33:75:31:33:41:0e:40:1a:bd:b7:8a:3e:95:
         b6:d4:1f:bf:30:ae:75:e5:45:32:85:67:33:56:c1:42:30:7f:
         bf:9c:ad:bc:69:91:a9:71:f9:96:1e:85:b9:7b:ea:45:ee:85:
         1a:50:8e:05:04:69:fc:86:2b:52:54:9b:5e:f6:a0:8f:49:0d:
         f9:d0:63:94:4e:04:e3:eb:fb:47:17:79:76:00:0c:d1:da:2c:
         1e:8c:11:04:92:9b:01:a5:38:fb:3f:8b:7f:27:04:07:af:40:
         8b:f3:62:e0:7e:d2:37:e5:ea:ef:98:ef:92:d7:06:59:ee:e5:
         83:e0:f5:4a:9a:9e:cf:38:11:e1:f8:f3:9d:3d:21:4c:ea:6b:
         34:44:e1:2c:5e:eb:0e:cd:77:8a:5a:a8:40:f9:03:ff:f4:47:
         a7:f8:1d:d0:43:38:b6:06:c2:67:2a:42:92:44:ad:6d:c9:e7:
         d0:60:89:82:21:fc:c5:ea:e6:21:94:26:a3:76:02:05:c5:4c:
         34:d3:5f:2d
-----BEGIN CERTIFICATE-----
MIIDIDCCAgigAwIBAgIBATANBgkqhkiG9w0BAQsFADAmMSQwIgYDVQQDDBtQb2xp
Y3kgVGVzdCBJbnRlcm1lZGlhdGUgQ0EwHhcNMTcwMjI4MjM1MjM0WhcNMjcwMjI2
MjM1MjM0WjAeMRwwGgYDVQQDDBNwb2xpY3lfdGVzdC5leGFtcGxlMIIBIjANBgkq
hkiG9w0BAQEFAAOCAQ8AMIIBCgKCAQEAsyr+hU+Ir7tiYrcDp8TXKTfWczEik9Ff
M/aPvzMApq5y2ss9hjv4Iikyp0+qIf1DR4MYlsJcdvKaauFJhCIfp9bWqc7VBhfj
Z2UbmgU4K+7le+1OabgTeLxBtRkwahPXlKnWY5ZU+2GmZDrsKoMnx4VtVxsKZ6qi
rFbvJCRi30ZNzHUl2xl8dSlBzIjBTajM7NUjoDTnlldqkvg0ziYMQSmZvlTb2W9F
XffybcKL/uZKKU90i3DVj39kt3DGLFoB1R1ru62fP0Qz/txgmnmm3Kz7efm18H/g
6pblGr8kPORPVTxkwNIo7rONxJukY2DryihUftFh6cv2FNF39fOqiQIDAQABo2Ew
XzAMBgNVHRMBAf8EAjAAMB0GA1UdJQQWMBQGCCsGAQUFBwMBBggrBgEFBQcDAjAQ
BgNVHSAECTAHMAUGAyoDBDAeBgNVHREEFzAVghNwb2xpY3lfdGVzdC5leGFtcGxl
MA0GCSqGSIb3DQEBCwUAA4IBAQDElDlgBlVdLq9V4qvltfyW/STCCID9VeTRXMhE
0p8MDxpHL9oz+RsRqiccgeC6DncmlwhrgC6B1uI3IjN1MTNBDkAavbeKPpW21B+/
MK515UUyhWczVsFCMH+/nK28aZGpcfmWHoW5e+pF7oUaUI4FBGn8hitSVJte9qCP
SQ350GOUTgTj6/tHF3l2AAzR2iwejBEEkpsBpTj7P4t/JwQHr0CL82LgftI35erv
mO+S1wZZ7uWD4PVKmp7POBHh+POdPSFM6ms0ROEsXusOzXeKWqhA+QP/9Een+B3Q
Qzi2BsJnKkKSRK1tyefQYImCIfzF6uYhlCajdgIFxUw0018t
-----END CERTIFICATE-----
Certificate:
    Data:
        Version: 3 (0x2)
        Serial Number: 1 (0x1)
    Signature Algorithm: sha256WithRSAEncryption
        Issuer: CN=Policy Test Root CA
        Validity
            Not Before: Feb 28 23:52:34 2017 GMT
            Not After : Feb 26 23:52:34 2027 GMT
        Subject: CN=Policy Test Intermediate CA
        Subject Public Key Info:
            Public Key Algorithm: rsaEncryption
                Public-Key: (2048 bit)
                Modulus:
                    00:c9:2b:9e:41:e1:bd:db:2c:15:20:25:6b:02:2f:
                    9d:f5:10:12:22:2e:c4:93:ee:99:1c:92:50:02:d4:
                    70:49:cc:bf:92:54:e0:04:5a:52:d8:c9:5e:74:1a:
                    74:57:22:20:7a:8e:d8:bc:d2:02:bb:85:ec:9b:6b:
                    80:51:d2:a4:47:6e:f6:fb:16:e2:d8:7b:58:5e:e5:
                    22:62:68:e9:c9:f6:ff:0a:f9:ca:65:da:12:da:24:
                    55:de:43:ef:51:54:d2:ac:db:ec:d6:13:5b:29:e1:
                    6e:66:a1:71:f0:88:9b:23:d6:e1:79:aa:b6:76:7d:
                    63:f6:19:63:14:5e:db:9f:28:1d:07:92:db:69:8f:
                    fb:d5:4c:de:eb:3a:8b:df:5c:77:26:5e:f4:3f:a2:
                    ed:19:ad:76:f0:8c:71:9c:cd:d7:c6:0c:95:6a:9b:
                    ec:4a:e0:50:68:61:19:17:44:09:6c:93:22:03:4a:
                    f6:e9:4c:ca:88:4d:cd:e1:a6:20:8c:a6:dc:43:f7:
                    c3:4c:61:89:2d:db:12:74:57:00:8a:a6:e2:0e:1a:
                    1b:93:12:f9:63:b5:01:12:07:a1:b4:4a:2a:7f:8d:
                    c8:ab:25:fb:0a:cd:ed:18:ba:32:94:50:b9:6d:3c:
                    f2:67:45:61:73:84:25:0d:43:86:78:b9:11:e9:51:
                    e7:95
                Exponent: 65537 (0x10001)
        X509v3 extensions:
            X509v3 Basic Constraints: critical
                CA:TRUE
            X509v3 Key Usage: critical
                Digital Signature, Certificate Sign, CRL Sign
            X509v3 Policy Constraints: 
                Require Explicit Policy:0
            X509v3 Certificate Policies: 
                Policy: 1.2.3.4
                Policy: 1.2.3.4.5
                Policy: 1.2.3.5

    Signature Algorithm: sha256WithRSAEncryption
         67:fd:e1:e8:91:20:ed:e6:f6:b3:41:27:07:b8:cc:55:ea:90:
         7e:cc:11:6a:e9:02:24:95:86:8d:68:72:50:a3:d5:9c:bd:34:
         78:3b:65:73:78:5c:9a:b6:da:5f:78:01:65:ed:da:5d:fe:fb:
         cb:ef:a4:22:75:c0:cb:3b:c8:e0:ca:91:08:4d:f4:d9:cf:73:
         16:09:e9:cc:09:96:6f:97:a6:4f:cb:72:c9:5d:ea:3b:21:bf:
         e2:0e:18:ac:97:51:b1:81:02:1f:f5:a6:26:25:76:2b:8c:c7:
         2c:66:be:03:b2:de:5a:6f:c6:bb:44:9f:b2:1a:75:76:4f:bb:
         d0:2a:67:e3:51:69:9d:1d:6f:0a:8c:f1:d9:1d:16:aa:c3:7d:
         b8:38:fa:a1:90:2b:15:dc:81:b2:80:66:6e:b6:69:83:03:88:
         c6:2e:03:2a:ea:9c:5e:ea:98:9c:b3:93:21:d8:f9:6d:2e:ec:
         40:d3:bf:f5:53:69:b0:0f:4d:d9:6b:6c:ac:bc:f8:e8:12:13:
         d1:58:16:0a:7f:13:14:31:72:69:90:d3:2f:d1:2e:d0:b2:f7:
         14:c9:4f:0c:d8:95:21:9f:9d:b8:4d:ae:80:75:3c:92:f9:a7:
         5a:4a:1c:6c:b2:19:a5:e6:1a:7b:a6:5d:c3:e9:a9:ae:c9:2e:
         7a:8b:a3:6c
-----BEGIN CERTIFICATE-----
MIIDETCCAfmgAwIBAgIBATANBgkqhkiG9w0BAQsFADAeMRwwGgYDVQQDDBNQb2xp
Y3kgVGVzdCBSb290IENBMB4XDTE3MDIyODIzNTIzNFoXDTI3MDIyNjIzNTIzNFow
JjEkMCIGA1UEAwwbUG9saWN5IFRlc3QgSW50ZXJtZWRpYXRlIENBMIIBIjANBgkq
hkiG9w0BAQEFAAOCAQ8AMIIBCgKCAQEAySueQeG92ywVICVrAi+d9RASIi7Ek+6Z
HJJQAtRwScy/klTgBFpS2MledBp0VyIgeo7YvNICu4Xsm2uAUdKkR272+xbi2HtY
XuUiYmjpyfb/CvnKZdoS2iRV3kPvUVTSrNvs1hNbKeFuZqFx8IibI9bheaq2dn1j
9hljFF7bnygdB5LbaY/71Uze6zqL31x3Jl70P6LtGa128IxxnM3XxgyVapvsSuBQ
aGEZF0QJbJMiA0r26UzKiE3N4aYgjKbcQ/fDTGGJLdsSdFcAiqbiDhobkxL5Y7UB
EgehtEoqf43IqyX7Cs3tGLoylFC5bTzyZ0Vhc4QlDUOGeLkR6VHnlQIDAQABo1Iw
UDAPBgNVHRMBAf8EBTADAQH/MA4GA1UdDwEB/wQEAwIBhjAMBgNVHSQEBTADgAEA
MB8GA1UdIAQYMBYwBQYDKgMEMAYGBCoDBAUwBQYDKgMFMA0GCSqGSIb3DQEBCwUA
A4IBAQBn/eHokSDt5vazQScHuMxV6pB+zBFq6QIklYaNaHJQo9WcvTR4O2VzeFya
ttpfeAFl7dpd/vvL76QidcDLO8jgypEITfTZz3MWCenMCZZvl6ZPy3LJXeo7Ib/i
Dhisl1GxgQIf9aYmJXYrjMcsZr4Dst5ab8a7RJ+yGnV2T7vQKmfjUWmdHW8KjPHZ
HRaqw324OPqhkCsV3IGygGZutmmDA4jGLgMq6pxe6pics5Mh2PltLuxA07/1U2mw
D03Za2ysvPjoEhPRWBYKfxMUMXJpkNMv0S7QsvcUyU8M2JUhn524Ta6AdTyS+ada
Shxsshml5hp7pl3D6amuyS56i6Ns
-----END CERTIFICATE-----
Certificate:
    Data:
        Version: 3 (0x2)
        Serial Number: 14437560522667520790 (0xc85c84cd48ccf316)
    Signature Algorithm: sha256WithRSAEncryption
        Issuer: CN=Policy Test Root CA
        Validity
            Not Before: Feb 28 23:52:34 2017 GMT
            Not After : Feb 26 23:52:34 2027 GMT
        Subject: CN=Policy Test Root CA
        Subject Public Key Info:
            Public Key Algorithm: rsaEncryption
                Public-Key: (2048 bit)
                Modulus:
                    00:a0:e3:a7:af:b8:fa:3b:ee:47:d2:5a:ad:21:a2:
                    71:42:4e:a6:a3:c7:82:94:b9:32:3c:6d:14:39:67:
                    19:65:64:1f:8b:b5:c4:6d:88:12:2c:85:e2:ef:97:
                    04:f5:9f:ee:13:65:a7:f5:86:c7:5b:20:1d:fe:47:
                    71:a7:ab:04:69:52:0f:ea:6c:42:58:7b:89:32:49:
                    54:14:da:d3:ad:ef:b8:7a:cc:8c:7f:16:0e:2a:b6:
                    0e:7b:df:a5:ee:26:ff:b0:c9:6b:65:6e:15:02:b5:
                    f4:4f:e5:6a:e1:b8:45:63:55:f9:61:0d:f6:27:cf:
                    f3:10:ae:4a:0a:57:25:5c:de:b1:c5:8e:b2:bc:f1:
                    b9:f2:99:c4:27:1d:53:0b:2b:7c:2a:fd:fc:73:7e:
                    f4:ad:44:bc:8b:47:23:bd:c1:54:f3:ed:0b:ee:53:
                    a7:9c:50:bd:32:0a:67:e2:b6:04:3e:c8:5e:da:fb:
                    ab:7c:5c:c9:68:3c:5a:f2:c6:5e:b9:22:38:f3:10:
                    b4:2d:e2:87:12:3a:4a:53:54:6b:92:e6:f1:eb:ba:
                    47:b8:f1:80:3e:2c:2f:87:13:1e:dc:09:bc:a4:0c:
                    4f:e2:df:db:53:e0:af:5d:34:b1:39:06:7f:8a:7b:
                    12:e8:6c:01:e7:ce:d7:b7:a6:ac:3d:b7:ba:af:3f:
                    46:93
                Exponent: 65537 (0x10001)
        X509v3 extensions:
            X509v3 Basic Constraints: critical
                CA:TRUE
            X509v3 Key Usage: critical
                Digital Signature, Certificate Sign, CRL Sign
    Signature Algorithm: sha256WithRSAEncryption
         6c:7f:d4:57:18:85:22:1d:87:15:45:3a:16:0d:df:06:3e:9c:
         ed:1d:99:7b:78:75:90:5c:8f:d2:38:58:46:3e:2b:d2:69:bc:
         ba:dd:13:7a:96:15:1f:af:3f:e0:a7:b1:3f:5c:f5:ab:af:ac:
         65:a0:c3:e3:6b:70:25:53:57:46:3d:f6:c0:78:dc:1f:4c:d2:
         03:42:d4:32:d0:cd:16:38:06:d1:89:1a:c4:37:2c:15:d9:6b:
         c2:0e:8d:55:3a:a1:57:99:c7:57:18:d4:c5:13:ca:f7:25:92:
         85:bc:5d:bb:20:8f:ee:52:8c:6e:61:aa:22:3e:37:a1:71:d9:
         59:e3:e6:5c:de:71:f8:2a:e8:05:f5:b0:ca:40:9d:6a:24:87:
         9f:48:69:26:65:ef:ad:6a:fd:2f:b2:38:36:f5:1a:5b:f1:5a:
         ec:35:7a:a5:08:f7:c8:b7:78:90:e2:b9:32:24:6c:e8:cc:b0:
         57:9e:ab:a7:06:22:c5:0e:cf:22:73:2f:dc:c7:30:eb:83:5d:
         81:a4:00:ab:a0:01:3b:ce:7f:d9:c3:cc:28:fc:6b:74:cc:be:
         62:d2:25:b8:a8:3b:c4:15:c4:bb:71:79:4f:df:7d:73:45:e6:
         16:a4:41:1a:b5:3c:27:61:62:cf:86:1c:6e:d1:4b:f6:49:0a:
         bd:3f:15:d0
-----BEGIN CERTIFICATE-----
MIIC4jCCAcqgAwIBAgIJAMhchM1IzPMWMA0GCSqGSIb3DQEBCwUAMB4xHDAaBgNV
BAMME1BvbGljeSBUZXN0IFJvb3QgQ0EwHhcNMTcwMjI4MjM1MjM0WhcNMjcwMjI2
MjM1MjM0WjAeMRwwGgYDVQQDDBNQb2xpY3kgVGVzdCBSb290IENBMIIBIjANBgkq
hkiG9w0BAQEFAAOCAQ8AMIIBCgKCAQEAoOOnr7j6O+5H0lqtIaJxQk6mo8eClLky
PG0UOWcZZWQfi7XEbYgSLIXi75cE9Z/uE2Wn9YbHWyAd/kdxp6sEaVIP6mxCWHuJ
MklUFNrTre+4esyMfxYOKrYOe9+l7ib/sMlrZW4VArX0T+Vq4bhFY1X5YQ32J8/z
EK5KClclXN6xxY6yvPG58pnEJx1TCyt8Kv38c370rUS8i0cjvcFU8+0L7lOnnFC9
Mgpn4rYEPshe2vurfFzJaDxa8sZeuSI48xC0LeKHEjpKU1Rrkubx67pHuPGAPiwv
hxMe3Am8pAxP4t/bU+CvXTSxOQZ/insS6GwB587Xt6asPbe6rz9GkwIDAQABoyMw
ITAPBgNVHRMBAf8EBTADAQH/MA4GA1UdDwEB/wQEAwIBhjANBgkqhkiG9w0BAQsF
AAOCAQEAbH/UVxiFIh2HFUU6Fg3fBj6c7R2Ze3h1kFyP0jhYRj4r0mm8ut0TepYV
H68/4KexP1z1q6+sZaDD42twJVNXRj32wHjcH0zSA0LUMtDNFjgG0YkaxDcsFdlr
wg6NVTqhV5nHVxjUxRPK9yWShbxduyCP7lKMbmGqIj43oXHZWePmXN5x+CroBfWw
ykCdaiSHn0hpJmXvrWr9L7I4NvUaW/Fa7DV6pQj3yLd4kOK5MiRs6MywV56rpwYi
xQ7PInMv3Mcw64NdgaQAq6ABO85/2cPMKPxrdMy+YtIluKg7xBXEu3F5T999c0Xm
FqRBGrU8J2Fiz4YcbtFL9kkKvT8V0A==
-----END CERTIFICATE-----
