Certificate:
    Data:
        Version: 3 (0x2)
        Serial Number:
            26:7d:5c:d0:b8:c6:95:c9:f8:e7:72:ec:4b:57:78:c0
    Signature Algorithm: sha256WithRSAEncryption
        Issuer: C=US, O=Symantec Corporation, OU=Symantec Trust Network, CN=Symantec Class 3 EV SSL CA - G3
        Validity
            Not Before: Nov 30 00:00:00 2017 GMT
            Not After : Dec 30 23:59:59 2019 GMT
        Subject: 1.3.6.1.4.1.311.60.2.1.3=MY/businessCategory=Private Organization/serialNumber=97141-X, C=MY, ST=Wilayah Persekutuan, L=Kuala Lumpur, O=Hong Leong Bank Berhad, OU=Information Services Department, CN=gms.hongleong.com.my
        Subject Public Key Info:
            Public Key Algorithm: rsaEncryption
                Public-Key: (2048 bit)
                Modulus:
                    00:cf:52:1e:d0:bc:db:7e:f9:cb:59:0d:6e:5a:78:
                    b1:97:a3:3f:b0:db:8f:ea:d0:57:b0:04:eb:f8:bf:
                    fb:96:bf:56:73:d5:06:fa:1c:64:51:57:b9:39:df:
                    db:13:d8:6a:55:20:9e:49:f0:ab:f8:d9:19:c0:46:
                    a7:2f:59:b8:04:2f:04:f3:f3:00:16:84:a6:33:02:
                    f5:f9:49:65:38:03:bf:21:66:1b:3f:aa:57:bf:03:
                    e4:99:12:2e:73:62:a8:75:9e:5a:d8:8e:2b:50:3f:
                    1b:50:f8:3d:79:8f:41:ea:d4:a9:55:d9:11:e0:f3:
                    bc:d6:03:b6:2e:95:68:9c:17:7d:51:78:aa:65:b2:
                    fa:01:c0:9b:90:87:d9:1a:68:d8:09:12:85:37:e6:
                    4b:fe:fd:d5:6c:ab:8b:cd:ea:24:54:4c:a7:1f:6d:
                    95:32:a8:30:16:39:a9:38:ee:14:ff:73:23:6a:d1:
                    93:c5:7f:55:f3:17:c4:75:bc:f9:be:72:be:c1:35:
                    05:8f:eb:4a:3d:4b:93:b5:d3:c1:b5:bc:17:8c:9b:
                    15:e8:12:e5:e7:79:b0:b9:43:d8:7e:9b:ca:94:6e:
                    63:83:0e:98:16:9a:cf:c2:7b:5a:14:eb:c4:89:91:
                    67:c1:03:2d:65:da:c4:25:3f:b4:b2:84:f6:18:d0:
                    ce:35
                Exponent: 65537 (0x10001)
        X509v3 extensions:
            X509v3 Subject Alternative Name: 
                DNS:gms.hongleong.com.my
            X509v3 Basic Constraints: 
                CA:FALSE
            X509v3 Key Usage: critical
                Digital Signature, Key Encipherment
            X509v3 CRL Distribution Points: 

                Full Name:
                  URI:http://sr.symcb.com/sr.crl

            X509v3 Certificate Policies: 
                Policy: 2.16.840.1.113733.1.7.23.6
                  CPS: https://d.symcb.com/cps
                  User Notice:
                    Explicit Text: https://d.symcb.com/rpa
                Policy: 2.23.140.1.1

            X509v3 Extended Key Usage: 
                TLS Web Server Authentication, TLS Web Client Authentication
            X509v3 Authority Key Identifier: 
                keyid:01:59:AB:E7:DD:3A:0B:59:A6:64:63:D6:CF:20:07:57:D5:91:E7:6A

            Authority Information Access: 
                OCSP - URI:http://sr.symcd.com
                CA Issuers - URI:http://sr.symcb.com/sr.crt

            1.3.6.1.4.1.11129.2.4.2: 
                ...j.h.v....+zO. ....hp~.....\..=..........`.".......G0E. O&............,e.......\~\....i..!....j5..S...u.iQNn..XF..O...tO.Y=.v.......X......gp
<5.......w........`.".......G0E. ."0`.0.U.m..kYs.H..y3,qN.........!.....WW...M.C.S.....}.w..n..[.....v..K..u.`..Bi....f..~_.r....{.z......`.".'.....G0E.!......uJ..QZ..W.i........5......P. b&...%GS...a..P.S.....Y........8
    Signature Algorithm: sha256WithRSAEncryption
         26:05:7a:7b:b9:d5:91:c0:d6:36:64:49:43:fa:e7:be:d7:2a:
         6b:d9:d2:e0:e6:62:92:3a:3e:81:b8:be:dd:d5:3c:45:81:e4:
         ed:a6:11:73:78:27:78:dc:87:c9:68:6b:ac:4b:32:51:ef:7c:
         17:93:49:54:93:b5:e2:60:98:9e:28:08:68:86:8a:d8:13:47:
         14:fe:67:f5:10:f8:12:34:ee:ab:57:74:fc:ac:ef:ea:dd:da:
         2b:8f:7c:b4:3b:a7:98:6e:fa:0a:b8:b4:97:0a:a4:0d:f9:a9:
         ac:54:c3:00:09:89:ab:86:1f:51:29:e5:bd:89:ad:36:63:a1:
         54:8f:82:52:5c:a3:fe:b5:3e:91:c5:75:01:86:aa:36:33:0a:
         6c:a1:5b:9b:6b:6a:83:33:51:1e:f8:4e:e8:49:fb:b8:43:27:
         e9:1d:71:aa:91:dd:79:5a:3d:b2:e8:9b:36:a1:6a:e3:12:64:
         53:4a:6e:7b:68:04:1b:16:35:41:76:f2:35:c9:b1:59:e7:d2:
         62:da:0c:88:43:47:ba:b8:65:59:ee:f7:e4:51:c8:00:e6:a3:
         f3:1b:9c:6b:e8:ed:5b:2c:44:4b:c7:f4:df:c3:84:51:3a:61:
         6a:83:47:76:95:ea:02:40:69:2e:a1:3c:dd:48:f5:2a:f2:5d:
         ab:8f:0a:03
-----BEGIN CERTIFICATE-----
MIIG7zCCBdegAwIBAgIQJn1c0LjGlcn453LsS1d4wDANBgkqhkiG9w0BAQsFADB3
MQswCQYDVQQGEwJVUzEdMBsGA1UEChMUU3ltYW50ZWMgQ29ycG9yYXRpb24xHzAd
BgNVBAsTFlN5bWFudGVjIFRydXN0IE5ldHdvcmsxKDAmBgNVBAMTH1N5bWFudGVj
IENsYXNzIDMgRVYgU1NMIENBIC0gRzMwHhcNMTcxMTMwMDAwMDAwWhcNMTkxMjMw
MjM1OTU5WjCB8jETMBEGCysGAQQBgjc8AgEDEwJNWTEdMBsGA1UEDxMUUHJpdmF0
ZSBPcmdhbml6YXRpb24xEDAOBgNVBAUTBzk3MTQxLVgxCzAJBgNVBAYTAk1ZMRww
GgYDVQQIDBNXaWxheWFoIFBlcnNla3V0dWFuMRUwEwYDVQQHDAxLdWFsYSBMdW1w
dXIxHzAdBgNVBAoMFkhvbmcgTGVvbmcgQmFuayBCZXJoYWQxKDAmBgNVBAsMH0lu
Zm9ybWF0aW9uIFNlcnZpY2VzIERlcGFydG1lbnQxHTAbBgNVBAMMFGdtcy5ob25n
bGVvbmcuY29tLm15MIIBIjANBgkqhkiG9w0BAQEFAAOCAQ8AMIIBCgKCAQEAz1Ie
0LzbfvnLWQ1uWnixl6M/sNuP6tBXsATr+L/7lr9Wc9UG+hxkUVe5Od/bE9hqVSCe
SfCr+NkZwEanL1m4BC8E8/MAFoSmMwL1+UllOAO/IWYbP6pXvwPkmRIuc2KodZ5a
2I4rUD8bUPg9eY9B6tSpVdkR4PO81gO2LpVonBd9UXiqZbL6AcCbkIfZGmjYCRKF
N+ZL/v3VbKuLzeokVEynH22VMqgwFjmpOO4U/3MjatGTxX9V8xfEdbz5vnK+wTUF
j+tKPUuTtdPBtbwXjJsV6BLl53mwuUPYfpvKlG5jgw6YFprPwntaFOvEiZFnwQMt
ZdrEJT+0soT2GNDONQIDAQABo4IC+TCCAvUwHwYDVR0RBBgwFoIUZ21zLmhvbmds
ZW9uZy5jb20ubXkwCQYDVR0TBAIwADAOBgNVHQ8BAf8EBAMCBaAwKwYDVR0fBCQw
IjAgoB6gHIYaaHR0cDovL3NyLnN5bWNiLmNvbS9zci5jcmwwbwYDVR0gBGgwZjBb
BgtghkgBhvhFAQcXBjBMMCMGCCsGAQUFBwIBFhdodHRwczovL2Quc3ltY2IuY29t
L2NwczAlBggrBgEFBQcCAjAZDBdodHRwczovL2Quc3ltY2IuY29tL3JwYTAHBgVn
gQwBATAdBgNVHSUEFjAUBggrBgEFBQcDAQYIKwYBBQUHAwIwHwYDVR0jBBgwFoAU
AVmr5906C1mmZGPWzyAHV9WR52owVwYIKwYBBQUHAQEESzBJMB8GCCsGAQUFBzAB
hhNodHRwOi8vc3Iuc3ltY2QuY29tMCYGCCsGAQUFBzAChhpodHRwOi8vc3Iuc3lt
Y2IuY29tL3NyLmNydDCCAX4GCisGAQQB1nkCBAIEggFuBIIBagFoAHYA3esdK3oN
T6Ygi4GtgWhwfi6OnQHVXIiNPRHEzbbsvswAAAFgCyKd4wAABAMARzBFAiBPJtWt
8QsM9dLa+KSNwyxlsRrGo7/RoFx+XOSDFNFpkwIhAObTHGo1Ep5ToxWHdQNpUU5u
BehYRhrETxalqHRPhVk9AHYApLkJkLQYWBSHuxOizGdwCjw1mAT5G9+443fNDsgN
3BAAAAFgCyKd+wAABAMARzBFAiAGIjBg4zDsVcVt5o1rWXO8SAKOeTMscU74qQCh
5AX6EQIhALq2ue5XVwSH+k0UQ+RTH7v0t9h92ncM4m6JEVsSFtilAHYA7ku9t3XO
YLrhQmkfq+GeZqMPfl+wctiDAMR7iXqo/csAAAFgCyKeJwAABAMARzBFAiEAjK2a
hbR1SujVUVrm0VfAafa0ENOC2wmqNdS20fGtCFACIGImo/iDJUdTBI+mYfG5UKlT
k+SP/hFZ5hHFz6kCg/c4MA0GCSqGSIb3DQEBCwUAA4IBAQAmBXp7udWRwNY2ZElD
+ue+1ypr2dLg5mKSOj6BuL7d1TxFgeTtphFzeCd43IfJaGusSzJR73wXk0lUk7Xi
YJieKAhohorYE0cU/mf1EPgSNO6rV3T8rO/q3dorj3y0O6eYbvoKuLSXCqQN+ams
VMMACYmrhh9RKeW9ia02Y6FUj4JSXKP+tT6RxXUBhqo2MwpsoVuba2qDM1Ee+E7o
Sfu4QyfpHXGqkd15Wj2y6Js2oWrjEmRTSm57aAQbFjVBdvI1ybFZ59Ji2gyIQ0e6
uGVZ7vfkUcgA5qPzG5xr6O1bLERLx/Tfw4RROmFqg0d2leoCQGkuoTzdSPUq8l2r
jwoD
-----END CERTIFICATE-----
Certificate:
    Data:
        Version: 3 (0x2)
        Serial Number:
            7e:e1:4a:6f:6f:ef:f2:d3:7f:3f:ad:65:4d:3a:da:b4
        Signature Algorithm: sha256WithRSAEncryption
        Issuer: C=US, O=VeriSign, Inc., OU=VeriSign Trust Network, OU=(c) 2006 VeriSign, Inc. - For authorized use only, CN=VeriSign Class 3 Public Primary Certification Authority - G5
        Validity
            Not Before: Oct 31 00:00:00 2013 GMT
            Not After : Oct 30 23:59:59 2023 GMT
        Subject: C=US, O=Symantec Corporation, OU=Symantec Trust Network, CN=Symantec Class 3 EV SSL CA - G3
        Subject Public Key Info:
            Public Key Algorithm: rsaEncryption
            RSA Public Key: (2048 bit)
                Modulus (2048 bit):
                    00:d8:a1:65:74:23:e8:2b:64:e2:32:d7:33:37:3d:
                    8e:f5:34:16:48:dd:4f:7f:87:1c:f8:44:23:13:8e:
                    fb:11:d8:44:5a:18:71:8e:60:16:26:92:9b:fd:17:
                    0b:e1:71:70:42:fe:bf:fa:1c:c0:aa:a3:a7:b5:71:
                    e8:ff:18:83:f6:df:10:0a:13:62:c8:3d:9c:a7:de:
                    2e:3f:0c:d9:1d:e7:2e:fb:2a:ce:c8:9a:7f:87:bf:
                    d8:4c:04:15:32:c9:d1:cc:95:71:a0:4e:28:4f:84:
                    d9:35:fb:e3:86:6f:94:53:e6:72:8a:63:67:2e:be:
                    69:f6:f7:6e:8e:9c:60:04:eb:29:fa:c4:47:42:d2:
                    78:98:e3:ec:0b:a5:92:dc:b7:9a:bd:80:64:2b:38:
                    7c:38:09:5b:66:f6:2d:95:7a:86:b2:34:2e:85:9e:
                    90:0e:5f:b7:5d:a4:51:72:46:70:13:bf:67:f2:b6:
                    a7:4d:14:1e:6c:b9:53:ee:23:1a:4e:8d:48:55:43:
                    41:b1:89:75:6a:40:28:c5:7d:dd:d2:6e:d2:02:19:
                    2f:7b:24:94:4b:eb:f1:1a:a9:9b:e3:23:9a:ea:fa:
                    33:ab:0a:2c:b7:f4:60:08:dd:9f:1c:cd:dd:2d:01:
                    66:80:af:b3:2f:29:1d:23:b8:8a:e1:a1:70:07:0c:
                    34:0f
                Exponent: 65537 (0x10001)
        X509v3 extensions:
            Authority Information Access: 
                OCSP - URI:http://s2.symcb.com

            X509v3 Basic Constraints: critical
                CA:TRUE, pathlen:0
            X509v3 Certificate Policies: 
                Policy: X509v3 Any Policy
                  CPS: http://www.symauth.com/cps
                  User Notice:
                    Explicit Text: http://www.symauth.com/rpa

            X509v3 CRL Distribution Points: 
                URI:http://s1.symcb.com/pca3-g5.crl

            X509v3 Key Usage: critical
                Certificate Sign, CRL Sign
            X509v3 Subject Alternative Name: 
                DirName:/CN=SymantecPKI-1-533
            X509v3 Subject Key Identifier: 
                01:59:AB:E7:DD:3A:0B:59:A6:64:63:D6:CF:20:07:57:D5:91:E7:6A
            X509v3 Authority Key Identifier: 
                keyid:7F:D3:65:A7:C2:DD:EC:BB:F0:30:09:F3:43:39:FA:02:AF:33:31:33

    Signature Algorithm: sha256WithRSAEncryption
        42:01:55:7b:d0:16:1a:5d:58:e8:bb:9b:a8:4d:d7:f3:d7:eb:
        13:94:86:d6:7f:21:0b:47:bc:57:9b:92:5d:4f:05:9f:38:a4:
        10:7c:cf:83:be:06:43:46:8d:08:bc:6a:d7:10:a6:fa:ab:af:
        2f:61:a8:63:f2:65:df:7f:4c:88:12:88:4f:b3:69:d9:ff:27:
        c0:0a:97:91:8f:56:fb:89:c4:a8:bb:92:2d:1b:73:b0:c6:ab:
        36:f4:96:6c:20:08:ef:0a:1e:66:24:45:4f:67:00:40:c8:07:
        54:74:33:3b:a6:ad:bb:23:9f:66:ed:a2:44:70:34:fb:0e:ea:
        01:fd:cf:78:74:df:a7:ad:55:b7:5f:4d:f6:d6:3f:e0:86:ce:
        24:c7:42:a9:13:14:44:35:4b:b6:df:c9:60:ac:0c:7f:d9:93:
        21:4b:ee:9c:e4:49:02:98:d3:60:7b:5c:bc:d5:30:2f:07:ce:
        44:42:c4:0b:99:fe:e6:9f:fc:b0:78:86:51:6d:d1:2c:9d:c6:
        96:fb:85:82:bb:04:2f:f7:62:80:ef:62:da:7f:f6:0e:ac:90:
        b8:56:bd:79:3f:f2:80:6e:a3:d9:b9:0f:5d:3a:07:1d:91:93:
        86:4b:29:4c:e1:dc:b5:e1:e0:33:9d:b3:cb:36:91:4b:fe:a1:
        b4:ee:f0:f9
-----BEGIN CERTIFICATE-----
MIIFKzCCBBOgAwIBAgIQfuFKb2/v8tN/P61lTTratDANBgkqhkiG9w0BAQsFADCB
yjELMAkGA1UEBhMCVVMxFzAVBgNVBAoTDlZlcmlTaWduLCBJbmMuMR8wHQYDVQQL
ExZWZXJpU2lnbiBUcnVzdCBOZXR3b3JrMTowOAYDVQQLEzEoYykgMjAwNiBWZXJp
U2lnbiwgSW5jLiAtIEZvciBhdXRob3JpemVkIHVzZSBvbmx5MUUwQwYDVQQDEzxW
ZXJpU2lnbiBDbGFzcyAzIFB1YmxpYyBQcmltYXJ5IENlcnRpZmljYXRpb24gQXV0
aG9yaXR5IC0gRzUwHhcNMTMxMDMxMDAwMDAwWhcNMjMxMDMwMjM1OTU5WjB3MQsw
CQYDVQQGEwJVUzEdMBsGA1UEChMUU3ltYW50ZWMgQ29ycG9yYXRpb24xHzAdBgNV
BAsTFlN5bWFudGVjIFRydXN0IE5ldHdvcmsxKDAmBgNVBAMTH1N5bWFudGVjIENs
YXNzIDMgRVYgU1NMIENBIC0gRzMwggEiMA0GCSqGSIb3DQEBAQUAA4IBDwAwggEK
AoIBAQDYoWV0I+grZOIy1zM3PY71NBZI3U9/hxz4RCMTjvsR2ERaGHGOYBYmkpv9
FwvhcXBC/r/6HMCqo6e1cej/GIP23xAKE2LIPZyn3i4/DNkd5y77Ks7Imn+Hv9hM
BBUyydHMlXGgTihPhNk1++OGb5RT5nKKY2cuvmn2926OnGAE6yn6xEdC0niY4+wL
pZLct5q9gGQrOHw4CVtm9i2VeoayNC6FnpAOX7ddpFFyRnATv2fytqdNFB5suVPu
IxpOjUhVQ0GxiXVqQCjFfd3SbtICGS97JJRL6/EaqZvjI5rq+jOrCiy39GAI3Z8c
zd0tAWaAr7MvKR0juIrhoXAHDDQPAgMBAAGjggFdMIIBWTAvBggrBgEFBQcBAQQj
MCEwHwYIKwYBBQUHMAGGE2h0dHA6Ly9zMi5zeW1jYi5jb20wEgYDVR0TAQH/BAgw
BgEB/wIBADBlBgNVHSAEXjBcMFoGBFUdIAAwUjAmBggrBgEFBQcCARYaaHR0cDov
L3d3dy5zeW1hdXRoLmNvbS9jcHMwKAYIKwYBBQUHAgIwHBoaaHR0cDovL3d3dy5z
eW1hdXRoLmNvbS9ycGEwMAYDVR0fBCkwJzAloCOgIYYfaHR0cDovL3MxLnN5bWNi
LmNvbS9wY2EzLWc1LmNybDAOBgNVHQ8BAf8EBAMCAQYwKQYDVR0RBCIwIKQeMBwx
GjAYBgNVBAMTEVN5bWFudGVjUEtJLTEtNTMzMB0GA1UdDgQWBBQBWavn3ToLWaZk
Y9bPIAdX1ZHnajAfBgNVHSMEGDAWgBR/02Wnwt3su/AwCfNDOfoCrzMxMzANBgkq
hkiG9w0BAQsFAAOCAQEAQgFVe9AWGl1Y6LubqE3X89frE5SG1n8hC0e8V5uSXU8F
nzikEHzPg74GQ0aNCLxq1xCm+quvL2GoY/Jl339MiBKIT7Np2f8nwAqXkY9W+4nE
qLuSLRtzsMarNvSWbCAI7woeZiRFT2cAQMgHVHQzO6atuyOfZu2iRHA0+w7qAf3P
eHTfp61Vt19N9tY/4IbOJMdCqRMURDVLtt/JYKwMf9mTIUvunORJApjTYHtcvNUw
LwfORELEC5n+5p/8sHiGUW3RLJ3GlvuFgrsEL/digO9i2n/2DqyQuFa9eT/ygG6j
2bkPXToHHZGThkspTOHcteHgM52zyzaRS/6htO7w+Q==
-----END CERTIFICATE-----
