-----BEGIN PRIVATE KEY-----
MIIEvQIBADANBgkqhkiG9w0BAQEFAASCBKcwggSjAgEAAoIBAQCd6b3kPUov+8L5
5iIqQhVGHIyPR0zpxVeVH2ZwkyLwlMO7tVvvpG/Ix4mVdboMNr9Oa6k1RwhDnilq
4sP7A7cftuFRa+17Gcf5zjvcZelmx4OUxNFO7u1kS4HxGupaZBgbak6T0BNskGDK
0k63JBb4sghYnY2nM0UVNIGtLS2cYO/5K5j+edONLEjbEpH0Lvq/9SbBggWA3Uyo
cL+nvBA0dznbRwQP7USyZUYiIIhZKA/HDKK0kaWiqsoFn4qbbqPL1KToJHWdIIEi
W193PsnxHq7rijOMJ1sevm0hG0JyleOeEwN1p1jUvmgS/mOOSxF6NOeja91zrj4Z
muyRi3OvAgMBAAECggEBAJwu2gyK/fw1YqNtlS78izP7+p2fZJf2AejQ1K3VKQKP
8IOQHW0I0zLe/9oeRTPdVhtG6mVyat8N6GL6A+IZy54HcBTqzUgquJn++z/CYDWy
cRbMD0SllY/UCqIf/9gFFb7PxwX1D7EZn1Ia7ZW/kSTKWOzkb30GfXY6p2NTwr/d
psacQ5v6+o8z3RD2N44gPvrGA2d1P83YT0oIYwKAHtpu6c46CBQmf54lhjs1LdxE
UgF8w+Y8T8DZQ5WekchIWBcGZLiqBkm49+uBoGtlfrcszZkC3pnX++HoZAYE9ms4
OCdWhEBHUyhd/os7GjaX+CGUM4nNx0LmoqeJBhBt0qkCgYEAzcsWqVYruimpnES+
lzFIiFZXI6rYd7hkJ+semFst4UFQM51TE0gXkrzZdIu/rgmRlb05to739V1i2z0B
TxGka+WzL6j4ZtJjy2WBl35GceoeL5Iwbjs8OiJFr8TAkq9v3TT2iymuUDGSHCCz
1T9GfS4/zoLNGiqKOxp7O6ZwaC0CgYEAxHBFRtQ1eeKYL5FZwWv2JklivutDWURK
0dzbzsvKaUf40ZdZe+A6cFomckm7xubHwMckY+8Y011pgF581JWWIaRs8u8jJuWA
ajjfmFSC0L5uuk6qYHa9eWQu8LvUGmKX9SMs7Mt2h7BS+l+ZDbgr6LngoK1CWGEK
DLo0/fp7OMsCgYAi++RVUx3J3u1DcHhJ8YnYC31yxcdYytLT6mdgFRf+lADTVWpa
+8VuH4aEBoHGT0AdiXZ3L2S9pGt6w6smSuR9pyXH81yO9jMaz52xKDlHgjoxchOj
mZRKeasJD1SBWyuUGj3TOHm2jka9W13W4ZPVEfis3ZWKXjLzizPp1wiC3QKBgEMX
ESIKsiTptg5w9xWveMdEwxvvn/Xp9B/O7aeoRH5GnX1/0okTYQIkWAMqmZ5qDYkS
uqQC8himS7UTEFFOsZLV5HvoHrpXIc+lkwAkxPTkRU8ONPRzOW0vQTTpAZztVXbc
x6gsKVRYbU6jvdNItn5qlYRrCEDFC7ijFBw2I0WXAoGARVYDlmIrSvnwqZ07YzPa
QeLueBBfnHqN+7XAGTctn0MOhE96OgURw0lWVnyoGtTmUAHtdho5EeDDUxQm/n1x
whGM72yqlFlslpnodQUqAYz1Eqe+RgP9V8KXdUVz652jqZwhuqLBjtAc9e9knwR8
MTmwsskxSp9DWTu+tCjNrwM=
-----END PRIVATE KEY-----
Certificate:
    Data:
        Version: 3 (0x2)
        Serial Number: 1 (0x1)
    Signature Algorithm: sha256WithRSAEncryption
        Issuer: C=US, ST=California, L=Mountain View, O=Test CA, CN=Test Root CA
        Validity
            Not Before: Jun  5 17:10:45 2017 GMT
            Not After : Jun  3 17:10:45 2027 GMT
        Subject: C=US, ST=California, L=Mountain View, O=Test CA, CN=Test Intermediate CA
        Subject Public Key Info:
            Public Key Algorithm: rsaEncryption
                Public-Key: (2048 bit)
                Modulus:
                    00:9d:e9:bd:e4:3d:4a:2f:fb:c2:f9:e6:22:2a:42:
                    15:46:1c:8c:8f:47:4c:e9:c5:57:95:1f:66:70:93:
                    22:f0:94:c3:bb:b5:5b:ef:a4:6f:c8:c7:89:95:75:
                    ba:0c:36:bf:4e:6b:a9:35:47:08:43:9e:29:6a:e2:
                    c3:fb:03:b7:1f:b6:e1:51:6b:ed:7b:19:c7:f9:ce:
                    3b:dc:65:e9:66:c7:83:94:c4:d1:4e:ee:ed:64:4b:
                    81:f1:1a:ea:5a:64:18:1b:6a:4e:93:d0:13:6c:90:
                    60:ca:d2:4e:b7:24:16:f8:b2:08:58:9d:8d:a7:33:
                    45:15:34:81:ad:2d:2d:9c:60:ef:f9:2b:98:fe:79:
                    d3:8d:2c:48:db:12:91:f4:2e:fa:bf:f5:26:c1:82:
                    05:80:dd:4c:a8:70:bf:a7:bc:10:34:77:39:db:47:
                    04:0f:ed:44:b2:65:46:22:20:88:59:28:0f:c7:0c:
                    a2:b4:91:a5:a2:aa:ca:05:9f:8a:9b:6e:a3:cb:d4:
                    a4:e8:24:75:9d:20:81:22:5b:5f:77:3e:c9:f1:1e:
                    ae:eb:8a:33:8c:27:5b:1e:be:6d:21:1b:42:72:95:
                    e3:9e:13:03:75:a7:58:d4:be:68:12:fe:63:8e:4b:
                    11:7a:34:e7:a3:6b:dd:73:ae:3e:19:9a:ec:91:8b:
                    73:af
                Exponent: 65537 (0x10001)
        X509v3 extensions:
            X509v3 Basic Constraints: critical
                CA:TRUE
            X509v3 Subject Key Identifier: 
                17:5C:45:F3:D0:AC:1C:10:4C:8B:43:44:20:C4:DD:93:C5:C5:19:3B
            X509v3 Key Usage: critical
                Certificate Sign, CRL Sign
    Signature Algorithm: sha256WithRSAEncryption
         3e:f5:d7:fd:82:3b:1e:34:8c:66:a2:f3:5e:18:e1:f1:a9:75:
         9f:b5:93:e7:0a:8e:cf:0a:33:ed:49:cd:ce:ce:ca:5f:a3:1d:
         64:76:d3:84:16:fe:9d:88:ac:f4:d1:f8:36:2b:20:80:52:0a:
         ef:e0:0f:64:27:55:35:a3:7b:c6:8a:7c:a5:c4:29:17:b1:fa:
         d2:89:5d:13:6b:b8:03:cb:d7:12:d6:ce:24:f0:af:48:17:03:
         54:99:af:e9:cb:fd:44:44:18:23:61:90:f6:bd:55:65:06:c3:
         36:98:8d:ea:7d:0f:79:ef:b6:bb:22:28:03:a6:ec:d9:d4:1b:
         47:ac:2c:25:de:ef:1a:02:69:4c:18:bb:29:48:f4:9d:e1:52:
         42:64:6c:88:46:68:86:83:fd:24:f5:7d:05:d7:1a:7e:22:bc:
         49:75:9c:8a:4d:e8:f3:a2:eb:9b:83:70:a7:d6:dd:2f:05:2d:
         aa:be:d7:ee:7b:8e:75:44:3b:da:df:85:61:bf:e9:3b:13:40:
         4e:8b:52:08:d9:e4:8c:54:da:41:db:7b:2c:05:5e:99:06:0d:
         02:8c:8e:19:8e:55:b0:3a:33:18:30:03:a7:ed:4a:e4:f8:58:
         cc:12:b8:af:d6:66:55:29:ec:01:1f:92:ed:3d:4d:c3:71:3b:
         e0:2f:70:90
-----BEGIN CERTIFICATE-----
MIIDizCCAnOgAwIBAgIBATANBgkqhkiG9w0BAQsFADBjMQswCQYDVQQGEwJVUzET
MBEGA1UECAwKQ2FsaWZvcm5pYTEWMBQGA1UEBwwNTW91bnRhaW4gVmlldzEQMA4G
A1UECgwHVGVzdCBDQTEVMBMGA1UEAwwMVGVzdCBSb290IENBMB4XDTE3MDYwNTE3
MTA0NVoXDTI3MDYwMzE3MTA0NVowazELMAkGA1UEBhMCVVMxEzARBgNVBAgMCkNh
bGlmb3JuaWExFjAUBgNVBAcMDU1vdW50YWluIFZpZXcxEDAOBgNVBAoMB1Rlc3Qg
Q0ExHTAbBgNVBAMMFFRlc3QgSW50ZXJtZWRpYXRlIENBMIIBIjANBgkqhkiG9w0B
AQEFAAOCAQ8AMIIBCgKCAQEAnem95D1KL/vC+eYiKkIVRhyMj0dM6cVXlR9mcJMi
8JTDu7Vb76RvyMeJlXW6DDa/TmupNUcIQ54pauLD+wO3H7bhUWvtexnH+c473GXp
ZseDlMTRTu7tZEuB8RrqWmQYG2pOk9ATbJBgytJOtyQW+LIIWJ2NpzNFFTSBrS0t
nGDv+SuY/nnTjSxI2xKR9C76v/UmwYIFgN1MqHC/p7wQNHc520cED+1EsmVGIiCI
WSgPxwyitJGloqrKBZ+Km26jy9Sk6CR1nSCBIltfdz7J8R6u64ozjCdbHr5tIRtC
cpXjnhMDdadY1L5oEv5jjksRejTno2vdc64+GZrskYtzrwIDAQABo0IwQDAPBgNV
HRMBAf8EBTADAQH/MB0GA1UdDgQWBBQXXEXz0KwcEEyLQ0QgxN2TxcUZOzAOBgNV
HQ8BAf8EBAMCAQYwDQYJKoZIhvcNAQELBQADggEBAD711/2COx40jGai814Y4fGp
dZ+1k+cKjs8KM+1Jzc7Oyl+jHWR204QW/p2IrPTR+DYrIIBSCu/gD2QnVTWje8aK
fKXEKRex+tKJXRNruAPL1xLWziTwr0gXA1SZr+nL/UREGCNhkPa9VWUGwzaYjep9
D3nvtrsiKAOm7NnUG0esLCXe7xoCaUwYuylI9J3hUkJkbIhGaIaD/ST1fQXXGn4i
vEl1nIpN6POi65uDcKfW3S8FLaq+1+57jnVEO9rfhWG/6TsTQE6LUgjZ5IxU2kHb
eywFXpkGDQKMjhmOVbA6MxgwA6ftSuT4WMwSuK/WZlUp7AEfku09TcNxO+AvcJA=
-----END CERTIFICATE-----
