Certificate:
    Data:
        Version: 3 (0x2)
        Serial Number:
            8c:e2:cb:3c:0e:f4:4a:26
    Signature Algorithm: ecdsa-with-SHA256
        Issuer: CN = P-256 no keyUsage extension
        Validity
            Not Before: May  4 19:15:24 2018 GMT
            Not After : May  1 19:15:24 2028 GMT
        Subject: CN = P-256 no keyUsage extension
        Subject Public Key Info:
            Public Key Algorithm: id-ecPublicKey
                Public-Key: (256 bit)
                pub:
                    04:dd:bb:6e:3c:0e:c9:eb:eb:a5:d3:b9:72:dc:6d:
                    58:84:e2:3a:73:79:94:79:c2:79:6a:13:ea:ba:bb:
                    d8:4b:26:a0:23:e5:01:3e:6c:bc:ff:92:54:b7:4b:
                    45:af:53:2a:fd:26:55:1c:bb:27:51:74:34:9c:2b:
                    17:fc:d7:e2:d1
                ASN1 OID: prime256v1
                NIST CURVE: P-256
    Signature Algorithm: ecdsa-with-SHA256
         30:44:02:20:71:c5:55:cf:ea:9b:1d:38:ee:46:6e:9f:a2:79:
         e2:73:cd:1e:61:1d:c7:0c:75:8e:48:4e:fb:5a:85:95:5d:7f:
         02:20:09:6c:6f:b1:ed:66:9b:d5:26:e9:a3:81:35:ac:2d:36:
         b3:33:ba:a9:24:d1:a5:38:51:e2:0d:13:dc:cd:cb:44
-----BEGIN CERTIFICATE-----
MIIBPzCB56ADAgECAgkAjOLLPA70SiYwCgYIKoZIzj0EAwIwJjEkMCIGA1UEAwwb
UC0yNTYgbm8ga2V5VXNhZ2UgZXh0ZW5zaW9uMB4XDTE4MDUwNDE5MTUyNFoXDTI4
MDUwMTE5MTUyNFowJjEkMCIGA1UEAwwbUC0yNTYgbm8ga2V5VXNhZ2UgZXh0ZW5z
aW9uMFkwEwYHKoZIzj0CAQYIKoZIzj0DAQcDQgAE3btuPA7J6+ul07ly3G1YhOI6
c3mUecJ5ahPqurvYSyagI+UBPmy8/5JUt0tFr1Mq/SZVHLsnUXQ0nCsX/Nfi0TAK
BggqhkjOPQQDAgNHADBEAiBxxVXP6psdOO5Gbp+ieeJzzR5hHccMdY5ITvtahZVd
fwIgCWxvse1mm9Um6aOBNawtNrMzuqkk0aU4UeINE9zNy0Q=
-----END CERTIFICATE-----
