Certificate:
    Data:
        Version: 3 (0x2)
        Serial Number:
            96:80:3b:29:e2:8c:df:ec
    Signature Algorithm: sha256WithRSAEncryption
        Issuer: CN = RSA-2048 keyEncipherment
        Validity
            Not Before: May  4 19:15:24 2018 GMT
            Not After : May  1 19:15:24 2028 GMT
        Subject: CN = RSA-2048 keyEncipherment
        Subject Public Key Info:
            Public Key Algorithm: rsaEncryption
                Public-Key: (2048 bit)
                Modulus:
                    00:cc:cf:3f:54:9f:e8:98:a0:82:e8:8f:48:89:f6:
                    0d:55:5b:d5:e9:8c:51:82:30:17:9c:a9:04:1b:97:
                    18:c8:28:54:0e:76:1d:f5:d2:43:b8:26:d2:43:6c:
                    f3:72:c9:5c:cc:95:ea:2e:98:6f:3f:b4:8f:02:0f:
                    24:f2:32:1a:4d:03:ad:b0:09:2c:cb:86:c0:b6:3f:
                    e5:aa:5d:00:7b:6c:a3:91:34:f3:b6:fd:65:f4:a8:
                    ee:a1:d0:72:f2:4e:fd:e3:dc:e7:db:50:a2:b6:f2:
                    b3:88:c6:17:15:15:24:93:25:65:2e:b9:c3:15:86:
                    ce:68:08:8f:61:2e:9c:17:29:dc:e9:39:0d:83:85:
                    e6:95:49:99:74:57:c9:3e:2e:55:0e:6a:f0:61:80:
                    07:59:50:b4:e2:f5:f0:3e:b7:6a:68:dc:ad:6b:86:
                    e4:83:b7:52:23:79:e1:38:fd:74:56:ed:40:81:b7:
                    e1:6f:f7:ba:10:63:31:5a:59:f3:60:c0:b7:ab:40:
                    6d:c0:46:d0:c9:09:3a:07:a8:09:6e:27:2f:90:e0:
                    35:24:44:41:67:9f:0d:af:96:b8:37:7c:5d:54:fd:
                    c1:17:28:3e:09:ba:b1:cf:a9:da:78:1e:45:5a:da:
                    53:ad:ce:ea:43:9e:40:f1:e7:a1:d9:96:2c:8d:aa:
                    8d:ed
                Exponent: 65537 (0x10001)
        X509v3 extensions:
            X509v3 Key Usage: critical
                Key Encipherment
    Signature Algorithm: sha256WithRSAEncryption
         38:5a:ec:0e:37:bc:f1:da:ec:09:5f:64:8c:66:03:f2:d1:f7:
         5d:bf:ee:4a:65:e6:90:11:1a:5b:6d:2d:53:87:c7:f9:38:a7:
         e3:3e:fb:e2:3f:6f:13:11:23:08:23:16:02:17:7e:f4:8b:56:
         04:e7:18:ae:b3:92:01:ca:11:79:41:6d:1a:4b:e0:d8:e8:be:
         cf:23:df:49:52:b4:3a:65:fd:45:59:e0:e6:e6:bb:63:6b:27:
         4f:bc:9f:66:c3:9c:ad:c3:27:a5:d9:42:38:ee:99:6a:f6:6c:
         79:80:c8:cb:11:43:91:c1:1c:70:fe:f3:76:09:49:c3:3b:a9:
         9e:0e:57:fc:5a:a9:a5:f0:5c:b9:6b:8a:c4:b5:13:6f:39:5b:
         d7:73:e0:c2:b5:de:1e:da:ec:2b:07:cc:36:8f:6b:f5:56:87:
         7b:4c:2b:6c:52:5b:be:70:93:49:55:0f:51:6c:1e:3a:0f:d6:
         0b:e2:8c:9f:79:60:81:3d:ca:90:35:a6:65:90:f0:4d:5c:c1:
         71:4b:d9:18:10:e2:fa:97:b7:69:c4:88:13:b9:dd:3e:41:63:
         59:8f:e0:71:46:79:58:d4:5c:5b:6d:98:12:9e:3b:da:22:36:
         64:ff:85:ca:75:fc:d9:6b:75:27:1a:46:08:3f:af:d3:2e:4a:
         3f:8b:6a:a3
-----BEGIN CERTIFICATE-----
MIIC2zCCAcOgAwIBAgIJAJaAOynijN/sMA0GCSqGSIb3DQEBCwUAMCMxITAfBgNV
BAMMGFJTQS0yMDQ4IGtleUVuY2lwaGVybWVudDAeFw0xODA1MDQxOTE1MjRaFw0y
ODA1MDExOTE1MjRaMCMxITAfBgNVBAMMGFJTQS0yMDQ4IGtleUVuY2lwaGVybWVu
dDCCASIwDQYJKoZIhvcNAQEBBQADggEPADCCAQoCggEBAMzPP1Sf6JigguiPSIn2
DVVb1emMUYIwF5ypBBuXGMgoVA52HfXSQ7gm0kNs83LJXMyV6i6Ybz+0jwIPJPIy
Gk0DrbAJLMuGwLY/5apdAHtso5E087b9ZfSo7qHQcvJO/ePc59tQorbys4jGFxUV
JJMlZS65wxWGzmgIj2EunBcp3Ok5DYOF5pVJmXRXyT4uVQ5q8GGAB1lQtOL18D63
amjcrWuG5IO3UiN54Tj9dFbtQIG34W/3uhBjMVpZ82DAt6tAbcBG0MkJOgeoCW4n
L5DgNSREQWefDa+WuDd8XVT9wRcoPgm6sc+p2ngeRVraU63O6kOeQPHnodmWLI2q
je0CAwEAAaMSMBAwDgYDVR0PAQH/BAQDAgUgMA0GCSqGSIb3DQEBCwUAA4IBAQA4
WuwON7zx2uwJX2SMZgPy0fddv+5KZeaQERpbbS1Th8f5OKfjPvviP28TESMIIxYC
F370i1YE5xius5IByhF5QW0aS+DY6L7PI99JUrQ6Zf1FWeDm5rtjaydPvJ9mw5yt
wyel2UI47plq9mx5gMjLEUORwRxw/vN2CUnDO6meDlf8Wqml8Fy5a4rEtRNvOVvX
c+DCtd4e2uwrB8w2j2v1Vod7TCtsUlu+cJNJVQ9RbB46D9YL4oyfeWCBPcqQNaZl
kPBNXMFxS9kYEOL6l7dpxIgTud0+QWNZj+BxRnlY1FxbbZgSnjvaIjZk/4XKdfzZ
a3UnGkYIP6/TLko/i2qj
-----END CERTIFICATE-----
