Certificate:
    Data:
        Version: 3 (0x2)
        Serial Number:
            8a:c2:01:87:b1:09:cf:03
    Signature Algorithm: sha256WithRSAEncryption
        Issuer: CN = RSA-2048 no keyUsage extension
        Validity
            Not Before: May  4 19:15:24 2018 GMT
            Not After : May  1 19:15:24 2028 GMT
        Subject: CN = RSA-2048 no keyUsage extension
        Subject Public Key Info:
            Public Key Algorithm: rsaEncryption
                Public-Key: (2048 bit)
                Modulus:
                    00:cc:cf:3f:54:9f:e8:98:a0:82:e8:8f:48:89:f6:
                    0d:55:5b:d5:e9:8c:51:82:30:17:9c:a9:04:1b:97:
                    18:c8:28:54:0e:76:1d:f5:d2:43:b8:26:d2:43:6c:
                    f3:72:c9:5c:cc:95:ea:2e:98:6f:3f:b4:8f:02:0f:
                    24:f2:32:1a:4d:03:ad:b0:09:2c:cb:86:c0:b6:3f:
                    e5:aa:5d:00:7b:6c:a3:91:34:f3:b6:fd:65:f4:a8:
                    ee:a1:d0:72:f2:4e:fd:e3:dc:e7:db:50:a2:b6:f2:
                    b3:88:c6:17:15:15:24:93:25:65:2e:b9:c3:15:86:
                    ce:68:08:8f:61:2e:9c:17:29:dc:e9:39:0d:83:85:
                    e6:95:49:99:74:57:c9:3e:2e:55:0e:6a:f0:61:80:
                    07:59:50:b4:e2:f5:f0:3e:b7:6a:68:dc:ad:6b:86:
                    e4:83:b7:52:23:79:e1:38:fd:74:56:ed:40:81:b7:
                    e1:6f:f7:ba:10:63:31:5a:59:f3:60:c0:b7:ab:40:
                    6d:c0:46:d0:c9:09:3a:07:a8:09:6e:27:2f:90:e0:
                    35:24:44:41:67:9f:0d:af:96:b8:37:7c:5d:54:fd:
                    c1:17:28:3e:09:ba:b1:cf:a9:da:78:1e:45:5a:da:
                    53:ad:ce:ea:43:9e:40:f1:e7:a1:d9:96:2c:8d:aa:
                    8d:ed
                Exponent: 65537 (0x10001)
    Signature Algorithm: sha256WithRSAEncryption
         45:ca:64:a2:f7:aa:e3:b7:9f:f2:c7:07:fa:de:12:1c:a8:85:
         a1:28:ed:2b:a6:50:ea:0c:5d:81:39:39:33:a4:4c:39:87:f0:
         b2:fe:d6:64:f8:97:64:92:0c:53:df:d5:08:bd:f8:76:bf:35:
         9b:41:27:79:8d:d6:77:64:a8:a0:20:b9:46:4f:70:1b:a4:bd:
         ec:0f:9b:e4:41:61:e7:63:67:13:94:65:76:fe:36:90:04:a6:
         ad:04:0f:93:f1:60:f8:63:e3:74:42:57:ff:f8:d2:8d:b8:92:
         41:28:53:94:2c:3c:9f:a6:bb:62:4d:1c:ac:10:c4:61:d8:28:
         5f:00:90:0f:f2:74:95:b6:18:2a:cb:2a:3b:18:66:61:32:88:
         3b:c7:6a:88:9f:e9:09:d5:f3:f3:df:be:a3:a4:f0:9a:75:ff:
         b9:41:5c:72:47:69:07:1c:88:af:ea:bb:a5:54:33:31:79:49:
         34:2d:2e:99:97:6f:eb:ea:4f:09:1c:19:c7:b1:7d:38:5a:fe:
         6d:f4:a1:89:3e:ba:cf:4a:a8:9a:1c:08:98:1a:27:13:68:36:
         86:46:eb:fb:0f:6a:3a:72:82:df:dd:bb:2c:89:be:f1:db:f8:
         0c:32:da:9c:1d:23:60:d2:d8:87:0e:51:fe:b8:84:58:a4:f2:
         45:7d:73:f5
-----BEGIN CERTIFICATE-----
MIIC0zCCAbugAwIBAgIJAIrCAYexCc8DMA0GCSqGSIb3DQEBCwUAMCkxJzAlBgNV
BAMMHlJTQS0yMDQ4IG5vIGtleVVzYWdlIGV4dGVuc2lvbjAeFw0xODA1MDQxOTE1
MjRaFw0yODA1MDExOTE1MjRaMCkxJzAlBgNVBAMMHlJTQS0yMDQ4IG5vIGtleVVz
YWdlIGV4dGVuc2lvbjCCASIwDQYJKoZIhvcNAQEBBQADggEPADCCAQoCggEBAMzP
P1Sf6JigguiPSIn2DVVb1emMUYIwF5ypBBuXGMgoVA52HfXSQ7gm0kNs83LJXMyV
6i6Ybz+0jwIPJPIyGk0DrbAJLMuGwLY/5apdAHtso5E087b9ZfSo7qHQcvJO/ePc
59tQorbys4jGFxUVJJMlZS65wxWGzmgIj2EunBcp3Ok5DYOF5pVJmXRXyT4uVQ5q
8GGAB1lQtOL18D63amjcrWuG5IO3UiN54Tj9dFbtQIG34W/3uhBjMVpZ82DAt6tA
bcBG0MkJOgeoCW4nL5DgNSREQWefDa+WuDd8XVT9wRcoPgm6sc+p2ngeRVraU63O
6kOeQPHnodmWLI2qje0CAwEAATANBgkqhkiG9w0BAQsFAAOCAQEARcpkoveq47ef
8scH+t4SHKiFoSjtK6ZQ6gxdgTk5M6RMOYfwsv7WZPiXZJIMU9/VCL34dr81m0En
eY3Wd2SooCC5Rk9wG6S97A+b5EFh52NnE5Rldv42kASmrQQPk/Fg+GPjdEJX//jS
jbiSQShTlCw8n6a7Yk0crBDEYdgoXwCQD/J0lbYYKssqOxhmYTKIO8dqiJ/pCdXz
89++o6TwmnX/uUFcckdpBxyIr+q7pVQzMXlJNC0umZdv6+pPCRwZx7F9OFr+bfSh
iT66z0qomhwImBonE2g2hkbr+w9qOnKC3927LIm+8dv4DDLanB0jYNLYhw5R/riE
WKTyRX1z9Q==
-----END CERTIFICATE-----
