Certificate:
    Data:
        Version: 3 (0x2)
        Serial Number:
            c9:7f:1b:f0:56:23:1a:a5
    Signature Algorithm: sha256WithRSAEncryption
        Issuer: CN = RSA-2048 digitalSignature
        Validity
            Not Before: May  4 19:15:24 2018 GMT
            Not After : May  1 19:15:24 2028 GMT
        Subject: CN = RSA-2048 digitalSignature
        Subject Public Key Info:
            Public Key Algorithm: rsaEncryption
                Public-Key: (2048 bit)
                Modulus:
                    00:cc:cf:3f:54:9f:e8:98:a0:82:e8:8f:48:89:f6:
                    0d:55:5b:d5:e9:8c:51:82:30:17:9c:a9:04:1b:97:
                    18:c8:28:54:0e:76:1d:f5:d2:43:b8:26:d2:43:6c:
                    f3:72:c9:5c:cc:95:ea:2e:98:6f:3f:b4:8f:02:0f:
                    24:f2:32:1a:4d:03:ad:b0:09:2c:cb:86:c0:b6:3f:
                    e5:aa:5d:00:7b:6c:a3:91:34:f3:b6:fd:65:f4:a8:
                    ee:a1:d0:72:f2:4e:fd:e3:dc:e7:db:50:a2:b6:f2:
                    b3:88:c6:17:15:15:24:93:25:65:2e:b9:c3:15:86:
                    ce:68:08:8f:61:2e:9c:17:29:dc:e9:39:0d:83:85:
                    e6:95:49:99:74:57:c9:3e:2e:55:0e:6a:f0:61:80:
                    07:59:50:b4:e2:f5:f0:3e:b7:6a:68:dc:ad:6b:86:
                    e4:83:b7:52:23:79:e1:38:fd:74:56:ed:40:81:b7:
                    e1:6f:f7:ba:10:63:31:5a:59:f3:60:c0:b7:ab:40:
                    6d:c0:46:d0:c9:09:3a:07:a8:09:6e:27:2f:90:e0:
                    35:24:44:41:67:9f:0d:af:96:b8:37:7c:5d:54:fd:
                    c1:17:28:3e:09:ba:b1:cf:a9:da:78:1e:45:5a:da:
                    53:ad:ce:ea:43:9e:40:f1:e7:a1:d9:96:2c:8d:aa:
                    8d:ed
                Exponent: 65537 (0x10001)
        X509v3 extensions:
            X509v3 Key Usage: critical
                Digital Signature
    Signature Algorithm: sha256WithRSAEncryption
         10:6b:29:ee:88:05:1b:d9:79:fa:d3:f0:6c:cd:68:16:10:de:
         33:c6:6a:f6:c3:d3:1c:e7:c2:36:4d:6f:af:f7:53:f6:26:2a:
         25:79:d9:5c:20:71:e1:2d:31:57:f0:b2:f3:e6:2c:9e:f4:9c:
         d2:0c:42:5b:87:ae:0c:71:6a:6e:49:e3:1b:f3:82:6c:55:bf:
         26:93:17:d1:03:49:84:b7:90:43:7b:70:f7:17:28:9c:f7:b0:
         31:2a:3f:5f:9a:be:dd:47:6e:c3:4d:28:08:a5:37:89:fd:ef:
         e2:11:00:6c:2a:04:4e:6e:cc:c7:67:64:6f:1f:2c:35:20:72:
         a5:b8:3c:38:4e:0e:31:b3:b6:d3:08:7e:b1:bc:99:8d:d5:37:
         16:60:ff:3a:f2:7d:0c:f8:83:44:60:83:d3:ce:2a:95:cf:ad:
         9f:ac:5d:ad:c0:b6:86:7a:9c:ae:9d:7c:f9:c4:f9:f0:d4:88:
         e8:6d:cb:8d:3f:dd:a6:dd:88:ba:df:ba:cd:8a:75:28:91:51:
         31:3f:77:c5:81:8a:f5:58:05:ad:97:12:91:98:11:86:ec:18:
         47:9f:b0:cd:9e:e0:00:02:c5:ef:f5:1c:f9:6a:f7:f3:ed:6f:
         75:7c:46:29:99:7c:1b:f3:fd:ed:6a:b4:8c:3d:96:5b:70:e5:
         de:b6:9d:6b
-----BEGIN CERTIFICATE-----
MIIC3TCCAcWgAwIBAgIJAMl/G/BWIxqlMA0GCSqGSIb3DQEBCwUAMCQxIjAgBgNV
BAMMGVJTQS0yMDQ4IGRpZ2l0YWxTaWduYXR1cmUwHhcNMTgwNTA0MTkxNTI0WhcN
MjgwNTAxMTkxNTI0WjAkMSIwIAYDVQQDDBlSU0EtMjA0OCBkaWdpdGFsU2lnbmF0
dXJlMIIBIjANBgkqhkiG9w0BAQEFAAOCAQ8AMIIBCgKCAQEAzM8/VJ/omKCC6I9I
ifYNVVvV6YxRgjAXnKkEG5cYyChUDnYd9dJDuCbSQ2zzcslczJXqLphvP7SPAg8k
8jIaTQOtsAksy4bAtj/lql0Ae2yjkTTztv1l9KjuodBy8k7949zn21CitvKziMYX
FRUkkyVlLrnDFYbOaAiPYS6cFync6TkNg4XmlUmZdFfJPi5VDmrwYYAHWVC04vXw
PrdqaNyta4bkg7dSI3nhOP10Vu1Agbfhb/e6EGMxWlnzYMC3q0BtwEbQyQk6B6gJ
bicvkOA1JERBZ58Nr5a4N3xdVP3BFyg+Cbqxz6naeB5FWtpTrc7qQ55A8eeh2ZYs
jaqN7QIDAQABoxIwEDAOBgNVHQ8BAf8EBAMCB4AwDQYJKoZIhvcNAQELBQADggEB
ABBrKe6IBRvZefrT8GzNaBYQ3jPGavbD0xznwjZNb6/3U/YmKiV52VwgceEtMVfw
svPmLJ70nNIMQluHrgxxam5J4xvzgmxVvyaTF9EDSYS3kEN7cPcXKJz3sDEqP1+a
vt1HbsNNKAilN4n97+IRAGwqBE5uzMdnZG8fLDUgcqW4PDhODjGzttMIfrG8mY3V
NxZg/zryfQz4g0Rgg9POKpXPrZ+sXa3AtoZ6nK6dfPnE+fDUiOhty40/3abdiLrf
us2KdSiRUTE/d8WBivVYBa2XEpGYEYbsGEefsM2e4AACxe/1HPlq9/Ptb3V8RimZ
fBvz/e1qtIw9lltw5d62nWs=
-----END CERTIFICATE-----
