Certificate:
    Data:
        Version: 3 (0x2)
        Serial Number:
            95:60:29:92:1a:f1:a1:5d
    Signature Algorithm: ecdsa-with-SHA256
        Issuer: CN = P-256 digitalSignature
        Validity
            Not Before: May  4 19:15:24 2018 GMT
            Not After : May  1 19:15:24 2028 GMT
        Subject: CN = P-256 digitalSignature
        Subject Public Key Info:
            Public Key Algorithm: id-ecPublicKey
                Public-Key: (256 bit)
                pub:
                    04:dd:bb:6e:3c:0e:c9:eb:eb:a5:d3:b9:72:dc:6d:
                    58:84:e2:3a:73:79:94:79:c2:79:6a:13:ea:ba:bb:
                    d8:4b:26:a0:23:e5:01:3e:6c:bc:ff:92:54:b7:4b:
                    45:af:53:2a:fd:26:55:1c:bb:27:51:74:34:9c:2b:
                    17:fc:d7:e2:d1
                ASN1 OID: prime256v1
                NIST CURVE: P-256
        X509v3 extensions:
            X509v3 Key Usage: critical
                Digital Signature
    Signature Algorithm: ecdsa-with-SHA256
         30:45:02:20:2a:6f:37:35:29:e7:0e:e0:4e:78:b3:d9:1e:62:
         ce:ac:19:a0:46:9f:f0:5b:8d:0e:cb:39:f6:85:72:50:76:e1:
         02:21:00:fb:d9:9f:5e:08:f6:bb:49:ef:72:d8:dd:fc:7a:59:
         7c:be:55:86:e3:9a:16:25:42:15:4f:3d:14:45:51:13:91
-----BEGIN CERTIFICATE-----
MIIBSjCB8aADAgECAgkAlWApkhrxoV0wCgYIKoZIzj0EAwIwITEfMB0GA1UEAwwW
UC0yNTYgZGlnaXRhbFNpZ25hdHVyZTAeFw0xODA1MDQxOTE1MjRaFw0yODA1MDEx
OTE1MjRaMCExHzAdBgNVBAMMFlAtMjU2IGRpZ2l0YWxTaWduYXR1cmUwWTATBgcq
hkjOPQIBBggqhkjOPQMBBwNCAATdu248Dsnr66XTuXLcbViE4jpzeZR5wnlqE+q6
u9hLJqAj5QE+bLz/klS3S0WvUyr9JlUcuydRdDScKxf81+LRoxIwEDAOBgNVHQ8B
Af8EBAMCB4AwCgYIKoZIzj0EAwIDSAAwRQIgKm83NSnnDuBOeLPZHmLOrBmgRp/w
W40Oyzn2hXJQduECIQD72Z9eCPa7Se9y2N38ell8vlWG45oWJUIVTz0URVETkQ==
-----END CERTIFICATE-----
