Certificate:
    Data:
        Version: 3 (0x2)
        Serial Number:
            d1:cb:4f:79:42:77:f3:f5
    Signature Algorithm: ecdsa-with-SHA256
        Issuer: CN = P-256 keyAgreement and digitalSignature
        Validity
            Not Before: May  4 19:15:24 2018 GMT
            Not After : May  1 19:15:24 2028 GMT
        Subject: CN = P-256 keyAgreement and digitalSignature
        Subject Public Key Info:
            Public Key Algorithm: id-ecPublicKey
                Public-Key: (256 bit)
                pub:
                    04:dd:bb:6e:3c:0e:c9:eb:eb:a5:d3:b9:72:dc:6d:
                    58:84:e2:3a:73:79:94:79:c2:79:6a:13:ea:ba:bb:
                    d8:4b:26:a0:23:e5:01:3e:6c:bc:ff:92:54:b7:4b:
                    45:af:53:2a:fd:26:55:1c:bb:27:51:74:34:9c:2b:
                    17:fc:d7:e2:d1
                ASN1 OID: prime256v1
                NIST CURVE: P-256
        X509v3 extensions:
            X509v3 Key Usage: critical
                Digital Signature, Key Agreement
    Signature Algorithm: ecdsa-with-SHA256
         30:45:02:21:00:9f:18:0f:0e:f8:a3:2f:e3:b5:63:5f:99:64:
         ee:c3:f9:d0:8d:1a:ea:4c:02:3e:e1:e8:a7:41:61:e5:d8:a9:
         fb:02:20:0e:4e:b8:09:ee:17:48:ff:9a:54:b6:bf:3e:ab:c4:
         68:d2:6b:8b:e3:4e:50:3b:3d:78:30:ea:52:44:de:29:85
-----BEGIN CERTIFICATE-----
MIIBbTCCAROgAwIBAgIJANHLT3lCd/P1MAoGCCqGSM49BAMCMDIxMDAuBgNVBAMM
J1AtMjU2IGtleUFncmVlbWVudCBhbmQgZGlnaXRhbFNpZ25hdHVyZTAeFw0xODA1
MDQxOTE1MjRaFw0yODA1MDExOTE1MjRaMDIxMDAuBgNVBAMMJ1AtMjU2IGtleUFn
cmVlbWVudCBhbmQgZGlnaXRhbFNpZ25hdHVyZTBZMBMGByqGSM49AgEGCCqGSM49
AwEHA0IABN27bjwOyevrpdO5ctxtWITiOnN5lHnCeWoT6rq72EsmoCPlAT5svP+S
VLdLRa9TKv0mVRy7J1F0NJwrF/zX4tGjEjAQMA4GA1UdDwEB/wQEAwIDiDAKBggq
hkjOPQQDAgNIADBFAiEAnxgPDvijL+O1Y1+ZZO7D+dCNGupMAj7h6KdBYeXYqfsC
IA5OuAnuF0j/mlS2vz6rxGjSa4vjTlA7PXgw6lJE3imF
-----END CERTIFICATE-----
