Certificate:
    Data:
        Version: 3 (0x2)
        Serial Number:
            ca:56:c2:33:41:67:f3:05
    Signature Algorithm: sha256WithRSAEncryption
        Issuer: CN = RSA-2048 keyEncipherment and digitalSignature
        Validity
            Not Before: May  4 19:15:24 2018 GMT
            Not After : May  1 19:15:24 2028 GMT
        Subject: CN = RSA-2048 keyEncipherment and digitalSignature
        Subject Public Key Info:
            Public Key Algorithm: rsaEncryption
                Public-Key: (2048 bit)
                Modulus:
                    00:cc:cf:3f:54:9f:e8:98:a0:82:e8:8f:48:89:f6:
                    0d:55:5b:d5:e9:8c:51:82:30:17:9c:a9:04:1b:97:
                    18:c8:28:54:0e:76:1d:f5:d2:43:b8:26:d2:43:6c:
                    f3:72:c9:5c:cc:95:ea:2e:98:6f:3f:b4:8f:02:0f:
                    24:f2:32:1a:4d:03:ad:b0:09:2c:cb:86:c0:b6:3f:
                    e5:aa:5d:00:7b:6c:a3:91:34:f3:b6:fd:65:f4:a8:
                    ee:a1:d0:72:f2:4e:fd:e3:dc:e7:db:50:a2:b6:f2:
                    b3:88:c6:17:15:15:24:93:25:65:2e:b9:c3:15:86:
                    ce:68:08:8f:61:2e:9c:17:29:dc:e9:39:0d:83:85:
                    e6:95:49:99:74:57:c9:3e:2e:55:0e:6a:f0:61:80:
                    07:59:50:b4:e2:f5:f0:3e:b7:6a:68:dc:ad:6b:86:
                    e4:83:b7:52:23:79:e1:38:fd:74:56:ed:40:81:b7:
                    e1:6f:f7:ba:10:63:31:5a:59:f3:60:c0:b7:ab:40:
                    6d:c0:46:d0:c9:09:3a:07:a8:09:6e:27:2f:90:e0:
                    35:24:44:41:67:9f:0d:af:96:b8:37:7c:5d:54:fd:
                    c1:17:28:3e:09:ba:b1:cf:a9:da:78:1e:45:5a:da:
                    53:ad:ce:ea:43:9e:40:f1:e7:a1:d9:96:2c:8d:aa:
                    8d:ed
                Exponent: 65537 (0x10001)
        X509v3 extensions:
            X509v3 Key Usage: critical
                Digital Signature, Key Encipherment
    Signature Algorithm: sha256WithRSAEncryption
         b8:cb:16:42:b7:37:7c:94:f4:82:76:ea:8e:a6:8a:d3:fd:1a:
         f2:b1:9d:d4:76:0a:d2:8a:67:4b:4a:c8:da:3d:03:ef:7b:92:
         e6:83:36:23:b8:0c:7b:a7:a3:05:84:87:af:2c:7e:aa:06:38:
         a5:e6:f0:17:c7:7e:e9:a0:7e:13:fd:26:3c:81:04:a1:ad:ed:
         65:63:8c:ee:ce:24:9e:64:62:68:9a:ba:f3:a9:2f:ed:f8:8a:
         a3:ca:c5:9e:c9:89:39:bf:b9:52:13:dd:bc:66:4e:03:fa:a2:
         cf:26:25:d6:78:2c:d6:a1:35:d0:b7:12:e1:c6:c8:3c:9e:c1:
         62:6e:ea:53:e1:ac:56:05:05:f6:53:a7:d5:21:f6:21:a3:21:
         b2:21:17:86:fa:e5:1e:2b:ee:2e:af:51:39:1f:ee:21:af:15:
         33:0b:b0:ec:ae:d9:c6:5d:aa:c4:71:8d:9b:cf:fc:ad:4d:9b:
         fe:ea:7a:cf:dd:ad:2e:c9:7e:3a:1b:80:d8:6a:32:f0:ca:8c:
         ec:ef:b3:d8:5f:07:88:fb:15:d4:dd:62:7d:65:48:cd:30:5c:
         07:a7:a7:9f:5b:64:18:b6:0b:23:81:80:6e:9f:8c:fa:da:8f:
         2f:b0:75:a0:08:6c:17:ce:d4:f7:25:00:23:54:ae:64:54:dd:
         2b:fe:d1:26
-----BEGIN CERTIFICATE-----
MIIDBTCCAe2gAwIBAgIJAMpWwjNBZ/MFMA0GCSqGSIb3DQEBCwUAMDgxNjA0BgNV
BAMMLVJTQS0yMDQ4IGtleUVuY2lwaGVybWVudCBhbmQgZGlnaXRhbFNpZ25hdHVy
ZTAeFw0xODA1MDQxOTE1MjRaFw0yODA1MDExOTE1MjRaMDgxNjA0BgNVBAMMLVJT
QS0yMDQ4IGtleUVuY2lwaGVybWVudCBhbmQgZGlnaXRhbFNpZ25hdHVyZTCCASIw
DQYJKoZIhvcNAQEBBQADggEPADCCAQoCggEBAMzPP1Sf6JigguiPSIn2DVVb1emM
UYIwF5ypBBuXGMgoVA52HfXSQ7gm0kNs83LJXMyV6i6Ybz+0jwIPJPIyGk0DrbAJ
LMuGwLY/5apdAHtso5E087b9ZfSo7qHQcvJO/ePc59tQorbys4jGFxUVJJMlZS65
wxWGzmgIj2EunBcp3Ok5DYOF5pVJmXRXyT4uVQ5q8GGAB1lQtOL18D63amjcrWuG
5IO3UiN54Tj9dFbtQIG34W/3uhBjMVpZ82DAt6tAbcBG0MkJOgeoCW4nL5DgNSRE
QWefDa+WuDd8XVT9wRcoPgm6sc+p2ngeRVraU63O6kOeQPHnodmWLI2qje0CAwEA
AaMSMBAwDgYDVR0PAQH/BAQDAgWgMA0GCSqGSIb3DQEBCwUAA4IBAQC4yxZCtzd8
lPSCduqOporT/RrysZ3UdgrSimdLSsjaPQPve5LmgzYjuAx7p6MFhIevLH6qBjil
5vAXx37poH4T/SY8gQShre1lY4zuziSeZGJomrrzqS/t+IqjysWeyYk5v7lSE928
Zk4D+qLPJiXWeCzWoTXQtxLhxsg8nsFibupT4axWBQX2U6fVIfYhoyGyIReG+uUe
K+4ur1E5H+4hrxUzC7DsrtnGXarEcY2bz/ytTZv+6nrP3a0uyX46G4DYajLwyozs
77PYXweI+xXU3WJ9ZUjNMFwHp6efW2QYtgsjgYBun4z62o8vsHWgCGwXztT3JQAj
VK5kVN0r/tEm
-----END CERTIFICATE-----
