Certificate:
    Data:
        Version: 3 (0x2)
        Serial Number:
            fa:a0:a5:bb:df:5f:50:08
    Signature Algorithm: ecdsa-with-SHA256
        Issuer: CN = P-256 keyAgreement
        Validity
            Not Before: May  4 19:15:24 2018 GMT
            Not After : May  1 19:15:24 2028 GMT
        Subject: CN = P-256 keyAgreement
        Subject Public Key Info:
            Public Key Algorithm: id-ecPublicKey
                Public-Key: (256 bit)
                pub:
                    04:dd:bb:6e:3c:0e:c9:eb:eb:a5:d3:b9:72:dc:6d:
                    58:84:e2:3a:73:79:94:79:c2:79:6a:13:ea:ba:bb:
                    d8:4b:26:a0:23:e5:01:3e:6c:bc:ff:92:54:b7:4b:
                    45:af:53:2a:fd:26:55:1c:bb:27:51:74:34:9c:2b:
                    17:fc:d7:e2:d1
                ASN1 OID: prime256v1
                NIST CURVE: P-256
        X509v3 extensions:
            X509v3 Key Usage: critical
                Key Agreement
    Signature Algorithm: ecdsa-with-SHA256
         30:44:02:20:48:ae:ed:78:6b:5b:b0:10:b9:3d:d2:af:6d:8b:
         01:89:28:18:a0:c1:ef:66:2c:bb:d8:2f:4a:dc:e2:8d:c3:d7:
         02:20:1e:fc:88:61:3b:32:1a:23:df:d7:ec:d7:12:5a:e1:50:
         b1:6a:16:35:fa:cb:5e:a9:97:bf:95:1a:34:3a:49:f0
-----BEGIN CERTIFICATE-----
MIIBQTCB6aADAgECAgkA+qClu99fUAgwCgYIKoZIzj0EAwIwHTEbMBkGA1UEAwwS
UC0yNTYga2V5QWdyZWVtZW50MB4XDTE4MDUwNDE5MTUyNFoXDTI4MDUwMTE5MTUy
NFowHTEbMBkGA1UEAwwSUC0yNTYga2V5QWdyZWVtZW50MFkwEwYHKoZIzj0CAQYI
KoZIzj0DAQcDQgAE3btuPA7J6+ul07ly3G1YhOI6c3mUecJ5ahPqurvYSyagI+UB
Pmy8/5JUt0tFr1Mq/SZVHLsnUXQ0nCsX/Nfi0aMSMBAwDgYDVR0PAQH/BAQDAgMI
MAoGCCqGSM49BAMCA0cAMEQCIEiu7XhrW7AQuT3Sr22LAYkoGKDB72Ysu9gvStzi
jcPXAiAe/IhhOzIaI9/X7NcSWuFQsWoWNfrLXqmXv5UaNDpJ8A==
-----END CERTIFICATE-----
