-----BEGIN PRIVATE KEY-----
MIIEvwIBADANBgkqhkiG9w0BAQEFAASCBKkwggSlAgEAAoIBAQCr/csPH2W5PnS4
Ei02FKhBPWHuDhF4L4KkDARe+0iCU0lRMclBEgVCefaM20QfPnhNJtfrJ0MVD3nP
4/iIZHDQXlWgXRGIYpqyysmN3p4L2VBrl2zqrWKWYZqQPRZokFUGYIpujqpF1Th5
Zz2dDWlqb58gUnPye+HswAmTHNOmEXYQjRjoASS4LKc11ZZmFmQaS6h88v+yGYK7
+ss4kbH2oxRH0OSuiyXPWf9Pl9urA6IobaY2CPgJxl6Cn//+I98IC2heb7/Tciax
FkwrjO+SmOeb2NCQg4dxcPGIhQmPO2ZrOgw+/uttvfuQ3H80Fls4+VgPmo8EQ3VL
+a5zXo7tAgMBAAECggEAQPqJlRUPoYTvI/v6CMyVJNDEBuRZxUZt3PyNSjU1l8dP
k9Vza5obUpoxg9XzTrqTSNK8EKOsvHA0XU6LvzvzQ0Xgo82FqjlWqOXkcC0DGQbp
UzzKcX9AGACYHJZ3uNmOxfIDWvGbcvazd2qB5KwEf6ncPKHqHFqhaIjFFUd2zu56
4+DcVFKUrMR44KvTk1qe4R00u0kDsxZTLk70fzMkRl0qcy4oyjtOSeSEEqIKgcFS
jiXv2TM1XpMZ28P2VqA98yPhpuEnZepvTFtBth2fh3Be+rs/WxUiND+1/U4b40rH
nJr9w6z7xbpQw5FD3fqBhYK5/rsS2ghALYYaRsPuIQKBgQDiP0YJpflCrY1lbFjg
pdp+oGSqfWB0Ejq1UNnN2vVqFHykyykn+y2Tg2VTC6xsH1gqruy0DRJeHgzLj57K
5/LA98+xobxBcu1QuU0sMylWlMqmppPrHqNf7+ZzTP0LafbJAzpKGqyOIGMfeb6Z
94RwVDz9ykp/VzFg/dTTRKutUwKBgQDCm/iP0x9dC0Weif8wV3QzmjOGY4Oq2RZn
d4OOTL2UIVQq/wGbMomR6X89b/Frs5TCK79VQqffTKkxMWTF+ZZlFG7IFBnUKT84
KXhqez/jtmyq4flGJ6J6SdrJCXJkXZwt1NLnIPwZctgaugrgh5vEBIln50wTGOXN
8EgDABEKvwKBgQCzPCsxE5LPlwxQUDBs8BeTf1+gjSjva02lPML/yTno6wf/yY72
RI/LsCmCS9ox4fcIAYI19bEabLX4QfQrjOuMogWhFJ8+PlzxOYuAu5tBIykUMx02
BBSruTMZHuHMvAqtHmh8MnuHMPM2CU3NTgBWuPWEnVC9ZwcQbqa/JETZTwKBgQCf
Oy0yyQT1hX6OTM0vSa87daVJBW27Qerx97j9ms7XQDn1ADfZO42ShOHmbAy2GfbS
tSbVZTekHr6lEIwq7J/gzsoiDUhg7uraUhxDy9qnwCDD5Sen/lAUDQ/lxEQD2RAr
8+Io2TVMwUoO/EBgHLUXurqO+JKnYYzOZxcU1V4cUwKBgQCWUtlDJR/gg83Q/HbC
+fPPSifL7nLDuzgDgf6oUp555dsUnU/CSyVhAAGWh/bkYi2Kb0c/5L4pMXlGSHMv
N/6Ek8JA+teaRojEtHqEkEQw6l6T61BxzpImO+KYw05mk+f/I8VoaG/cQkDLr48B
k7jie9XxUXWGXk5vCuvZgtcwQg==
-----END PRIVATE KEY-----
Certificate:
    Data:
        Version: 3 (0x2)
        Serial Number: 7 (0x7)
    Signature Algorithm: sha256WithRSAEncryption
        Issuer: C=US, ST=California, L=Mountain View, O=Test CA, CN=Test Root CA
        Validity
            Not Before: Jun  5 17:10:46 2017 GMT
            Not After : Jun  3 17:10:46 2027 GMT
        Subject: C=US, ST=California, L=Mountain View, O=Test CA, CN=localhost
        Subject Public Key Info:
            Public Key Algorithm: rsaEncryption
                Public-Key: (2048 bit)
                Modulus:
                    00:ab:fd:cb:0f:1f:65:b9:3e:74:b8:12:2d:36:14:
                    a8:41:3d:61:ee:0e:11:78:2f:82:a4:0c:04:5e:fb:
                    48:82:53:49:51:31:c9:41:12:05:42:79:f6:8c:db:
                    44:1f:3e:78:4d:26:d7:eb:27:43:15:0f:79:cf:e3:
                    f8:88:64:70:d0:5e:55:a0:5d:11:88:62:9a:b2:ca:
                    c9:8d:de:9e:0b:d9:50:6b:97:6c:ea:ad:62:96:61:
                    9a:90:3d:16:68:90:55:06:60:8a:6e:8e:aa:45:d5:
                    38:79:67:3d:9d:0d:69:6a:6f:9f:20:52:73:f2:7b:
                    e1:ec:c0:09:93:1c:d3:a6:11:76:10:8d:18:e8:01:
                    24:b8:2c:a7:35:d5:96:66:16:64:1a:4b:a8:7c:f2:
                    ff:b2:19:82:bb:fa:cb:38:91:b1:f6:a3:14:47:d0:
                    e4:ae:8b:25:cf:59:ff:4f:97:db:ab:03:a2:28:6d:
                    a6:36:08:f8:09:c6:5e:82:9f:ff:fe:23:df:08:0b:
                    68:5e:6f:bf:d3:72:26:b1:16:4c:2b:8c:ef:92:98:
                    e7:9b:d8:d0:90:83:87:71:70:f1:88:85:09:8f:3b:
                    66:6b:3a:0c:3e:fe:eb:6d:bd:fb:90:dc:7f:34:16:
                    5b:38:f9:58:0f:9a:8f:04:43:75:4b:f9:ae:73:5e:
                    8e:ed
                Exponent: 65537 (0x10001)
        X509v3 extensions:
            X509v3 Basic Constraints: critical
                CA:FALSE
            X509v3 Subject Key Identifier: 
                FD:CB:18:66:1A:6B:34:2F:F7:F4:26:D0:37:12:5D:4B:70:93:87:CD
            X509v3 Authority Key Identifier: 
                keyid:9B:26:0B:8A:98:A9:BB:1D:B9:1F:1C:E3:1A:40:33:ED:8E:17:88:AB

            X509v3 Extended Key Usage: 
                TLS Web Server Authentication, TLS Web Client Authentication
            X509v3 Subject Alternative Name: 
                DNS:localhost
    Signature Algorithm: sha256WithRSAEncryption
         5f:9d:b6:22:48:7d:cd:6a:8e:f8:06:9f:64:98:f0:a2:66:1b:
         47:28:5d:97:8c:fd:36:38:bf:0e:ee:d9:3c:45:86:5b:af:6f:
         12:b2:be:55:10:e5:4d:b9:10:f3:1e:ed:66:ed:f3:7b:5b:c3:
         e8:90:3a:57:26:db:51:89:1e:9e:cb:78:30:f9:f9:a2:40:da:
         65:ba:ed:65:c3:75:b3:45:43:be:88:e3:37:41:75:02:96:c0:
         eb:49:d5:62:6a:5f:71:90:20:ad:8a:29:7e:84:56:aa:f3:24:
         7f:37:a6:81:89:56:54:e2:fb:e9:27:e7:de:ae:e1:0a:fe:b6:
         7e:cc:2e:69:9c:f8:8c:f3:64:09:a3:a2:62:99:4f:ff:1d:bb:
         5a:b3:8b:7e:8a:46:05:6c:32:1f:44:56:de:cf:b1:b7:33:0d:
         b2:f9:08:76:3d:8e:4a:f4:77:1b:87:96:ae:49:a0:46:b0:97:
         f8:0d:26:26:d3:70:39:9c:76:eb:6e:dc:0e:38:f6:d7:fe:c3:
         fc:fe:4f:41:3f:81:3c:d2:da:8a:8a:39:70:da:04:ef:be:39:
         0f:5a:5f:d7:2e:28:dd:ae:e6:e2:52:8f:55:72:51:ad:51:c6:
         8b:48:17:bc:13:a5:19:19:f6:70:f3:12:6c:52:45:b1:6c:8c:
         aa:b1:49:ee
-----BEGIN CERTIFICATE-----
MIIDxTCCAq2gAwIBAgIBBzANBgkqhkiG9w0BAQsFADBjMQswCQYDVQQGEwJVUzET
MBEGA1UECAwKQ2FsaWZvcm5pYTEWMBQGA1UEBwwNTW91bnRhaW4gVmlldzEQMA4G
A1UECgwHVGVzdCBDQTEVMBMGA1UEAwwMVGVzdCBSb290IENBMB4XDTE3MDYwNTE3
MTA0NloXDTI3MDYwMzE3MTA0NlowYDELMAkGA1UEBhMCVVMxEzARBgNVBAgMCkNh
bGlmb3JuaWExFjAUBgNVBAcMDU1vdW50YWluIFZpZXcxEDAOBgNVBAoMB1Rlc3Qg
Q0ExEjAQBgNVBAMMCWxvY2FsaG9zdDCCASIwDQYJKoZIhvcNAQEBBQADggEPADCC
AQoCggEBAKv9yw8fZbk+dLgSLTYUqEE9Ye4OEXgvgqQMBF77SIJTSVExyUESBUJ5
9ozbRB8+eE0m1+snQxUPec/j+IhkcNBeVaBdEYhimrLKyY3engvZUGuXbOqtYpZh
mpA9FmiQVQZgim6OqkXVOHlnPZ0NaWpvnyBSc/J74ezACZMc06YRdhCNGOgBJLgs
pzXVlmYWZBpLqHzy/7IZgrv6yziRsfajFEfQ5K6LJc9Z/0+X26sDoihtpjYI+AnG
XoKf//4j3wgLaF5vv9NyJrEWTCuM75KY55vY0JCDh3Fw8YiFCY87Zms6DD7+6229
+5DcfzQWWzj5WA+ajwRDdUv5rnNeju0CAwEAAaOBhjCBgzAMBgNVHRMBAf8EAjAA
MB0GA1UdDgQWBBT9yxhmGms0L/f0JtA3El1LcJOHzTAfBgNVHSMEGDAWgBSbJguK
mKm7HbkfHOMaQDPtjheIqzAdBgNVHSUEFjAUBggrBgEFBQcDAQYIKwYBBQUHAwIw
FAYDVR0RBA0wC4IJbG9jYWxob3N0MA0GCSqGSIb3DQEBCwUAA4IBAQBfnbYiSH3N
ao74Bp9kmPCiZhtHKF2XjP02OL8O7tk8RYZbr28Ssr5VEOVNuRDzHu1m7fN7W8Po
kDpXJttRiR6ey3gw+fmiQNpluu1lw3WzRUO+iOM3QXUClsDrSdVial9xkCCtiil+
hFaq8yR/N6aBiVZU4vvpJ+feruEK/rZ+zC5pnPiM82QJo6JimU//Hbtas4t+ikYF
bDIfRFbez7G3Mw2y+Qh2PY5K9Hcbh5auSaBGsJf4DSYm03A5nHbrbtwOOPbX/sP8
/k9BP4E80tqKijlw2gTvvjkPWl/XLijdrubiUo9VclGtUcaLSBe8E6UZGfZw8xJs
UkWxbIyqsUnu
-----END CERTIFICATE-----
