Certificate:
    Data:
        Version: 3 (0x2)
        Serial Number:
            06:db:17:73:de:b5:08:bf:b6:86:a8:c5:ad:ce:d9:2b:0f:dc:9d
    Signature Algorithm: sha256WithRSAEncryption
        Issuer: C = US, ST = Illinois, L = Chicago, O = "Trustwave Holdings, Inc.", CN = "Trustwave Extended Validation SHA256 CA, Level 1", emailAddress = ca@trustwave.com
        Validity
            Not Before: Jun 13 08:33:43 2018 GMT
            Not After : Jun 12 14:33:43 2020 GMT
        Subject: CN = login.trustwave.com, O = "Trustwave Holdings, Inc.", L = Chicago, ST = Illinois, C = US, serialNumber = 3939737, businessCategory = Private Organization, jurisdictionC = US, jurisdictionST = Delaware
        Subject Public Key Info:
            Public Key Algorithm: rsaEncryption
                Public-Key: (2048 bit)
                Modulus:
                    00:dd:80:8b:d6:ac:0e:14:cd:fc:39:eb:17:8f:f5:
                    9b:c8:0f:0f:03:dd:46:d8:72:a7:2f:bb:61:e4:0a:
                    9f:db:1a:7f:94:7a:b5:5b:04:ac:92:5f:37:e8:58:
                    54:08:5c:39:19:85:54:a9:d1:96:d2:f6:c9:67:e1:
                    6d:c2:fb:40:c9:86:3c:b8:97:fe:83:8d:c4:35:2e:
                    59:a8:22:d3:6e:01:a2:f5:26:17:4a:d4:4c:7a:61:
                    5a:5e:8e:4d:db:bf:2d:4c:e8:98:8f:60:69:a4:e7:
                    2d:fb:b1:83:b6:3d:a1:97:2f:c5:ce:f1:47:7f:7b:
                    68:72:6e:1e:95:e1:2c:cd:9b:25:31:fa:9f:9a:0e:
                    ba:f6:a8:d4:8c:40:9b:20:1b:ef:0e:f6:32:b1:c1:
                    ef:15:ec:5a:42:c3:6a:2d:4e:30:e7:44:61:22:41:
                    f9:77:5a:42:25:10:ed:36:60:c2:d5:67:f7:7f:c4:
                    d7:54:5e:49:99:5d:45:a7:4c:c9:5d:a4:5d:75:70:
                    b6:9e:a3:8a:d9:6a:4c:d5:dd:c6:dd:12:9b:a1:90:
                    85:08:92:93:87:f9:e7:69:96:82:c6:e9:5c:06:15:
                    42:48:54:6e:15:5c:5b:bc:30:d9:3f:7c:8e:52:30:
                    76:5d:3b:1a:ba:39:a3:eb:8e:83:ab:43:e4:90:a7:
                    6e:af
                Exponent: 65537 (0x10001)
        X509v3 extensions:
            X509v3 Basic Constraints: critical
                CA:FALSE
            X509v3 Key Usage: critical
                Digital Signature, Key Encipherment
            X509v3 Extended Key Usage: 
                TLS Web Client Authentication, TLS Web Server Authentication
            X509v3 Subject Key Identifier: 
                75:E8:CF:E7:D7:4B:78:94:85:CD:C8:DF:52:03:2E:CD:FB:F9:FF:87
            X509v3 Authority Key Identifier: 
                keyid:E5:E4:24:59:15:32:27:C9:20:B3:42:02:6C:B0:EF:32:DE:9B:20:5A

            X509v3 Certificate Policies: 
                Policy: 2.23.140.1.1
                Policy: 2.16.840.1.114404.1.1.2.4.1
                  CPS: https://ssl.trustwave.com/CA

            X509v3 Subject Alternative Name: 
                DNS:login.trustwave.com, DNS:cdn-login.trustwave.com, DNS:ssl.trustwave.com, DNS:sitedata.securetrust.com, DNS:sealserver.trustwave.com, DNS:sitedata.xramp.com, DNS:seal.securetrust.com, DNS:sealserver.trustkeeper.net, DNS:seal.xramp.com, DNS:rogers.trustwave.com, DNS:optus.trustwave.com, DNS:tis.trustwave.com, DNS:globe.trustwave.com, DNS:inmarsat.trustwave.com
            X509v3 CRL Distribution Points: 

                Full Name:
                  URI:http://crl.trustwave.com/EVCA2_L1.crl

            Authority Information Access: 
                OCSP - URI:http://ocsp.trustwave.com/
                CA Issuers - URI:http://ssl.trustwave.com/issuers/EVCA2_L1.crt

            CT Precertificate SCTs: 
                Signed Certificate Timestamp:
                    Version   : v1 (0x0)
                    Log ID    : A4:B9:09:90:B4:18:58:14:87:BB:13:A2:CC:67:70:0A:
                                3C:35:98:04:F9:1B:DF:B8:E3:77:CD:0E:C8:0D:DC:10
                    Timestamp : Jun 13 14:33:44.010 2018 GMT
                    Extensions: none
                    Signature : ecdsa-with-SHA256
                                30:46:02:21:00:97:A4:CA:04:0F:F8:5D:DB:8D:94:65:
                                24:B6:4B:C4:14:31:0C:36:B3:E4:8D:3B:0A:C2:8E:C6:
                                F4:B6:B8:80:08:02:21:00:D3:2F:6E:7A:35:1E:BB:7C:
                                3B:CB:02:79:BE:BD:4B:3F:DD:58:6A:31:A7:35:52:19:
                                3E:88:EE:15:80:5D:65:68
                Signed Certificate Timestamp:
                    Version   : v1 (0x0)
                    Log ID    : EE:4B:BD:B7:75:CE:60:BA:E1:42:69:1F:AB:E1:9E:66:
                                A3:0F:7E:5F:B0:72:D8:83:00:C4:7B:89:7A:A8:FD:CB
                    Timestamp : Jun 13 14:33:44.829 2018 GMT
                    Extensions: none
                    Signature : ecdsa-with-SHA256
                                30:44:02:20:3B:3F:8E:F8:1D:73:88:3E:DF:34:35:D6:
                                DE:FF:9B:F0:BA:61:84:9A:CF:0C:6F:60:07:FD:4B:12:
                                DD:26:2F:FD:02:20:5C:EA:8D:59:CE:65:9F:7E:5D:A2:
                                AE:C5:2F:E2:36:7A:19:E4:9E:48:45:73:C5:A6:CA:49:
                                FD:A4:BF:94:0F:45
                Signed Certificate Timestamp:
                    Version   : v1 (0x0)
                    Log ID    : 56:14:06:9A:2F:D7:C2:EC:D3:F5:E1:BD:44:B2:3E:C7:
                                46:76:B9:BC:99:11:5C:C0:EF:94:98:55:D6:89:D0:DD
                    Timestamp : Jun 13 14:33:43.623 2018 GMT
                    Extensions: none
                    Signature : ecdsa-with-SHA256
                                30:45:02:20:40:A4:5B:11:00:BC:B3:4B:DA:48:00:FF:
                                49:1D:1A:9E:1D:54:9D:42:36:66:99:8C:BD:27:75:48:
                                AF:B1:13:B9:02:21:00:F5:EE:79:36:96:16:59:55:4F:
                                73:B1:C8:6E:B0:C6:29:E1:EB:03:7E:86:37:83:C5:68:
                                42:C3:83:BA:30:DE:D0
    Signature Algorithm: sha256WithRSAEncryption
         4b:a9:32:a2:94:ef:5a:a7:67:44:03:53:32:56:36:0f:12:0b:
         3b:7a:6d:66:2b:ee:47:a9:35:26:30:62:86:9b:7d:aa:38:83:
         13:ff:d0:56:ce:84:71:f8:16:49:ef:cc:70:da:34:ee:79:0e:
         2a:82:05:82:e8:f7:e7:d6:b4:ed:85:ac:e7:d2:c3:f8:8a:8f:
         ee:af:e2:d0:ba:3a:a9:a3:f8:70:ba:46:f0:16:05:60:d1:26:
         6a:e4:05:00:86:fe:44:8c:68:44:6b:ec:d4:5a:41:00:3a:b1:
         66:42:29:b8:47:1f:84:1e:94:5e:a4:f9:16:52:af:9f:3a:77:
         d9:20:7c:01:82:9d:d9:9c:6f:9c:db:9f:90:21:1b:0b:05:7e:
         e0:1d:d0:2f:e1:18:5c:c3:7f:f8:84:f7:f5:90:ac:09:9b:06:
         90:48:b9:a9:b0:bd:2e:63:67:bc:8f:62:2f:c7:e2:18:ba:c9:
         8c:96:dc:98:8e:5c:60:66:5a:aa:ee:54:bd:ce:49:08:ca:09:
         92:bb:0f:26:07:ba:8c:df:88:4f:28:ef:eb:32:99:d3:2d:a7:
         e0:c4:d4:51:d5:c9:a9:db:bf:c3:f7:14:4b:62:13:69:09:e9:
         13:49:82:20:b3:31:ae:83:a7:0d:2c:de:69:3b:e2:3b:f0:9d:
         67:61:98:3f
-----BEGIN CERTIFICATE-----
MIIIWzCCB0OgAwIBAgITBtsXc961CL+2hqjFrc7ZKw/cnTANBgkqhkiG9w0BAQsF
ADCBsTELMAkGA1UEBhMCVVMxETAPBgNVBAgTCElsbGlub2lzMRAwDgYDVQQHEwdD
aGljYWdvMSEwHwYDVQQKExhUcnVzdHdhdmUgSG9sZGluZ3MsIEluYy4xOTA3BgNV
BAMTMFRydXN0d2F2ZSBFeHRlbmRlZCBWYWxpZGF0aW9uIFNIQTI1NiBDQSwgTGV2
ZWwgMTEfMB0GCSqGSIb3DQEJARYQY2FAdHJ1c3R3YXZlLmNvbTAeFw0xODA2MTMw
ODMzNDNaFw0yMDA2MTIxNDMzNDNaMIHUMRwwGgYDVQQDExNsb2dpbi50cnVzdHdh
dmUuY29tMSEwHwYDVQQKExhUcnVzdHdhdmUgSG9sZGluZ3MsIEluYy4xEDAOBgNV
BAcTB0NoaWNhZ28xETAPBgNVBAgTCElsbGlub2lzMQswCQYDVQQGEwJVUzEQMA4G
A1UEBRMHMzkzOTczNzEdMBsGA1UEDxMUUHJpdmF0ZSBPcmdhbml6YXRpb24xEzAR
BgsrBgEEAYI3PAIBAxMCVVMxGTAXBgsrBgEEAYI3PAIBAhMIRGVsYXdhcmUwggEi
MA0GCSqGSIb3DQEBAQUAA4IBDwAwggEKAoIBAQDdgIvWrA4Uzfw56xeP9ZvIDw8D
3UbYcqcvu2HkCp/bGn+UerVbBKySXzfoWFQIXDkZhVSp0ZbS9sln4W3C+0DJhjy4
l/6DjcQ1LlmoItNuAaL1JhdK1Ex6YVpejk3bvy1M6JiPYGmk5y37sYO2PaGXL8XO
8Ud/e2hybh6V4SzNmyUx+p+aDrr2qNSMQJsgG+8O9jKxwe8V7FpCw2otTjDnRGEi
Qfl3WkIlEO02YMLVZ/d/xNdUXkmZXUWnTMldpF11cLaeo4rZakzV3cbdEpuhkIUI
kpOH+edploLG6VwGFUJIVG4VXFu8MNk/fI5SMHZdOxq6OaPrjoOrQ+SQp26vAgMB
AAGjggRFMIIEQTAMBgNVHRMBAf8EAjAAMA4GA1UdDwEB/wQEAwIFoDAdBgNVHSUE
FjAUBggrBgEFBQcDAgYIKwYBBQUHAwEwHQYDVR0OBBYEFHXoz+fXS3iUhc3I31ID
Ls37+f+HMB8GA1UdIwQYMBaAFOXkJFkVMifJILNCAmyw7zLemyBaME4GA1UdIARH
MEUwBwYFZ4EMAQEwOgYMYIZIAYb9ZAEBAgQBMCowKAYIKwYBBQUHAgEWHGh0dHBz
Oi8vc3NsLnRydXN0d2F2ZS5jb20vQ0EwggFDBgNVHREEggE6MIIBNoITbG9naW4u
dHJ1c3R3YXZlLmNvbYIXY2RuLWxvZ2luLnRydXN0d2F2ZS5jb22CEXNzbC50cnVz
dHdhdmUuY29tghhzaXRlZGF0YS5zZWN1cmV0cnVzdC5jb22CGHNlYWxzZXJ2ZXIu
dHJ1c3R3YXZlLmNvbYISc2l0ZWRhdGEueHJhbXAuY29tghRzZWFsLnNlY3VyZXRy
dXN0LmNvbYIac2VhbHNlcnZlci50cnVzdGtlZXBlci5uZXSCDnNlYWwueHJhbXAu
Y29tghRyb2dlcnMudHJ1c3R3YXZlLmNvbYITb3B0dXMudHJ1c3R3YXZlLmNvbYIR
dGlzLnRydXN0d2F2ZS5jb22CE2dsb2JlLnRydXN0d2F2ZS5jb22CFmlubWFyc2F0
LnRydXN0d2F2ZS5jb20wNgYDVR0fBC8wLTAroCmgJ4YlaHR0cDovL2NybC50cnVz
dHdhdmUuY29tL0VWQ0EyX0wxLmNybDBxBggrBgEFBQcBAQRlMGMwJgYIKwYBBQUH
MAGGGmh0dHA6Ly9vY3NwLnRydXN0d2F2ZS5jb20vMDkGCCsGAQUFBzAChi1odHRw
Oi8vc3NsLnRydXN0d2F2ZS5jb20vaXNzdWVycy9FVkNBMl9MMS5jcnQwggF+Bgor
BgEEAdZ5AgQCBIIBbgSCAWoBaAB3AKS5CZC0GFgUh7sTosxncAo8NZgE+RvfuON3
zQ7IDdwQAAABY/mREUoAAAQDAEgwRgIhAJekygQP+F3bjZRlJLZLxBQxDDaz5I07
CsKOxvS2uIAIAiEA0y9uejUeu3w7ywJ5vr1LP91YajGnNVIZPojuFYBdZWgAdQDu
S723dc5guuFCaR+r4Z5mow9+X7By2IMAxHuJeqj9ywAAAWP5kRR9AAAEAwBGMEQC
IDs/jvgdc4g+3zQ11t7/m/C6YYSazwxvYAf9SxLdJi/9AiBc6o1ZzmWffl2irsUv
4jZ6GeSeSEVzxabKSf2kv5QPRQB2AFYUBpov18Ls0/XhvUSyPsdGdrm8mRFcwO+U
mFXWidDdAAABY/mRD8cAAAQDAEcwRQIgQKRbEQC8s0vaSAD/SR0anh1UnUI2ZpmM
vSd1SK+xE7kCIQD17nk2lhZZVU9zschusMYp4esDfoY3g8VoQsODujDe0DANBgkq
hkiG9w0BAQsFAAOCAQEAS6kyopTvWqdnRANTMlY2DxILO3ptZivuR6k1JjBihpt9
qjiDE//QVs6EcfgWSe/McNo07nkOKoIFguj359a07YWs59LD+IqP7q/i0Lo6qaP4
cLpG8BYFYNEmauQFAIb+RIxoRGvs1FpBADqxZkIpuEcfhB6UXqT5FlKvnzp32SB8
AYKd2ZxvnNufkCEbCwV+4B3QL+EYXMN/+IT39ZCsCZsGkEi5qbC9LmNnvI9iL8fi
GLrJjJbcmI5cYGZaqu5Uvc5JCMoJkrsPJge6jN+ITyjv6zKZ0y2n4MTUUdXJqdu/
w/cUS2ITaQnpE0mCILMxroOnDSzeaTviO/CdZ2GYPw==
-----END CERTIFICATE-----
Certificate:
    Data:
        Version: 3 (0x2)
        Serial Number:
            35:96:2f:30:5c:5a:0b:ec:40:0d:4e:98:77:52:8c:65
    Signature Algorithm: sha256WithRSAEncryption
        Issuer: C = US, O = SecureTrust Corporation, CN = SecureTrust CA
        Validity
            Not Before: Sep  1 14:35:34 2016 GMT
            Not After : Sep 29 14:35:34 2024 GMT
        Subject: C = US, ST = Illinois, L = Chicago, O = "Trustwave Holdings, Inc.", CN = "Trustwave Extended Validation SHA256 CA, Level 1", emailAddress = ca@trustwave.com
        Subject Public Key Info:
            Public Key Algorithm: rsaEncryption
                Public-Key: (2048 bit)
                Modulus:
                    00:ad:ef:66:1c:ba:a2:bf:af:3d:15:62:24:ec:f6:
                    9e:40:bb:96:a2:cf:25:75:15:f8:ac:d2:c7:78:3e:
                    ff:5f:b2:6b:4d:f6:97:b8:84:1a:2d:fa:d4:38:3b:
                    72:45:a6:6c:d0:bb:49:b0:41:e0:a6:be:dd:52:89:
                    c3:20:7e:bd:3e:30:4f:ac:78:3e:84:12:ee:ee:86:
                    f8:b9:d1:31:dc:9d:37:35:04:9d:9d:1f:df:a8:f6:
                    34:64:c1:f6:34:fe:de:f5:31:52:28:a7:2d:67:f4:
                    a6:cc:0f:23:19:c9:55:99:d8:93:1a:0d:5b:4f:1e:
                    b1:81:6b:8f:5a:af:4e:a6:b2:10:4a:09:0f:e4:d4:
                    5e:d4:67:93:43:b5:3f:13:5c:f1:2e:a6:b0:e8:f7:
                    90:5a:31:12:1c:f1:9e:8a:5c:b0:d2:3a:fa:a9:5c:
                    87:33:96:9c:93:da:6c:eb:4b:0d:dc:22:8d:1a:eb:
                    21:c9:a4:1e:df:0d:9b:63:14:49:f5:14:47:fe:c2:
                    0b:08:09:a6:4d:b8:dc:fd:c5:eb:19:03:06:75:a6:
                    2d:6a:21:a7:5d:b7:38:e6:bd:fd:72:a7:db:ca:76:
                    7b:d6:13:cf:34:4b:45:6c:e7:6a:93:70:bb:23:cb:
                    eb:84:81:e2:29:a0:2d:16:44:cc:45:25:a6:1c:79:
                    38:1f
                Exponent: 65537 (0x10001)
        X509v3 extensions:
            X509v3 Basic Constraints: critical
                CA:TRUE, pathlen:0
            X509v3 Subject Key Identifier: 
                E5:E4:24:59:15:32:27:C9:20:B3:42:02:6C:B0:EF:32:DE:9B:20:5A
            X509v3 Key Usage: critical
                Digital Signature, Certificate Sign, CRL Sign
            X509v3 CRL Distribution Points: 

                Full Name:
                  URI:http://crl.trustwave.com/STCA.crl

            X509v3 Certificate Policies: 
                Policy: X509v3 Any Policy
                  CPS: https://ssl.trustwave.com/CA

            Authority Information Access: 
                OCSP - URI:http://ocsp.trustwave.com
                CA Issuers - URI:http://ssl.trustwave.com/issuers/STCA.crt

            X509v3 Extended Key Usage: 
                TLS Web Client Authentication, TLS Web Server Authentication
            X509v3 Authority Key Identifier: 
                keyid:42:32:B6:16:FA:04:FD:FE:5D:4B:7A:C3:FD:F7:4C:40:1D:5A:43:AF

            X509v3 Subject Alternative Name: 
                email:ca@trustwave.com
    Signature Algorithm: sha256WithRSAEncryption
         65:0c:20:39:2b:be:53:09:d3:01:cb:b8:fd:e5:92:77:82:c0:
         65:3a:99:9d:e0:d7:b8:f2:53:64:49:c2:14:62:9d:87:2d:ad:
         aa:f2:1b:b2:61:db:40:d0:f7:fa:69:4c:7a:31:4c:80:03:c3:
         62:43:b0:2e:41:ca:99:5a:6e:d7:90:9c:b8:21:ae:5d:7b:2b:
         56:fa:3c:ef:ab:cd:60:3f:34:52:95:c2:8e:ae:f0:68:7b:2f:
         3d:22:52:e8:ad:ed:90:43:e1:e2:9c:45:e7:71:45:97:0f:42:
         59:c3:f4:a4:d1:22:cf:78:49:1a:68:a2:db:2e:0a:ff:d8:e5:
         bf:b5:14:c3:d5:d4:aa:d8:b5:b7:28:f7:21:15:95:a3:44:58:
         ba:66:88:4b:2a:bc:b8:f1:89:61:26:b7:bd:6b:cf:3f:b4:4b:
         9f:4e:b4:0f:e2:86:76:c6:3f:d5:eb:9e:17:bb:c1:fd:72:6c:
         23:4e:3b:98:19:40:c2:ab:fc:eb:33:7c:b6:7b:a1:52:80:08:
         63:8f:2e:57:12:65:14:56:f7:c8:00:b3:31:3e:d5:9b:e5:1e:
         47:63:6a:67:d3:4a:ce:32:32:f5:28:ad:89:fd:36:15:e7:8c:
         05:a5:db:c3:6e:0f:d9:b7:14:f8:84:d8:ee:74:7b:31:03:9c:
         74:e2:68:e4
-----BEGIN CERTIFICATE-----
MIIFCzCCA/OgAwIBAgIQNZYvMFxaC+xADU6Yd1KMZTANBgkqhkiG9w0BAQsFADBI
MQswCQYDVQQGEwJVUzEgMB4GA1UEChMXU2VjdXJlVHJ1c3QgQ29ycG9yYXRpb24x
FzAVBgNVBAMTDlNlY3VyZVRydXN0IENBMB4XDTE2MDkwMTE0MzUzNFoXDTI0MDky
OTE0MzUzNFowgbExCzAJBgNVBAYTAlVTMREwDwYDVQQIEwhJbGxpbm9pczEQMA4G
A1UEBxMHQ2hpY2FnbzEhMB8GA1UEChMYVHJ1c3R3YXZlIEhvbGRpbmdzLCBJbmMu
MTkwNwYDVQQDEzBUcnVzdHdhdmUgRXh0ZW5kZWQgVmFsaWRhdGlvbiBTSEEyNTYg
Q0EsIExldmVsIDExHzAdBgkqhkiG9w0BCQEWEGNhQHRydXN0d2F2ZS5jb20wggEi
MA0GCSqGSIb3DQEBAQUAA4IBDwAwggEKAoIBAQCt72YcuqK/rz0VYiTs9p5Au5ai
zyV1Ffis0sd4Pv9fsmtN9pe4hBot+tQ4O3JFpmzQu0mwQeCmvt1SicMgfr0+ME+s
eD6EEu7uhvi50THcnTc1BJ2dH9+o9jRkwfY0/t71MVIopy1n9KbMDyMZyVWZ2JMa
DVtPHrGBa49ar06mshBKCQ/k1F7UZ5NDtT8TXPEuprDo95BaMRIc8Z6KXLDSOvqp
XIczlpyT2mzrSw3cIo0a6yHJpB7fDZtjFEn1FEf+wgsICaZNuNz9xesZAwZ1pi1q
Iaddtzjmvf1yp9vKdnvWE880S0Vs52qTcLsjy+uEgeIpoC0WRMxFJaYceTgfAgMB
AAGjggGFMIIBgTASBgNVHRMBAf8ECDAGAQH/AgEAMB0GA1UdDgQWBBTl5CRZFTIn
ySCzQgJssO8y3psgWjAOBgNVHQ8BAf8EBAMCAYYwMgYDVR0fBCswKTAnoCWgI4Yh
aHR0cDovL2NybC50cnVzdHdhdmUuY29tL1NUQ0EuY3JsMD0GA1UdIAQ2MDQwMgYE
VR0gADAqMCgGCCsGAQUFBwIBFhxodHRwczovL3NzbC50cnVzdHdhdmUuY29tL0NB
MGwGCCsGAQUFBwEBBGAwXjAlBggrBgEFBQcwAYYZaHR0cDovL29jc3AudHJ1c3R3
YXZlLmNvbTA1BggrBgEFBQcwAoYpaHR0cDovL3NzbC50cnVzdHdhdmUuY29tL2lz
c3VlcnMvU1RDQS5jcnQwHQYDVR0lBBYwFAYIKwYBBQUHAwIGCCsGAQUFBwMBMB8G
A1UdIwQYMBaAFEIythb6BP3+XUt6w/33TEAdWkOvMBsGA1UdEQQUMBKBEGNhQHRy
dXN0d2F2ZS5jb20wDQYJKoZIhvcNAQELBQADggEBAGUMIDkrvlMJ0wHLuP3lkneC
wGU6mZ3g17jyU2RJwhRinYctraryG7Jh20DQ9/ppTHoxTIADw2JDsC5ByplabteQ
nLghrl17K1b6PO+rzWA/NFKVwo6u8Gh7Lz0iUuit7ZBD4eKcRedxRZcPQlnD9KTR
Is94SRpootsuCv/Y5b+1FMPV1KrYtbco9yEVlaNEWLpmiEsqvLjxiWEmt71rzz+0
S59OtA/ihnbGP9Xrnhe7wf1ybCNOO5gZQMKr/OszfLZ7oVKACGOPLlcSZRRW98gA
szE+1ZvlHkdjamfTSs4yMvUorYn9NhXnjAWl28NuD9m3FPiE2O50ezEDnHTiaOQ=
-----END CERTIFICATE-----
Certificate:
    Data:
        Version: 3 (0x2)
        Serial Number:
            0c:f0:8e:5c:08:16:a5:ad:42:7f:f0:eb:27:18:59:d0
    Signature Algorithm: sha1WithRSAEncryption
        Issuer: C = US, O = SecureTrust Corporation, CN = SecureTrust CA
        Validity
            Not Before: Nov  7 19:31:18 2006 GMT
            Not After : Dec 31 19:40:55 2029 GMT
        Subject: C = US, O = SecureTrust Corporation, CN = SecureTrust CA
        Subject Public Key Info:
            Public Key Algorithm: rsaEncryption
                Public-Key: (2048 bit)
                Modulus:
                    00:ab:a4:81:e5:95:cd:f5:f6:14:8e:c2:4f:ca:d4:
                    e2:78:95:58:9c:41:e1:0d:99:40:24:17:39:91:33:
                    66:e9:be:e1:83:af:62:5c:89:d1:fc:24:5b:61:b3:
                    e0:11:11:41:1c:1d:6e:f0:b8:bb:f8:de:a7:81:ba:
                    a6:48:c6:9f:1d:bd:be:8e:a9:41:3e:b8:94:ed:29:
                    1a:d4:8e:d2:03:1d:03:ef:6d:0d:67:1c:57:d7:06:
                    ad:ca:c8:f5:fe:0e:af:66:25:48:04:96:0b:5d:a3:
                    ba:16:c3:08:4f:d1:46:f8:14:5c:f2:c8:5e:01:99:
                    6d:fd:88:cc:86:a8:c1:6f:31:42:6c:52:3e:68:cb:
                    f3:19:34:df:bb:87:18:56:80:26:c4:d0:dc:c0:6f:
                    df:de:a0:c2:91:16:a0:64:11:4b:44:bc:1e:f6:e7:
                    fa:63:de:66:ac:76:a4:71:a3:ec:36:94:68:7a:77:
                    a4:b1:e7:0e:2f:81:7a:e2:b5:72:86:ef:a2:6b:8b:
                    f0:0f:db:d3:59:3f:ba:72:bc:44:24:9c:e3:73:b3:
                    f7:af:57:2f:42:26:9d:a9:74:ba:00:52:f2:4b:cd:
                    53:7c:47:0b:36:85:0e:66:a9:08:97:16:34:57:c1:
                    66:f7:80:e3:ed:70:54:c7:93:e0:2e:28:15:59:87:
                    ba:bb
                Exponent: 65537 (0x10001)
        X509v3 extensions:
            1.3.6.1.4.1.311.20.2: 
                ...C.A
            X509v3 Key Usage: 
                Digital Signature, Certificate Sign, CRL Sign
            X509v3 Basic Constraints: critical
                CA:TRUE
            X509v3 Subject Key Identifier: 
                42:32:B6:16:FA:04:FD:FE:5D:4B:7A:C3:FD:F7:4C:40:1D:5A:43:AF
            X509v3 CRL Distribution Points: 

                Full Name:
                  URI:http://crl.securetrust.com/STCA.crl

            1.3.6.1.4.1.311.21.1: 
                ...
    Signature Algorithm: sha1WithRSAEncryption
         30:ed:4f:4a:e1:58:3a:52:72:5b:b5:a6:a3:65:18:a6:bb:51:
         3b:77:e9:9d:ea:d3:9f:5c:e0:45:65:7b:0d:ca:5b:e2:70:50:
         b2:94:05:14:ae:49:c7:8d:41:07:12:73:94:7e:0c:23:21:fd:
         bc:10:7f:60:10:5a:72:f5:98:0e:ac:ec:b9:7f:dd:7a:6f:5d:
         d3:1c:f4:ff:88:05:69:42:a9:05:71:c8:b7:ac:26:e8:2e:b4:
         8c:6a:ff:71:dc:b8:b1:df:99:bc:7c:21:54:2b:e4:58:a2:bb:
         57:29:ae:9e:a9:a3:19:26:0f:99:2e:08:b0:ef:fd:69:cf:99:
         1a:09:8d:e3:a7:9f:2b:c9:36:34:7b:24:b3:78:4c:95:17:a4:
         06:26:1e:b6:64:52:36:5f:60:67:d9:9c:c5:05:74:0b:e7:67:
         23:d2:08:fc:88:e9:ae:8b:7f:e1:30:f4:37:7e:fd:c6:32:da:
         2d:9e:44:30:30:6c:ee:07:de:d2:34:fc:d2:ff:40:f6:4b:f4:
         66:46:06:54:a6:f2:32:0a:63:26:30:6b:9b:d1:dc:8b:47:ba:
         e1:b9:d5:62:d0:a2:a0:f4:67:05:78:29:63:1a:6f:04:d6:f8:
         c6:4c:a3:9a:b1:37:b4:8d:e5:28:4b:1d:9e:2c:c2:b8:68:bc:
         ed:02:ee:31
-----BEGIN CERTIFICATE-----
MIIDuDCCAqCgAwIBAgIQDPCOXAgWpa1Cf/DrJxhZ0DANBgkqhkiG9w0BAQUFADBI
MQswCQYDVQQGEwJVUzEgMB4GA1UEChMXU2VjdXJlVHJ1c3QgQ29ycG9yYXRpb24x
FzAVBgNVBAMTDlNlY3VyZVRydXN0IENBMB4XDTA2MTEwNzE5MzExOFoXDTI5MTIz
MTE5NDA1NVowSDELMAkGA1UEBhMCVVMxIDAeBgNVBAoTF1NlY3VyZVRydXN0IENv
cnBvcmF0aW9uMRcwFQYDVQQDEw5TZWN1cmVUcnVzdCBDQTCCASIwDQYJKoZIhvcN
AQEBBQADggEPADCCAQoCggEBAKukgeWVzfX2FI7CT8rU4niVWJxB4Q2ZQCQXOZEz
Zum+4YOvYlyJ0fwkW2Gz4BERQRwdbvC4u/jep4G6pkjGnx29vo6pQT64lO0pGtSO
0gMdA+9tDWccV9cGrcrI9f4Or2YlSASWC12juhbDCE/RRvgUXPLIXgGZbf2IzIao
wW8xQmxSPmjL8xk037uHGFaAJsTQ3MBv396gwpEWoGQRS0S8Hvbn+mPeZqx2pHGj
7DaUaHp3pLHnDi+BeuK1cobvomuL8A/b01k/unK8RCSc43Oz969XL0Imnal0ugBS
8kvNU3xHCzaFDmapCJcWNFfBZveA4+1wVMeT4C4oFVmHursCAwEAAaOBnTCBmjAT
BgkrBgEEAYI3FAIEBh4EAEMAQTALBgNVHQ8EBAMCAYYwDwYDVR0TAQH/BAUwAwEB
/zAdBgNVHQ4EFgQUQjK2FvoE/f5dS3rD/fdMQB1aQ68wNAYDVR0fBC0wKzApoCeg
JYYjaHR0cDovL2NybC5zZWN1cmV0cnVzdC5jb20vU1RDQS5jcmwwEAYJKwYBBAGC
NxUBBAMCAQAwDQYJKoZIhvcNAQEFBQADggEBADDtT0rhWDpSclu1pqNlGKa7UTt3
6Z3q059c4EVlew3KW+JwULKUBRSuSceNQQcSc5R+DCMh/bwQf2AQWnL1mA6s7Ll/
3XpvXdMc9P+IBWlCqQVxyLesJugutIxq/3HcuLHfmbx8IVQr5Fiiu1cprp6poxkm
D5kuCLDv/WnPmRoJjeOnnyvJNjR7JLN4TJUXpAYmHrZkUjZfYGfZnMUFdAvnZyPS
CPyI6a6Lf+Ew9Dd+/cYy2i2eRDAwbO4H3tI0/NL/QPZL9GZGBlSm8jIKYyYwa5vR
3ItHuuG51WLQoqD0ZwV4KWMabwTW+MZMo5qxN7SN5ShLHZ4swrhovO0C7jE=
-----END CERTIFICATE-----
