Certificate:
    Data:
        Version: 3 (0x2)
        Serial Number: 31 (0x1f)
    Signature Algorithm: sha256WithRSAEncryption
        Issuer: C=US, ST=California, L=Mountain View, O=Test CA, CN=Test Root CA
        Validity
            Not Before: May  1 00:00:00 2018 GMT
            Not After : Aug  3 00:00:00 2020 GMT
        Subject: C=US, ST=California, L=Mountain View, O=Test CA, CN=127.0.0.1
        Subject Public Key Info:
            Public Key Algorithm: rsaEncryption
                Public-Key: (2048 bit)
                Modulus:
                    00:dc:25:f0:b1:e7:f4:9a:33:24:c7:c7:55:bf:9f:
                    06:3f:3d:61:ec:6e:38:21:04:87:7b:ea:c9:37:1d:
                    ad:61:46:3d:0f:43:54:ea:b0:01:45:a8:5f:fc:04:
                    44:36:a5:0b:0e:53:49:ad:d4:de:70:b3:0e:9a:42:
                    35:17:44:c8:7b:80:6e:a3:1b:3e:16:21:1d:b3:b5:
                    08:89:97:ec:83:61:c6:a1:a5:6b:e7:f1:38:96:1b:
                    d1:db:2d:7e:93:90:3c:07:5b:77:6b:e0:18:63:f3:
                    ca:42:f1:97:7f:5b:44:9d:c1:65:34:cf:e8:4d:db:
                    b7:b2:8f:11:f9:0d:99:97:bd:56:24:22:aa:9a:02:
                    cb:93:e4:b2:55:bf:2d:82:2b:49:4f:2e:69:e2:e9:
                    a0:a5:18:95:f4:40:90:d7:90:34:cb:ad:a9:d8:a3:
                    1b:3c:a9:d9:0b:00:60:6c:43:1f:42:82:07:f0:99:
                    4b:d1:a6:66:7a:4e:69:3a:2f:c6:db:20:d0:58:80:
                    90:c2:dc:70:ee:22:85:fb:59:bb:25:ba:12:1a:27:
                    44:d6:f0:14:1a:71:f7:f9:fc:e5:3e:a5:7d:ad:e3:
                    35:9b:c8:61:f5:13:e4:b6:58:e6:8f:46:1f:f4:18:
                    69:76:78:eb:f9:ad:75:90:7c:69:dc:89:39:37:d7:
                    fc:2f
                Exponent: 65537 (0x10001)
        X509v3 extensions:
            X509v3 Basic Constraints: critical
                CA:FALSE
            X509v3 Subject Key Identifier: 
                FE:66:FC:2C:74:C7:2C:BB:9D:03:C1:68:2F:63:DC:AA:E7:7B:5F:F3
            X509v3 Authority Key Identifier: 
                keyid:9B:26:0B:8A:98:A9:BB:1D:B9:1F:1C:E3:1A:40:33:ED:8E:17:88:AB

            X509v3 Extended Key Usage: 
                TLS Web Server Authentication, TLS Web Client Authentication
            X509v3 Subject Alternative Name: 
                IP Address:127.0.0.1
    Signature Algorithm: sha256WithRSAEncryption
         2a:c8:c1:eb:97:c0:a7:01:7e:36:67:9b:8d:fe:ce:7d:30:25:
         7c:63:9b:be:fd:b0:b8:1d:25:ef:bf:f8:3a:58:78:24:08:de:
         37:b9:a9:48:66:8e:b7:db:e3:57:49:7f:f4:09:64:72:45:83:
         c2:d2:d7:0b:01:85:cc:4a:d9:1c:bc:0f:88:f2:2e:fa:e6:ee:
         3c:76:b3:f7:5d:ec:57:f1:23:be:54:18:b3:6f:95:56:c6:fe:
         29:ca:85:3f:4d:d8:d5:23:63:8f:fd:68:c0:54:d0:e0:7f:b3:
         2f:36:fb:3b:60:ec:5a:25:2a:88:0b:00:94:a5:c4:13:c6:d0:
         da:a6:f2:de:00:aa:ac:11:32:c3:30:ae:52:75:86:91:e5:5c:
         6a:b3:22:8d:2f:31:91:34:d1:2f:e3:59:53:4a:95:b9:17:34:
         e7:ab:15:9f:96:a0:61:e7:ad:a2:dc:ac:3b:71:65:3b:e5:a5:
         36:56:69:a3:ce:c5:fc:44:f6:28:85:72:7b:90:0e:c1:df:a5:
         36:0a:3b:d6:76:9c:1d:2c:b7:3f:9a:c0:95:93:e8:31:e7:e4:
         8b:07:67:06:20:44:56:be:a1:1f:9a:aa:24:53:93:3e:f2:0d:
         e4:f4:16:47:68:c5:6d:f4:c1:a6:c0:92:97:75:4e:f4:49:77:
         08:24:5e:8a
-----BEGIN CERTIFICATE-----
MIIDvzCCAqegAwIBAgIBHzANBgkqhkiG9w0BAQsFADBjMQswCQYDVQQGEwJVUzET
MBEGA1UECAwKQ2FsaWZvcm5pYTEWMBQGA1UEBwwNTW91bnRhaW4gVmlldzEQMA4G
A1UECgwHVGVzdCBDQTEVMBMGA1UEAwwMVGVzdCBSb290IENBMB4XDTE4MDUwMTAw
MDAwMFoXDTIwMDgwMzAwMDAwMFowYDELMAkGA1UEBhMCVVMxEzARBgNVBAgMCkNh
bGlmb3JuaWExFjAUBgNVBAcMDU1vdW50YWluIFZpZXcxEDAOBgNVBAoMB1Rlc3Qg
Q0ExEjAQBgNVBAMMCTEyNy4wLjAuMTCCASIwDQYJKoZIhvcNAQEBBQADggEPADCC
AQoCggEBANwl8LHn9JozJMfHVb+fBj89YexuOCEEh3vqyTcdrWFGPQ9DVOqwAUWo
X/wERDalCw5TSa3U3nCzDppCNRdEyHuAbqMbPhYhHbO1CImX7INhxqGla+fxOJYb
0dstfpOQPAdbd2vgGGPzykLxl39bRJ3BZTTP6E3bt7KPEfkNmZe9ViQiqpoCy5Pk
slW/LYIrSU8uaeLpoKUYlfRAkNeQNMutqdijGzyp2QsAYGxDH0KCB/CZS9GmZnpO
aTovxtsg0FiAkMLccO4ihftZuyW6EhonRNbwFBpx9/n85T6lfa3jNZvIYfUT5LZY
5o9GH/QYaXZ46/mtdZB8adyJOTfX/C8CAwEAAaOBgDB+MAwGA1UdEwEB/wQCMAAw
HQYDVR0OBBYEFP5m/Cx0xyy7nQPBaC9j3Krne1/zMB8GA1UdIwQYMBaAFJsmC4qY
qbsduR8c4xpAM+2OF4irMB0GA1UdJQQWMBQGCCsGAQUFBwMBBggrBgEFBQcDAjAP
BgNVHREECDAGhwR/AAABMA0GCSqGSIb3DQEBCwUAA4IBAQAqyMHrl8CnAX42Z5uN
/s59MCV8Y5u+/bC4HSXvv/g6WHgkCN43ualIZo632+NXSX/0CWRyRYPC0tcLAYXM
StkcvA+I8i765u48drP3XexX8SO+VBizb5VWxv4pyoU/TdjVI2OP/WjAVNDgf7Mv
Nvs7YOxaJSqICwCUpcQTxtDapvLeAKqsETLDMK5SdYaR5VxqsyKNLzGRNNEv41lT
SpW5FzTnqxWflqBh562i3Kw7cWU75aU2VmmjzsX8RPYohXJ7kA7B36U2CjvWdpwd
LLc/msCVk+gx5+SLB2cGIERWvqEfmqokU5M+8g3k9BZHaMVt9MGmwJKXdU70SXcI
JF6K
-----END CERTIFICATE-----
