-----BEGIN PRIVATE KEY-----
MIIEvQIBADANBgkqhkiG9w0BAQEFAASCBKcwggSjAgEAAoIBAQC0v9KXM+UTW3dl
vXMadSibR1nmtzDoRjNtWFvaHwr/5OQt8h34iehkLvbDzdejjtf3zefYDhDD51bS
/OXm007i/4JNGGOHsKPe2u8KN3ustbdDzvIHOd8U6cOkQT5+aEc0m3thxBjmE86z
tKbgugPu5OvnqvRtvpdbqgaXUAHQeLjWkrDk4rlDiLWuFGR9UnDUBRwJJdXiT8mo
gttBMcO+RG8L1P2/we7ZYr87j7UAyNHfXUoTrXHkS1/R2XJMg9iTQL9szS9mDgTW
uUMoJMkl/Vlw/j3yqQpOwpvE3p5XXl0WJeZ4tkRJKZ32v3T7hdYN8WVY8ivWjxBJ
yAAtiOItAgMBAAECggEAXuyGumXEnl/g2oueEX0J8FKOgj4e7z0+8OQAiRLYgf9B
XmfTGZ3DcCnB6p8F6p2wCjIW2j64y0mJLZEnZAwBV/F8CuUOEErSJM2x0BnHV7Kv
JmtebDEWWTNTTcX9/gDhtF0bdQK5WMt6OKJdKZRHUITk52u+pov7jWZDw99+tG5w
InCv1RekWbAGZWLs9hyzpOpvp0tGM2O9+XCWQh/LLeLb5rJkTcH8NKv9Xh+tLeSU
i/FER+rQHsMVA4uHdBmRgPsBnPrJopcKWQImRXDGidEd5AUWLIECQdnZI8pbtmjV
0HZj+UuUlDFdALmCHX+NxR4Z+hyi+E96ZWw/J9FHwQKBgQDYX0e873Sf4tDOn0cZ
Olof3cXPri8ezKoeAD8tfY0bxLIoOwDUtJXZeGEZD3sduDJDCdvS1M/eeW04ePlx
kTmcDecaYm4t3KYzbPauudbMQEQFvsoivp8ct/synPcRtGPTHg+GUHaqWT1d4DjT
WClxx67ugD/YQYs5UY/uLjm4tQKBgQDV2lh1Uk3xBj15FZrzg/7GM7bK3L/Xcxzz
VewAksKuVEyoqHfZAo6P/xOiQkwc9kBoet43MiNyph/kYssQowE+Pg+WffB1Ve4F
kVsq6z1mwAfnYD6m4GHxfrV6VxwM3ItiX+PiKQ4YWsbyjc/vC4ZRSarLwbk8Woya
lNucr2hGmQKBgF5sdioFdaewm98Psz9XL61oYsLXCMkwF60v/mIjwEi19emIljw8
8ogM+JKvJtM5ZvXKf5vqMyyrYPacFH9zGOj5SDlDa0GoYP9gNebaQtqv0P+Q2zV+
aoFl6MGVrlyTlFy1aaD7zE1a1GT7TNEuUCfPNI/wd+wv7kn9RgpzMc1hAoGBAJrh
5Zkq/+olc9ZDcJMXsSkJgUURdhvrcjdGroOHx1oNEexA/3P7ZxchTa4ByDBdpS5G
drSRKp05dfWqG5o0BI140z9SfRnuH1KHAPlnoHPPdqn7ycSA1E7cT0GI33btMEIS
YvCEfYHkFRzM2qEtvp0W9o1WA/uTNSwrzZaAb8xZAoGAZZLwniPa8zkd+4WAPSN6
LVj+1dGasfL/zftFhVxu0/KCpdggghG26Ej0ieG71k8Xg9tpZDJvo9Kj0s8Hu4Zu
TnhwwRVyUHls+Gl0t8XXV/ryRLHB8zY45k6A+Yvc/iOYQVmY2rE4kB4PDsrJ+d5P
wA1o1OPvcx28oBjHViWoWJQ=
-----END PRIVATE KEY-----
Certificate:
    Data:
        Version: 3 (0x2)
        Serial Number: 5 (0x5)
    Signature Algorithm: sha256WithRSAEncryption
        Issuer: C=US, ST=California, L=Mountain View, O=Test CA, CN=Test Root CA
        Validity
            Not Before: Jun  5 17:10:46 2017 GMT
            Not After : Jun  3 17:10:46 2027 GMT
        Subject: CN=Leaf certificate
        Subject Public Key Info:
            Public Key Algorithm: rsaEncryption
                Public-Key: (2048 bit)
                Modulus:
                    00:b4:bf:d2:97:33:e5:13:5b:77:65:bd:73:1a:75:
                    28:9b:47:59:e6:b7:30:e8:46:33:6d:58:5b:da:1f:
                    0a:ff:e4:e4:2d:f2:1d:f8:89:e8:64:2e:f6:c3:cd:
                    d7:a3:8e:d7:f7:cd:e7:d8:0e:10:c3:e7:56:d2:fc:
                    e5:e6:d3:4e:e2:ff:82:4d:18:63:87:b0:a3:de:da:
                    ef:0a:37:7b:ac:b5:b7:43:ce:f2:07:39:df:14:e9:
                    c3:a4:41:3e:7e:68:47:34:9b:7b:61:c4:18:e6:13:
                    ce:b3:b4:a6:e0:ba:03:ee:e4:eb:e7:aa:f4:6d:be:
                    97:5b:aa:06:97:50:01:d0:78:b8:d6:92:b0:e4:e2:
                    b9:43:88:b5:ae:14:64:7d:52:70:d4:05:1c:09:25:
                    d5:e2:4f:c9:a8:82:db:41:31:c3:be:44:6f:0b:d4:
                    fd:bf:c1:ee:d9:62:bf:3b:8f:b5:00:c8:d1:df:5d:
                    4a:13:ad:71:e4:4b:5f:d1:d9:72:4c:83:d8:93:40:
                    bf:6c:cd:2f:66:0e:04:d6:b9:43:28:24:c9:25:fd:
                    59:70:fe:3d:f2:a9:0a:4e:c2:9b:c4:de:9e:57:5e:
                    5d:16:25:e6:78:b6:44:49:29:9d:f6:bf:74:fb:85:
                    d6:0d:f1:65:58:f2:2b:d6:8f:10:49:c8:00:2d:88:
                    e2:2d
                Exponent: 65537 (0x10001)
        X509v3 extensions:
            X509v3 Basic Constraints: critical
                CA:FALSE
            X509v3 Subject Key Identifier: 
                E0:DC:E0:2F:07:88:74:3A:9F:D3:30:A3:71:8A:F9:D6:A5:E5:A6:53
            X509v3 Authority Key Identifier: 
                keyid:9B:26:0B:8A:98:A9:BB:1D:B9:1F:1C:E3:1A:40:33:ED:8E:17:88:AB

            X509v3 Extended Key Usage: 
                TLS Web Server Authentication, TLS Web Client Authentication
            X509v3 Subject Alternative Name: 
                DNS:test.ExAmPlE.CoM, DNS:test.ExAmPlE.OrG
    Signature Algorithm: sha256WithRSAEncryption
         92:fd:ff:16:24:68:99:2d:98:cd:7c:63:d8:89:31:a1:5b:51:
         19:85:21:d9:2c:a0:f9:a0:40:5d:e4:a7:c5:8c:9c:fe:cd:1c:
         8d:7e:9d:22:fb:0a:66:dc:6a:3d:e9:7a:3c:b6:51:15:f9:49:
         4b:0b:53:a3:f4:91:0b:f5:0d:78:b5:aa:3b:11:8d:9c:d2:b8:
         34:e2:53:07:49:d0:97:29:62:ca:6b:25:c0:ab:af:8e:a5:7c:
         1d:7f:12:52:12:cc:00:f3:78:f8:dd:0d:a0:96:3b:7f:fd:35:
         69:2c:23:a4:3a:fd:91:3b:c3:57:46:95:d8:a1:07:15:94:22:
         4a:e8:09:ca:ab:3a:e9:81:3a:3a:3d:6d:90:2c:db:4f:ec:a1:
         a3:1f:66:20:78:a8:61:55:ac:a8:f2:a5:83:1e:7f:08:98:89:
         f2:b6:bd:a4:12:71:bd:8e:89:bf:c1:d5:11:a8:3f:4c:13:7a:
         36:c9:6e:89:bb:d2:20:6d:7c:f2:db:3c:e5:9e:bb:12:7e:52:
         80:fd:d2:0a:71:7a:28:ab:70:76:1c:5d:e7:22:70:1d:cf:5b:
         15:0b:df:2f:46:18:79:01:cb:a4:86:b1:0c:e9:3a:1c:ce:58:
         af:b7:ad:24:e4:b7:4e:7e:06:89:b6:47:49:56:9c:a6:c1:d8:
         3a:48:e1:a7
-----BEGIN CERTIFICATE-----
MIIDmTCCAoGgAwIBAgIBBTANBgkqhkiG9w0BAQsFADBjMQswCQYDVQQGEwJVUzET
MBEGA1UECAwKQ2FsaWZvcm5pYTEWMBQGA1UEBwwNTW91bnRhaW4gVmlldzEQMA4G
A1UECgwHVGVzdCBDQTEVMBMGA1UEAwwMVGVzdCBSb290IENBMB4XDTE3MDYwNTE3
MTA0NloXDTI3MDYwMzE3MTA0NlowGzEZMBcGA1UEAxMQTGVhZiBjZXJ0aWZpY2F0
ZTCCASIwDQYJKoZIhvcNAQEBBQADggEPADCCAQoCggEBALS/0pcz5RNbd2W9cxp1
KJtHWea3MOhGM21YW9ofCv/k5C3yHfiJ6GQu9sPN16OO1/fN59gOEMPnVtL85ebT
TuL/gk0YY4ewo97a7wo3e6y1t0PO8gc53xTpw6RBPn5oRzSbe2HEGOYTzrO0puC6
A+7k6+eq9G2+l1uqBpdQAdB4uNaSsOTiuUOIta4UZH1ScNQFHAkl1eJPyaiC20Ex
w75EbwvU/b/B7tlivzuPtQDI0d9dShOtceRLX9HZckyD2JNAv2zNL2YOBNa5Qygk
ySX9WXD+PfKpCk7Cm8TenldeXRYl5ni2REkpnfa/dPuF1g3xZVjyK9aPEEnIAC2I
4i0CAwEAAaOBnzCBnDAMBgNVHRMBAf8EAjAAMB0GA1UdDgQWBBTg3OAvB4h0Op/T
MKNxivnWpeWmUzAfBgNVHSMEGDAWgBSbJguKmKm7HbkfHOMaQDPtjheIqzAdBgNV
HSUEFjAUBggrBgEFBQcDAQYIKwYBBQUHAwIwLQYDVR0RBCYwJIIQdGVzdC5FeEFt
UGxFLkNvTYIQdGVzdC5FeEFtUGxFLk9yRzANBgkqhkiG9w0BAQsFAAOCAQEAkv3/
FiRomS2YzXxj2IkxoVtRGYUh2Syg+aBAXeSnxYyc/s0cjX6dIvsKZtxqPel6PLZR
FflJSwtTo/SRC/UNeLWqOxGNnNK4NOJTB0nQlyliymslwKuvjqV8HX8SUhLMAPN4
+N0NoJY7f/01aSwjpDr9kTvDV0aV2KEHFZQiSugJyqs66YE6Oj1tkCzbT+yhox9m
IHioYVWsqPKlgx5/CJiJ8ra9pBJxvY6Jv8HVEag/TBN6NsluibvSIG188ts85Z67
En5SgP3SCnF6KKtwdhxd5yJwHc9bFQvfL0YYeQHLpIaxDOk6HM5Yr7etJOS3Tn4G
ibZHSVacpsHYOkjhpw==
-----END CERTIFICATE-----
