-----BEGIN RSA PRIVATE KEY-----
MIIEpQIBAAKCAQEA2f3ZUc459VPIfpNTUI40YfF1kwO+0B+mfKA74arroenNaykU
dR6azriRbYUzPtjLbIuu/NDXBc4Msv47X9EVTVs0ozjMgOOcTGVitrE/4Sww9anT
+VBWU9Tdp5ZRIRsZPvZzyEpb/MxOJKHX0JGsCPfpBJxRWQUNVChh0NVkOJyAMZiG
gmGkSeg6/d9xNy/2rNoIpNgfnLEhu7FxyB0940wQYA5prnyL/S/qfab4V40LuGZX
CrvWQ+twkx2rpQb4HRTx2YGtK/5YSh41hEoGThY/SZtXFhMtQyRSa6sKuhT2YaWH
MaEb9jbIeq3POXovhTSecA0Tw7bG0CtZEzwZVQIDAQABAoIBAQClUTsPLAuOPmTN
gSLs83tMT9avkGaT5XzYBJiFEp8yImJTg0rtazFR1m0Llrl/TuAuyFwDhMmcsF+3
GtCiYKj8ClAH/JoyoOq2kSjkjdV5CY9zrsB/0Wo2lzcl0fxi0+84baTu312VgMc+
RrKpjN/fyUqg4X9buFYcXaeYvUwNFVO7SWc1PIZO4AEqf1eYS8nfjShAiYFUj7cX
5rg8SBabVyrvCnvBWXc/DVnAUqbOWF3R17om3uRWY4tiVI9qpvi8RWQDTP3f/hLw
SqlLJEAr9w0x7VHNr5EN1HC+TcbQlW73dVTuHY8SQVRxzyde3BHB7/YOaqTt6YKK
wSxqxrG9AoGBAPrU0WZ4webJv/cTfUDvJfgrkWphBhnT8/w5wSH0zBuRONktT6oX
3y9Hjy+HR/+uRQO0Nywbb3+ZKkZeUUWylu1FCkwO/zLlRefNnHV2CRBoMnFgJtoY
TttUUNzzJmExjTEu3qPJ8TbzTA8vdk+387g9Rzbb3mjbcwvKxkjSuGhjAoGBAN57
y5adtf551eyjRixEAQVFe5Iq0dUrp5T2bND4tHZzm6IYzbPEos8CHTs6tbHZGbws
w7zKxg0I7A/ZqRH3ngwdasaL7WrtTDNoAOkCvnqTjuxnoF0569Ko4sjiWVvcznZU
b5SInRfbHVT8g71DlahaRVQt0Rn8kmlvqEPeUvjnAoGBAJfz0R84zI6ZbfeqENkD
h4b+Lcu6F04SPt5vxnZhrDyPD1dRwc8TQxuLSEzMsWtNEXYa+Ml5nWQ5T4jtnmKQ
vCnlB0XoV+VnS6APyVbHONp9pQFV9HNvAmaQf6Q6kOeUcyp2cF3c+ooFffA9GnlU
wQq95KRxMh1nxBxCrTh0n05tAoGARo29l0r2PvgGFiAFDd6W8EQDluvLVS2d3Eh1
Y6OrHvE0hqgU+5A9DSaffHv2yKqPVbRgcktfmRyeN7yPuCntTew6QzJ2nPUZuCeg
OkRrgVWv+lo2aboHheuW15uoONCCDNZj+BeGsd0DpULayDdZi2TtHW/WIsaM67DE
DJnBeDsCgYEAxWINst8mfuR2pKlVbQ8mMgo/LwKWqQgnpWpbf0gGMjdUpAoN5dh/
l4VmO63Z/dAOyxQFAsqWS3pme2RfC2U94ZUOfFH58gLSNX7LWtBTZEhKLMs6Hfgr
aDJeuEEIrB+3snvqEWMztpxwHszx/YrDXwEbri557ve2UB2NtOcP3dc=
-----END RSA PRIVATE KEY-----
Certificate:
    Data:
        Version: 1 (0x0)
        Serial Number: 1 (0x1)
    Signature Algorithm: sha256WithRSAEncryption
        Issuer: CN=2048 RSA Test Root CA
        Validity
            Not Before: Aug 14 02:46:30 2014 GMT
            Not After : Aug 11 02:46:30 2024 GMT
        Subject: C=US, ST=California, L=Mountain View, O=Test CA, CN=127.0.0.1
        Subject Public Key Info:
            Public Key Algorithm: rsaEncryption
                Public-Key: (2048 bit)
                Modulus:
                    00:d9:fd:d9:51:ce:39:f5:53:c8:7e:93:53:50:8e:
                    34:61:f1:75:93:03:be:d0:1f:a6:7c:a0:3b:e1:aa:
                    eb:a1:e9:cd:6b:29:14:75:1e:9a:ce:b8:91:6d:85:
                    33:3e:d8:cb:6c:8b:ae:fc:d0:d7:05:ce:0c:b2:fe:
                    3b:5f:d1:15:4d:5b:34:a3:38:cc:80:e3:9c:4c:65:
                    62:b6:b1:3f:e1:2c:30:f5:a9:d3:f9:50:56:53:d4:
                    dd:a7:96:51:21:1b:19:3e:f6:73:c8:4a:5b:fc:cc:
                    4e:24:a1:d7:d0:91:ac:08:f7:e9:04:9c:51:59:05:
                    0d:54:28:61:d0:d5:64:38:9c:80:31:98:86:82:61:
                    a4:49:e8:3a:fd:df:71:37:2f:f6:ac:da:08:a4:d8:
                    1f:9c:b1:21:bb:b1:71:c8:1d:3d:e3:4c:10:60:0e:
                    69:ae:7c:8b:fd:2f:ea:7d:a6:f8:57:8d:0b:b8:66:
                    57:0a:bb:d6:43:eb:70:93:1d:ab:a5:06:f8:1d:14:
                    f1:d9:81:ad:2b:fe:58:4a:1e:35:84:4a:06:4e:16:
                    3f:49:9b:57:16:13:2d:43:24:52:6b:ab:0a:ba:14:
                    f6:61:a5:87:31:a1:1b:f6:36:c8:7a:ad:cf:39:7a:
                    2f:85:34:9e:70:0d:13:c3:b6:c6:d0:2b:59:13:3c:
                    19:55
                Exponent: 65537 (0x10001)
        X509v3 extensions:
            X509v3 Subject Alternative Name: 
                IP Address:127.0.0.1
            X509v3 Basic Constraints: critical
                CA:FALSE
            X509v3 Subject Key Identifier: 
                47:76:6C:80:D1:4C:7A:B4:31:22:B8:50:62:FC:6B:D3:FD:B1:55:FA
            X509v3 Extended Key Usage: 
                Code Signing
    Signature Algorithm: sha256WithRSAEncryption
         37:61:d4:3b:d5:b6:77:53:54:17:d7:d7:78:4f:06:34:40:60:
         dd:35:cf:fc:c5:07:c0:2c:86:72:c1:10:a1:3d:6e:af:53:8c:
         de:b1:69:b9:00:8b:8b:d5:21:45:66:8f:53:98:78:d1:86:dc:
         8b:12:f3:b6:4a:e7:ae:19:b5:75:b1:7b:e6:27:dc:82:0d:44:
         8e:15:c7:fb:57:7b:78:4d:6d:2f:2a:c7:cc:ec:9e:15:be:47:
         2e:e3:7f:bd:09:a2:f5:4f:90:15:b5:6f:3a:ec:cc:a1:00:db:
         91:a8:8a:c2:d3:1f:d9:20:b0:8e:79:5f:2a:31:c6:48:45:6c:
         f0:c3:f5:78:ea:92:21:49:82:fe:02:b6:e4:58:52:9b:98:31:
         c0:a3:bd:9c:5d:a6:32:7d:e2:7f:8b:57:25:2a:5a:a4:64:64:
         f9:20:4d:6d:be:95:81:6a:3f:ce:7a:a3:c8:e5:26:d2:c0:95:
         ce:90:db:b0:90:7e:f9:fe:2b:96:06:ca:72:2d:c9:a3:c0:6c:
         84:1a:8a:f3:1a:93:09:2f:34:ec:a8:c7:88:79:eb:2e:a6:77:
         51:5d:79:00:db:8f:a4:5a:e5:58:7f:94:bb:2b:4c:24:16:56:
         4a:7a:49:3b:d9:b1:77:b0:21:c9:ba:73:96:68:8a:59:69:a5:
         96:4d:b7:a1
-----BEGIN CERTIFICATE-----
MIIDSzCCAjMCAQEwDQYJKoZIhvcNAQELBQAwIDEeMBwGA1UEAwwVMjA0OCBSU0Eg
VGVzdCBSb290IENBMB4XDTE0MDgxNDAyNDYzMFoXDTI0MDgxMTAyNDYzMFowYDEL
MAkGA1UEBhMCVVMxEzARBgNVBAgMCkNhbGlmb3JuaWExFjAUBgNVBAcMDU1vdW50
YWluIFZpZXcxEDAOBgNVBAoMB1Rlc3QgQ0ExEjAQBgNVBAMMCTEyNy4wLjAuMTCC
ASIwDQYJKoZIhvcNAQEBBQADggEPADCCAQoCggEBANn92VHOOfVTyH6TU1CONGHx
dZMDvtAfpnygO+Gq66HpzWspFHUems64kW2FMz7Yy2yLrvzQ1wXODLL+O1/RFU1b
NKM4zIDjnExlYraxP+EsMPWp0/lQVlPU3aeWUSEbGT72c8hKW/zMTiSh19CRrAj3
6QScUVkFDVQoYdDVZDicgDGYhoJhpEnoOv3fcTcv9qzaCKTYH5yxIbuxccgdPeNM
EGAOaa58i/0v6n2m+FeNC7hmVwq71kPrcJMdq6UG+B0U8dmBrSv+WEoeNYRKBk4W
P0mbVxYTLUMkUmurCroU9mGlhzGhG/Y2yHqtzzl6L4U0nnANE8O2xtArWRM8GVUC
AwEAAaNVMFMwDwYDVR0RBAgwBocEfwAAATAMBgNVHRMBAf8EAjAAMB0GA1UdDgQW
BBRHdmyA0Ux6tDEiuFBi/GvT/bFV+jATBgNVHSUEDDAKBggrBgEFBQcDAzANBgkq
hkiG9w0BAQsFAAOCAQEAN2HUO9W2d1NUF9fXeE8GNEBg3TXP/MUHwCyGcsEQoT1u
r1OM3rFpuQCLi9UhRWaPU5h40YbcixLztkrnrhm1dbF75ifcgg1EjhXH+1d7eE1t
LyrHzOyeFb5HLuN/vQmi9U+QFbVvOuzMoQDbkaiKwtMf2SCwjnlfKjHGSEVs8MP1
eOqSIUmC/gK25FhSm5gxwKO9nF2mMn3if4tXJSpapGRk+SBNbb6VgWo/znqjyOUm
0sCVzpDbsJB++f4rlgbKci3Jo8BshBqK8xqTCS807KjHiHnrLqZ3UV15ANuPpFrl
WH+UuytMJBZWSnpJO9mxd7AhybpzlmiKWWmllk23oQ==
-----END CERTIFICATE-----
