Certificate:
    Data:
        Version: 3 (0x2)
        Serial Number: 1 (0x1)
    Signature Algorithm: sha256WithRSAEncryption
        Issuer: CN=Testing CA
        Validity
            Not Before: Jan  1 06:00:00 2010 GMT
            Not After : Dec  1 06:00:00 2032 GMT
        Subject: CN=Testing CA
        Subject Public Key Info:
            Public Key Algorithm: rsaEncryption
                Public-Key: (2048 bit)
                Modulus:
                    00:c1:54:1f:ac:63:d3:b9:69:aa:23:1a:02:cb:2e:
                    0d:9e:e7:b2:67:24:f1:36:c1:21:b2:c2:8b:da:e5:
                    ca:a8:77:33:cc:40:7a:d8:38:42:ef:20:ec:67:d9:
                    41:b4:48:a1:ce:35:57:cf:5d:de:bf:3c:9b:de:8f:
                    36:f2:53:ee:73:e6:70:d1:c4:c6:63:1d:1d:dc:0e:
                    39:cb:de:09:b8:33:f6:63:47:ea:37:9c:3f:a8:91:
                    d6:1a:0c:a0:05:b3:8b:0b:2c:ad:10:58:e3:58:9c:
                    9f:30:60:0b:e8:1e:4f:f4:ac:22:09:72:c1:7b:74:
                    f9:2f:03:d7:2b:49:6f:64:35:43:d0:b2:7a:52:27:
                    f1:ef:ee:13:c1:38:88:8b:23:cb:10:18:77:b3:b4:
                    dc:09:1f:0b:3b:b6:fc:3c:79:21:87:b0:5a:b3:8e:
                    97:86:2f:8a:f6:15:6b:cb:fb:b8:24:38:51:32:c6:
                    74:1e:6c:65:cf:cd:5f:13:14:24:21:a2:10:b9:51:
                    85:88:4c:48:66:f3:ea:64:4d:fb:80:06:13:3d:14:
                    e7:2a:47:04:f3:e7:00:cf:82:7c:a5:ff:d2:ef:74:
                    c2:ab:6a:52:59:ff:ff:40:f0:f7:f6:07:89:13:88:
                    f9:17:fc:9f:c9:e6:57:42:df:1b:fa:0b:32:21:40:
                    bb:65
                Exponent: 65537 (0x10001)
        X509v3 extensions:
            X509v3 Basic Constraints: critical
                CA:TRUE, pathlen:1
            X509v3 Certificate Policies: 
                Policy: 1.3.6.1.4.1.11129.2.4.1

    Signature Algorithm: sha256WithRSAEncryption
         33:6b:be:80:32:a8:05:66:6f:27:4f:04:17:cb:46:ac:87:e0:
         35:ed:da:fb:8c:56:69:d2:76:75:a7:3b:16:22:11:ec:c6:98:
         d4:8d:88:ed:64:d5:91:41:c1:54:ac:77:e2:47:ad:3d:b8:95:
         ac:7d:92:f5:35:c9:00:d6:ff:f3:c1:bb:78:a3:7d:93:82:68:
         85:25:79:08:86:5c:73:06:7d:5e:0c:8f:38:18:6f:1a:6f:1c:
         eb:c4:50:2e:88:5e:66:02:b0:81:30:71:98:0a:96:bc:27:7c:
         94:37:31:55:38:84:e8:06:4e:53:93:59:83:ed:0b:0b:d3:b0:
         13:9b:35:12:dd:22:cf:a2:7c:c4:22:5a:6c:cf:06:53:3c:5d:
         e5:f8:7b:96:9c:0e:34:db:7a:67:0d:e2:cc:d4:dc:47:20:98:
         20:34:2e:f0:48:44:8e:05:e8:d5:a9:68:82:65:d9:69:cb:c8:
         c5:03:c8:aa:b8:be:3a:51:24:e6:64:37:00:02:fb:9d:b9:76:
         e0:eb:24:51:38:3c:a4:76:2e:1e:77:9c:94:08:26:fe:a6:71:
         36:50:91:7d:66:9b:0d:32:ce:a5:b1:70:60:a8:1c:00:a6:6b:
         74:e0:4b:03:87:af:2b:d2:a2:92:fe:b7:6e:be:66:54:2f:3f:
         6c:a0:c2:a6
-----BEGIN CERTIFICATE-----
MIIC1DCCAbygAwIBAgIBATANBgkqhkiG9w0BAQsFADAVMRMwEQYDVQQDEwpUZXN0
aW5nIENBMB4XDTEwMDEwMTA2MDAwMFoXDTMyMTIwMTA2MDAwMFowFTETMBEGA1UE
AxMKVGVzdGluZyBDQTCCASIwDQYJKoZIhvcNAQEBBQADggEPADCCAQoCggEBAMFU
H6xj07lpqiMaAssuDZ7nsmck8TbBIbLCi9rlyqh3M8xAetg4Qu8g7GfZQbRIoc41
V89d3r88m96PNvJT7nPmcNHExmMdHdwOOcveCbgz9mNH6jecP6iR1hoMoAWziwss
rRBY41icnzBgC+geT/SsIglywXt0+S8D1ytJb2Q1Q9CyelIn8e/uE8E4iIsjyxAY
d7O03AkfCzu2/Dx5IYewWrOOl4YvivYVa8v7uCQ4UTLGdB5sZc/NXxMUJCGiELlR
hYhMSGbz6mRN+4AGEz0U5ypHBPPnAM+CfKX/0u90wqtqUln//0Dw9/YHiROI+Rf8
n8nmV0LfG/oLMiFAu2UCAwEAAaMvMC0wEgYDVR0TAQH/BAgwBgEB/wIBATAXBgNV
HSAEEDAOMAwGCisGAQQB1nkCBAEwDQYJKoZIhvcNAQELBQADggEBADNrvoAyqAVm
bydPBBfLRqyH4DXt2vuMVmnSdnWnOxYiEezGmNSNiO1k1ZFBwVSsd+JHrT24lax9
kvU1yQDW//PBu3ijfZOCaIUleQiGXHMGfV4MjzgYbxpvHOvEUC6IXmYCsIEwcZgK
lrwnfJQ3MVU4hOgGTlOTWYPtCwvTsBObNRLdIs+ifMQiWmzPBlM8XeX4e5acDjTb
emcN4szU3EcgmCA0LvBIRI4F6NWpaIJl2WnLyMUDyKq4vjpRJOZkNwAC+525duDr
JFE4PKR2Lh53nJQIJv6mcTZQkX1mmw0yzqWxcGCoHACma3TgSwOHryvSopL+t26+
ZlQvP2ygwqY=
-----END CERTIFICATE-----
