-----BEGIN PRIVATE KEY-----
MIIEvQIBADANBgkqhkiG9w0BAQEFAASCBKcwggSjAgEAAoIBAQC0v9KXM+UTW3dl
vXMadSibR1nmtzDoRjNtWFvaHwr/5OQt8h34iehkLvbDzdejjtf3zefYDhDD51bS
/OXm007i/4JNGGOHsKPe2u8KN3ustbdDzvIHOd8U6cOkQT5+aEc0m3thxBjmE86z
tKbgugPu5OvnqvRtvpdbqgaXUAHQeLjWkrDk4rlDiLWuFGR9UnDUBRwJJdXiT8mo
gttBMcO+RG8L1P2/we7ZYr87j7UAyNHfXUoTrXHkS1/R2XJMg9iTQL9szS9mDgTW
uUMoJMkl/Vlw/j3yqQpOwpvE3p5XXl0WJeZ4tkRJKZ32v3T7hdYN8WVY8ivWjxBJ
yAAtiOItAgMBAAECggEAXuyGumXEnl/g2oueEX0J8FKOgj4e7z0+8OQAiRLYgf9B
XmfTGZ3DcCnB6p8F6p2wCjIW2j64y0mJLZEnZAwBV/F8CuUOEErSJM2x0BnHV7Kv
JmtebDEWWTNTTcX9/gDhtF0bdQK5WMt6OKJdKZRHUITk52u+pov7jWZDw99+tG5w
InCv1RekWbAGZWLs9hyzpOpvp0tGM2O9+XCWQh/LLeLb5rJkTcH8NKv9Xh+tLeSU
i/FER+rQHsMVA4uHdBmRgPsBnPrJopcKWQImRXDGidEd5AUWLIECQdnZI8pbtmjV
0HZj+UuUlDFdALmCHX+NxR4Z+hyi+E96ZWw/J9FHwQKBgQDYX0e873Sf4tDOn0cZ
Olof3cXPri8ezKoeAD8tfY0bxLIoOwDUtJXZeGEZD3sduDJDCdvS1M/eeW04ePlx
kTmcDecaYm4t3KYzbPauudbMQEQFvsoivp8ct/synPcRtGPTHg+GUHaqWT1d4DjT
WClxx67ugD/YQYs5UY/uLjm4tQKBgQDV2lh1Uk3xBj15FZrzg/7GM7bK3L/Xcxzz
VewAksKuVEyoqHfZAo6P/xOiQkwc9kBoet43MiNyph/kYssQowE+Pg+WffB1Ve4F
kVsq6z1mwAfnYD6m4GHxfrV6VxwM3ItiX+PiKQ4YWsbyjc/vC4ZRSarLwbk8Woya
lNucr2hGmQKBgF5sdioFdaewm98Psz9XL61oYsLXCMkwF60v/mIjwEi19emIljw8
8ogM+JKvJtM5ZvXKf5vqMyyrYPacFH9zGOj5SDlDa0GoYP9gNebaQtqv0P+Q2zV+
aoFl6MGVrlyTlFy1aaD7zE1a1GT7TNEuUCfPNI/wd+wv7kn9RgpzMc1hAoGBAJrh
5Zkq/+olc9ZDcJMXsSkJgUURdhvrcjdGroOHx1oNEexA/3P7ZxchTa4ByDBdpS5G
drSRKp05dfWqG5o0BI140z9SfRnuH1KHAPlnoHPPdqn7ycSA1E7cT0GI33btMEIS
YvCEfYHkFRzM2qEtvp0W9o1WA/uTNSwrzZaAb8xZAoGAZZLwniPa8zkd+4WAPSN6
LVj+1dGasfL/zftFhVxu0/KCpdggghG26Ej0ieG71k8Xg9tpZDJvo9Kj0s8Hu4Zu
TnhwwRVyUHls+Gl0t8XXV/ryRLHB8zY45k6A+Yvc/iOYQVmY2rE4kB4PDsrJ+d5P
wA1o1OPvcx28oBjHViWoWJQ=
-----END PRIVATE KEY-----
Certificate:
    Data:
        Version: 3 (0x2)
        Serial Number: 1 (0x1)
    Signature Algorithm: sha256WithRSAEncryption
        Issuer: C=US, ST=California, L=Mountain View, O=Test CA, CN=Test Intermediate CA
        Validity
            Not Before: Jun  5 17:10:46 2017 GMT
            Not After : Jun  3 17:10:46 2027 GMT
        Subject: C=US, ST=California, L=Mountain View, O=Test CA, CN=127.0.0.1
        Subject Public Key Info:
            Public Key Algorithm: rsaEncryption
                Public-Key: (2048 bit)
                Modulus:
                    00:b4:bf:d2:97:33:e5:13:5b:77:65:bd:73:1a:75:
                    28:9b:47:59:e6:b7:30:e8:46:33:6d:58:5b:da:1f:
                    0a:ff:e4:e4:2d:f2:1d:f8:89:e8:64:2e:f6:c3:cd:
                    d7:a3:8e:d7:f7:cd:e7:d8:0e:10:c3:e7:56:d2:fc:
                    e5:e6:d3:4e:e2:ff:82:4d:18:63:87:b0:a3:de:da:
                    ef:0a:37:7b:ac:b5:b7:43:ce:f2:07:39:df:14:e9:
                    c3:a4:41:3e:7e:68:47:34:9b:7b:61:c4:18:e6:13:
                    ce:b3:b4:a6:e0:ba:03:ee:e4:eb:e7:aa:f4:6d:be:
                    97:5b:aa:06:97:50:01:d0:78:b8:d6:92:b0:e4:e2:
                    b9:43:88:b5:ae:14:64:7d:52:70:d4:05:1c:09:25:
                    d5:e2:4f:c9:a8:82:db:41:31:c3:be:44:6f:0b:d4:
                    fd:bf:c1:ee:d9:62:bf:3b:8f:b5:00:c8:d1:df:5d:
                    4a:13:ad:71:e4:4b:5f:d1:d9:72:4c:83:d8:93:40:
                    bf:6c:cd:2f:66:0e:04:d6:b9:43:28:24:c9:25:fd:
                    59:70:fe:3d:f2:a9:0a:4e:c2:9b:c4:de:9e:57:5e:
                    5d:16:25:e6:78:b6:44:49:29:9d:f6:bf:74:fb:85:
                    d6:0d:f1:65:58:f2:2b:d6:8f:10:49:c8:00:2d:88:
                    e2:2d
                Exponent: 65537 (0x10001)
        X509v3 extensions:
            X509v3 Basic Constraints: critical
                CA:FALSE
            X509v3 Subject Key Identifier: 
                E0:DC:E0:2F:07:88:74:3A:9F:D3:30:A3:71:8A:F9:D6:A5:E5:A6:53
            X509v3 Authority Key Identifier: 
                keyid:17:5C:45:F3:D0:AC:1C:10:4C:8B:43:44:20:C4:DD:93:C5:C5:19:3B

            X509v3 Extended Key Usage: 
                TLS Web Server Authentication, TLS Web Client Authentication
            X509v3 Subject Alternative Name: 
                IP Address:127.0.0.1
    Signature Algorithm: sha256WithRSAEncryption
         43:f7:63:38:a3:30:3f:ab:e6:6c:42:a1:dd:ff:8d:f6:ad:b2:
         eb:b6:9e:4b:bd:90:fc:d8:f4:f0:5a:42:fc:be:5b:cc:c7:24:
         2f:91:48:a6:a1:bb:a2:b7:19:61:21:ac:d3:81:ee:6e:bb:04:
         2d:16:b5:7e:cb:e6:a3:17:8f:3e:65:4d:1d:8d:c1:da:3d:3b:
         ad:a1:b3:e8:f5:e3:16:13:17:0a:a3:45:e0:cf:84:b2:3d:e8:
         38:69:31:46:e8:8c:10:63:0f:5e:6b:f4:10:25:23:98:b8:5c:
         d9:06:78:83:18:70:09:a6:ef:8f:e9:f5:ff:b3:44:85:35:f6:
         69:61:0b:2a:8d:de:87:1c:ec:dc:50:c7:67:ef:88:2c:28:de:
         c0:db:6e:21:20:00:c5:5b:5d:ef:36:c6:0a:e9:06:a3:25:3e:
         4d:13:fa:f0:3f:bc:fe:9c:68:48:ff:ec:1b:e7:2c:39:ac:88:
         2b:a0:88:96:11:3e:f0:20:e2:29:fc:bd:d3:d3:ca:24:63:58:
         17:15:c3:ac:19:21:cb:21:29:fc:53:e7:3b:cf:c2:0a:5e:f4:
         ce:f1:9e:77:38:d4:c6:90:4e:94:fe:2e:97:cb:1a:94:2a:1e:
         8c:3b:db:36:65:c6:19:ba:d7:0b:03:22:e5:92:e2:f6:3e:df:
         99:ce:6b:49
-----BEGIN CERTIFICATE-----
MIIDxzCCAq+gAwIBAgIBATANBgkqhkiG9w0BAQsFADBrMQswCQYDVQQGEwJVUzET
MBEGA1UECAwKQ2FsaWZvcm5pYTEWMBQGA1UEBwwNTW91bnRhaW4gVmlldzEQMA4G
A1UECgwHVGVzdCBDQTEdMBsGA1UEAwwUVGVzdCBJbnRlcm1lZGlhdGUgQ0EwHhcN
MTcwNjA1MTcxMDQ2WhcNMjcwNjAzMTcxMDQ2WjBgMQswCQYDVQQGEwJVUzETMBEG
A1UECAwKQ2FsaWZvcm5pYTEWMBQGA1UEBwwNTW91bnRhaW4gVmlldzEQMA4GA1UE
CgwHVGVzdCBDQTESMBAGA1UEAwwJMTI3LjAuMC4xMIIBIjANBgkqhkiG9w0BAQEF
AAOCAQ8AMIIBCgKCAQEAtL/SlzPlE1t3Zb1zGnUom0dZ5rcw6EYzbVhb2h8K/+Tk
LfId+InoZC72w83Xo47X983n2A4Qw+dW0vzl5tNO4v+CTRhjh7Cj3trvCjd7rLW3
Q87yBznfFOnDpEE+fmhHNJt7YcQY5hPOs7Sm4LoD7uTr56r0bb6XW6oGl1AB0Hi4
1pKw5OK5Q4i1rhRkfVJw1AUcCSXV4k/JqILbQTHDvkRvC9T9v8Hu2WK/O4+1AMjR
311KE61x5Etf0dlyTIPYk0C/bM0vZg4E1rlDKCTJJf1ZcP498qkKTsKbxN6eV15d
FiXmeLZESSmd9r90+4XWDfFlWPIr1o8QScgALYjiLQIDAQABo4GAMH4wDAYDVR0T
AQH/BAIwADAdBgNVHQ4EFgQU4NzgLweIdDqf0zCjcYr51qXlplMwHwYDVR0jBBgw
FoAUF1xF89CsHBBMi0NEIMTdk8XFGTswHQYDVR0lBBYwFAYIKwYBBQUHAwEGCCsG
AQUFBwMCMA8GA1UdEQQIMAaHBH8AAAEwDQYJKoZIhvcNAQELBQADggEBAEP3Yzij
MD+r5mxCod3/jfatsuu2nku9kPzY9PBaQvy+W8zHJC+RSKahu6K3GWEhrNOB7m67
BC0WtX7L5qMXjz5lTR2Nwdo9O62hs+j14xYTFwqjReDPhLI96DhpMUbojBBjD15r
9BAlI5i4XNkGeIMYcAmm74/p9f+zRIU19mlhCyqN3occ7NxQx2fviCwo3sDbbiEg
AMVbXe82xgrpBqMlPk0T+vA/vP6caEj/7BvnLDmsiCugiJYRPvAg4in8vdPTyiRj
WBcVw6wZIcshKfxT5zvPwgpe9M7xnnc41MaQTpT+LpfLGpQqHow72zZlxhm61wsD
IuWS4vY+35nOa0k=
-----END CERTIFICATE-----
