-----BEGIN PRIVATE KEY-----
MIIEvQIBADANBgkqhkiG9w0BAQEFAASCBKcwggSjAgEAAoIBAQC0v9KXM+UTW3dl
vXMadSibR1nmtzDoRjNtWFvaHwr/5OQt8h34iehkLvbDzdejjtf3zefYDhDD51bS
/OXm007i/4JNGGOHsKPe2u8KN3ustbdDzvIHOd8U6cOkQT5+aEc0m3thxBjmE86z
tKbgugPu5OvnqvRtvpdbqgaXUAHQeLjWkrDk4rlDiLWuFGR9UnDUBRwJJdXiT8mo
gttBMcO+RG8L1P2/we7ZYr87j7UAyNHfXUoTrXHkS1/R2XJMg9iTQL9szS9mDgTW
uUMoJMkl/Vlw/j3yqQpOwpvE3p5XXl0WJeZ4tkRJKZ32v3T7hdYN8WVY8ivWjxBJ
yAAtiOItAgMBAAECggEAXuyGumXEnl/g2oueEX0J8FKOgj4e7z0+8OQAiRLYgf9B
XmfTGZ3DcCnB6p8F6p2wCjIW2j64y0mJLZEnZAwBV/F8CuUOEErSJM2x0BnHV7Kv
JmtebDEWWTNTTcX9/gDhtF0bdQK5WMt6OKJdKZRHUITk52u+pov7jWZDw99+tG5w
InCv1RekWbAGZWLs9hyzpOpvp0tGM2O9+XCWQh/LLeLb5rJkTcH8NKv9Xh+tLeSU
i/FER+rQHsMVA4uHdBmRgPsBnPrJopcKWQImRXDGidEd5AUWLIECQdnZI8pbtmjV
0HZj+UuUlDFdALmCHX+NxR4Z+hyi+E96ZWw/J9FHwQKBgQDYX0e873Sf4tDOn0cZ
Olof3cXPri8ezKoeAD8tfY0bxLIoOwDUtJXZeGEZD3sduDJDCdvS1M/eeW04ePlx
kTmcDecaYm4t3KYzbPauudbMQEQFvsoivp8ct/synPcRtGPTHg+GUHaqWT1d4DjT
WClxx67ugD/YQYs5UY/uLjm4tQKBgQDV2lh1Uk3xBj15FZrzg/7GM7bK3L/Xcxzz
VewAksKuVEyoqHfZAo6P/xOiQkwc9kBoet43MiNyph/kYssQowE+Pg+WffB1Ve4F
kVsq6z1mwAfnYD6m4GHxfrV6VxwM3ItiX+PiKQ4YWsbyjc/vC4ZRSarLwbk8Woya
lNucr2hGmQKBgF5sdioFdaewm98Psz9XL61oYsLXCMkwF60v/mIjwEi19emIljw8
8ogM+JKvJtM5ZvXKf5vqMyyrYPacFH9zGOj5SDlDa0GoYP9gNebaQtqv0P+Q2zV+
aoFl6MGVrlyTlFy1aaD7zE1a1GT7TNEuUCfPNI/wd+wv7kn9RgpzMc1hAoGBAJrh
5Zkq/+olc9ZDcJMXsSkJgUURdhvrcjdGroOHx1oNEexA/3P7ZxchTa4ByDBdpS5G
drSRKp05dfWqG5o0BI140z9SfRnuH1KHAPlnoHPPdqn7ycSA1E7cT0GI33btMEIS
YvCEfYHkFRzM2qEtvp0W9o1WA/uTNSwrzZaAb8xZAoGAZZLwniPa8zkd+4WAPSN6
LVj+1dGasfL/zftFhVxu0/KCpdggghG26Ej0ieG71k8Xg9tpZDJvo9Kj0s8Hu4Zu
TnhwwRVyUHls+Gl0t8XXV/ryRLHB8zY45k6A+Yvc/iOYQVmY2rE4kB4PDsrJ+d5P
wA1o1OPvcx28oBjHViWoWJQ=
-----END PRIVATE KEY-----
Certificate:
    Data:
        Version: 3 (0x2)
        Serial Number: 3 (0x3)
    Signature Algorithm: sha256WithRSAEncryption
        Issuer: C=US, ST=California, L=Mountain View, O=Test CA, CN=Test Root CA
        Validity
            Not Before: Jun  5 17:10:46 2017 GMT
            Not After : Jun  3 17:10:46 2027 GMT
        Subject: C=US, ST=California, L=Mountain View, O=Test CA, CN=127.0.0.1
        Subject Public Key Info:
            Public Key Algorithm: rsaEncryption
                Public-Key: (2048 bit)
                Modulus:
                    00:b4:bf:d2:97:33:e5:13:5b:77:65:bd:73:1a:75:
                    28:9b:47:59:e6:b7:30:e8:46:33:6d:58:5b:da:1f:
                    0a:ff:e4:e4:2d:f2:1d:f8:89:e8:64:2e:f6:c3:cd:
                    d7:a3:8e:d7:f7:cd:e7:d8:0e:10:c3:e7:56:d2:fc:
                    e5:e6:d3:4e:e2:ff:82:4d:18:63:87:b0:a3:de:da:
                    ef:0a:37:7b:ac:b5:b7:43:ce:f2:07:39:df:14:e9:
                    c3:a4:41:3e:7e:68:47:34:9b:7b:61:c4:18:e6:13:
                    ce:b3:b4:a6:e0:ba:03:ee:e4:eb:e7:aa:f4:6d:be:
                    97:5b:aa:06:97:50:01:d0:78:b8:d6:92:b0:e4:e2:
                    b9:43:88:b5:ae:14:64:7d:52:70:d4:05:1c:09:25:
                    d5:e2:4f:c9:a8:82:db:41:31:c3:be:44:6f:0b:d4:
                    fd:bf:c1:ee:d9:62:bf:3b:8f:b5:00:c8:d1:df:5d:
                    4a:13:ad:71:e4:4b:5f:d1:d9:72:4c:83:d8:93:40:
                    bf:6c:cd:2f:66:0e:04:d6:b9:43:28:24:c9:25:fd:
                    59:70:fe:3d:f2:a9:0a:4e:c2:9b:c4:de:9e:57:5e:
                    5d:16:25:e6:78:b6:44:49:29:9d:f6:bf:74:fb:85:
                    d6:0d:f1:65:58:f2:2b:d6:8f:10:49:c8:00:2d:88:
                    e2:2d
                Exponent: 65537 (0x10001)
        X509v3 extensions:
            X509v3 Basic Constraints: critical
                CA:FALSE
            X509v3 Subject Key Identifier: 
                E0:DC:E0:2F:07:88:74:3A:9F:D3:30:A3:71:8A:F9:D6:A5:E5:A6:53
            X509v3 Authority Key Identifier: 
                keyid:9B:26:0B:8A:98:A9:BB:1D:B9:1F:1C:E3:1A:40:33:ED:8E:17:88:AB

            X509v3 Extended Key Usage: 
                TLS Web Server Authentication, TLS Web Client Authentication
            X509v3 Subject Alternative Name: 
                IP Address:127.0.0.1
    Signature Algorithm: sha256WithRSAEncryption
         7a:14:44:2e:50:34:5c:0b:98:e4:5f:76:99:ba:e4:de:64:4a:
         8c:54:be:c9:5e:0b:e0:16:ac:d7:b0:f6:fc:cc:87:66:c6:bf:
         ed:10:37:f0:5f:1d:aa:0d:fd:83:a7:1b:6c:ec:5a:b8:be:a5:
         30:8a:62:b8:a9:5d:ca:ee:17:8b:9d:65:76:f8:50:6f:57:57:
         9e:49:f6:7b:01:08:fe:49:44:64:76:5c:a8:e3:6a:f8:d7:eb:
         75:dd:05:1f:f9:9d:1f:b5:1f:76:eb:a2:d2:58:b2:ab:ba:47:
         88:33:19:3b:de:13:a4:9b:fb:bc:7a:78:53:77:4d:1d:cb:f1:
         4d:f5:d3:85:04:51:ec:79:53:2c:a5:63:71:22:47:51:20:b8:
         0e:9a:2c:9f:40:d4:60:c4:d6:1d:39:fd:1e:11:f1:0b:47:c1:
         e7:e9:68:d9:f3:00:1b:bc:ee:29:ed:14:eb:ce:ed:5c:fd:16:
         74:33:e3:4b:90:80:f9:e8:1a:db:97:bd:06:0b:68:79:eb:cd:
         4b:3f:00:0e:69:9e:ff:99:64:39:91:e9:12:c8:98:e6:2d:f1:
         75:d9:bf:a1:f5:15:40:b7:93:2b:5d:98:24:da:f3:6e:8e:cb:
         20:19:fe:27:6d:68:78:29:9c:90:ea:aa:ec:ef:bf:19:74:32:
         e6:c9:f5:27
-----BEGIN CERTIFICATE-----
MIIDvzCCAqegAwIBAgIBAzANBgkqhkiG9w0BAQsFADBjMQswCQYDVQQGEwJVUzET
MBEGA1UECAwKQ2FsaWZvcm5pYTEWMBQGA1UEBwwNTW91bnRhaW4gVmlldzEQMA4G
A1UECgwHVGVzdCBDQTEVMBMGA1UEAwwMVGVzdCBSb290IENBMB4XDTE3MDYwNTE3
MTA0NloXDTI3MDYwMzE3MTA0NlowYDELMAkGA1UEBhMCVVMxEzARBgNVBAgMCkNh
bGlmb3JuaWExFjAUBgNVBAcMDU1vdW50YWluIFZpZXcxEDAOBgNVBAoMB1Rlc3Qg
Q0ExEjAQBgNVBAMMCTEyNy4wLjAuMTCCASIwDQYJKoZIhvcNAQEBBQADggEPADCC
AQoCggEBALS/0pcz5RNbd2W9cxp1KJtHWea3MOhGM21YW9ofCv/k5C3yHfiJ6GQu
9sPN16OO1/fN59gOEMPnVtL85ebTTuL/gk0YY4ewo97a7wo3e6y1t0PO8gc53xTp
w6RBPn5oRzSbe2HEGOYTzrO0puC6A+7k6+eq9G2+l1uqBpdQAdB4uNaSsOTiuUOI
ta4UZH1ScNQFHAkl1eJPyaiC20Exw75EbwvU/b/B7tlivzuPtQDI0d9dShOtceRL
X9HZckyD2JNAv2zNL2YOBNa5QygkySX9WXD+PfKpCk7Cm8TenldeXRYl5ni2REkp
nfa/dPuF1g3xZVjyK9aPEEnIAC2I4i0CAwEAAaOBgDB+MAwGA1UdEwEB/wQCMAAw
HQYDVR0OBBYEFODc4C8HiHQ6n9Mwo3GK+dal5aZTMB8GA1UdIwQYMBaAFJsmC4qY
qbsduR8c4xpAM+2OF4irMB0GA1UdJQQWMBQGCCsGAQUFBwMBBggrBgEFBQcDAjAP
BgNVHREECDAGhwR/AAABMA0GCSqGSIb3DQEBCwUAA4IBAQB6FEQuUDRcC5jkX3aZ
uuTeZEqMVL7JXgvgFqzXsPb8zIdmxr/tEDfwXx2qDf2Dpxts7Fq4vqUwimK4qV3K
7heLnWV2+FBvV1eeSfZ7AQj+SURkdlyo42r41+t13QUf+Z0ftR9266LSWLKrukeI
Mxk73hOkm/u8enhTd00dy/FN9dOFBFHseVMspWNxIkdRILgOmiyfQNRgxNYdOf0e
EfELR8Hn6WjZ8wAbvO4p7RTrzu1c/RZ0M+NLkID56Brbl70GC2h5681LPwAOaZ7/
mWQ5kekSyJjmLfF12b+h9RVAt5MrXZgk2vNujssgGf4nbWh4KZyQ6qrs778ZdDLm
yfUn
-----END CERTIFICATE-----
