Certificate:
    Data:
        Version: 3 (0x2)
        Serial Number: 23 (0x17)
    Signature Algorithm: sha256WithRSAEncryption
        Issuer: C=US, ST=California, L=Mountain View, O=Test CA, CN=Test Root CA
        Validity
            Not Before: Jun  1 00:00:00 2016 GMT
            Not After : Jul  3 00:00:00 2017 GMT
        Subject: C=US, ST=California, L=Mountain View, O=Test CA, CN=127.0.0.1
        Subject Public Key Info:
            Public Key Algorithm: rsaEncryption
                Public-Key: (2048 bit)
                Modulus:
                    00:cc:24:fe:ba:05:d1:11:43:16:d3:95:5f:fa:79:
                    1a:22:55:fc:43:d5:03:e2:c9:d3:32:53:bc:72:e3:
                    b6:b9:04:bd:3c:b4:04:55:64:a7:77:ef:ee:00:6e:
                    5e:14:d5:a8:97:42:33:37:54:43:34:10:85:cd:10:
                    ad:b4:18:49:9c:a9:63:27:c4:bd:53:4a:39:45:ec:
                    8b:88:8d:bf:b4:5f:fe:3e:1b:d5:ac:d1:23:fd:0c:
                    bd:09:3d:0c:8b:79:a0:89:b7:d6:16:73:07:b5:90:
                    18:49:09:ed:80:26:19:e4:06:fb:71:16:97:f4:16:
                    53:84:1b:33:92:22:08:c6:43:82:f5:02:d1:a1:4f:
                    a8:c8:97:46:e0:39:64:6d:b3:4c:e4:45:87:50:5f:
                    37:aa:7a:de:00:58:bf:b3:68:31:5c:5d:5c:ab:e9:
                    26:b7:06:4c:25:2f:42:63:d7:5a:ed:0f:45:59:8d:
                    fc:8a:ef:4f:16:b9:60:b4:bf:c6:a7:1a:50:53:3e:
                    3b:0f:af:de:eb:12:da:80:c3:ca:bb:8f:03:74:d3:
                    fc:8a:e4:b2:7e:9a:d5:eb:74:9c:eb:c7:d5:79:6f:
                    13:0e:ea:b9:5a:90:04:6b:e7:a0:39:fa:e0:ad:29:
                    6d:2a:c7:3d:e6:06:70:a6:99:f7:4d:02:10:39:51:
                    4a:13
                Exponent: 65537 (0x10001)
        X509v3 extensions:
            X509v3 Basic Constraints: critical
                CA:FALSE
            X509v3 Subject Key Identifier: 
                E3:14:30:A9:76:2F:F9:DE:0D:D7:82:DF:8A:8B:5A:FE:84:EF:65:49
            X509v3 Authority Key Identifier: 
                keyid:9B:26:0B:8A:98:A9:BB:1D:B9:1F:1C:E3:1A:40:33:ED:8E:17:88:AB

            X509v3 Extended Key Usage: 
                TLS Web Server Authentication, TLS Web Client Authentication
            X509v3 Subject Alternative Name: 
                IP Address:127.0.0.1
    Signature Algorithm: sha256WithRSAEncryption
         6a:ca:b3:de:fd:7e:b9:3c:8a:ad:4e:e6:a3:40:f1:c4:10:5e:
         d5:72:9f:ca:6b:ea:de:c3:d6:48:38:59:72:cc:77:b9:c1:9e:
         7f:a4:02:4f:57:ad:bd:4f:d5:66:a7:82:f3:85:ea:6a:b5:e8:
         eb:21:a5:bc:cd:89:43:97:50:54:44:5e:b4:e8:98:98:0d:b1:
         12:69:d3:62:ae:77:0e:1b:3c:02:93:29:49:96:e2:7b:9f:c8:
         58:84:f3:a0:bb:26:99:71:80:c6:2e:99:4c:00:4f:90:08:e2:
         e3:cf:9d:f1:71:40:a0:78:8f:dd:e1:ea:28:74:4e:83:3e:60:
         20:45:d4:68:28:cc:55:0d:d7:4e:7e:48:a7:aa:f4:fa:20:b8:
         74:76:f5:49:f6:e3:2c:e8:3f:f3:2e:84:a9:81:ce:4e:b9:87:
         5f:2e:fd:12:8a:ca:fb:53:46:b5:2d:16:57:fd:ca:64:5e:77:
         26:48:f6:52:29:70:a1:67:c2:5c:10:13:07:5a:1b:d5:9f:38:
         19:5c:d8:a1:e3:1b:09:3b:ff:56:fd:7d:57:74:5f:9c:14:92:
         b3:3e:8f:f6:0b:f0:f5:25:4f:0b:05:de:ad:87:9a:4f:e4:b7:
         b4:2d:de:31:2c:14:49:bf:ef:0a:0c:b6:4f:1e:53:d4:50:23:
         c7:b4:78:66
-----BEGIN CERTIFICATE-----
MIIDvzCCAqegAwIBAgIBFzANBgkqhkiG9w0BAQsFADBjMQswCQYDVQQGEwJVUzET
MBEGA1UECAwKQ2FsaWZvcm5pYTEWMBQGA1UEBwwNTW91bnRhaW4gVmlldzEQMA4G
A1UECgwHVGVzdCBDQTEVMBMGA1UEAwwMVGVzdCBSb290IENBMB4XDTE2MDYwMTAw
MDAwMFoXDTE3MDcwMzAwMDAwMFowYDELMAkGA1UEBhMCVVMxEzARBgNVBAgMCkNh
bGlmb3JuaWExFjAUBgNVBAcMDU1vdW50YWluIFZpZXcxEDAOBgNVBAoMB1Rlc3Qg
Q0ExEjAQBgNVBAMMCTEyNy4wLjAuMTCCASIwDQYJKoZIhvcNAQEBBQADggEPADCC
AQoCggEBAMwk/roF0RFDFtOVX/p5GiJV/EPVA+LJ0zJTvHLjtrkEvTy0BFVkp3fv
7gBuXhTVqJdCMzdUQzQQhc0QrbQYSZypYyfEvVNKOUXsi4iNv7Rf/j4b1azRI/0M
vQk9DIt5oIm31hZzB7WQGEkJ7YAmGeQG+3EWl/QWU4QbM5IiCMZDgvUC0aFPqMiX
RuA5ZG2zTORFh1BfN6p63gBYv7NoMVxdXKvpJrcGTCUvQmPXWu0PRVmN/IrvTxa5
YLS/xqcaUFM+Ow+v3usS2oDDyruPA3TT/Irksn6a1et0nOvH1XlvEw7quVqQBGvn
oDn64K0pbSrHPeYGcKaZ900CEDlRShMCAwEAAaOBgDB+MAwGA1UdEwEB/wQCMAAw
HQYDVR0OBBYEFOMUMKl2L/neDdeC34qLWv6E72VJMB8GA1UdIwQYMBaAFJsmC4qY
qbsduR8c4xpAM+2OF4irMB0GA1UdJQQWMBQGCCsGAQUFBwMBBggrBgEFBQcDAjAP
BgNVHREECDAGhwR/AAABMA0GCSqGSIb3DQEBCwUAA4IBAQBqyrPe/X65PIqtTuaj
QPHEEF7Vcp/Ka+rew9ZIOFlyzHe5wZ5/pAJPV629T9Vmp4LzhepqtejrIaW8zYlD
l1BURF606JiYDbESadNirncOGzwCkylJluJ7n8hYhPOguyaZcYDGLplMAE+QCOLj
z53xcUCgeI/d4eoodE6DPmAgRdRoKMxVDddOfkinqvT6ILh0dvVJ9uMs6D/zLoSp
gc5OuYdfLv0Sisr7U0a1LRZX/cpkXncmSPZSKXChZ8JcEBMHWhvVnzgZXNih4xsJ
O/9W/X1XdF+cFJKzPo/2C/D1JU8LBd6th5pP5Le0Ld4xLBRJv+8KDLZPHlPUUCPH
tHhm
-----END CERTIFICATE-----

Certificate:
    Data:
        Version: 3 (0x2)
        Serial Number: 903804111 (0x35def4cf)
    Signature Algorithm: sha1WithRSAEncryption
        Issuer: C=US, O=Equifax, OU=Equifax Secure Certificate Authority
        Validity
            Not Before: Aug 22 16:41:51 1998 GMT
            Not After : Aug 22 16:41:51 2018 GMT
        Subject: C=US, O=Equifax, OU=Equifax Secure Certificate Authority
        Subject Public Key Info:
            Public Key Algorithm: rsaEncryption
                Public-Key: (1024 bit)
                Modulus:
                    00:c1:5d:b1:58:67:08:62:ee:a0:9a:2d:1f:08:6d:
                    91:14:68:98:0a:1e:fe:da:04:6f:13:84:62:21:c3:
                    d1:7c:ce:9f:05:e0:b8:01:f0:4e:34:ec:e2:8a:95:
                    04:64:ac:f1:6b:53:5f:05:b3:cb:67:80:bf:42:02:
                    8e:fe:dd:01:09:ec:e1:00:14:4f:fc:fb:f0:0c:dd:
                    43:ba:5b:2b:e1:1f:80:70:99:15:57:93:16:f1:0f:
                    97:6a:b7:c2:68:23:1c:cc:4d:59:30:ac:51:1e:3b:
                    af:2b:d6:ee:63:45:7b:c5:d9:5f:50:d2:e3:50:0f:
                    3a:88:e7:bf:14:fd:e0:c7:b9
                Exponent: 65537 (0x10001)
        X509v3 extensions:
            X509v3 CRL Distribution Points: 

                Full Name:
                  DirName: C = US, O = Equifax, OU = Equifax Secure Certificate Authority, CN = CRL1

            X509v3 Private Key Usage Period: 
                Not After: Aug 22 16:41:51 2018 GMT
            X509v3 Key Usage: 
                Certificate Sign, CRL Sign
            X509v3 Authority Key Identifier: 
                keyid:48:E6:68:F9:2B:D2:B2:95:D7:47:D8:23:20:10:4F:33:98:90:9F:D4

            X509v3 Subject Key Identifier: 
                48:E6:68:F9:2B:D2:B2:95:D7:47:D8:23:20:10:4F:33:98:90:9F:D4
            X509v3 Basic Constraints: 
                CA:TRUE
            1.2.840.113533.7.65.0: 
                0...V3.0c....
    Signature Algorithm: sha1WithRSAEncryption
         58:ce:29:ea:fc:f7:de:b5:ce:02:b9:17:b5:85:d1:b9:e3:e0:
         95:cc:25:31:0d:00:a6:92:6e:7f:b6:92:63:9e:50:95:d1:9a:
         6f:e4:11:de:63:85:6e:98:ee:a8:ff:5a:c8:d3:55:b2:66:71:
         57:de:c0:21:eb:3d:2a:a7:23:49:01:04:86:42:7b:fc:ee:7f:
         a2:16:52:b5:67:67:d3:40:db:3b:26:58:b2:28:77:3d:ae:14:
         77:61:d6:fa:2a:66:27:a0:0d:fa:a7:73:5c:ea:70:f1:94:21:
         65:44:5f:fa:fc:ef:29:68:a9:a2:87:79:ef:79:ef:4f:ac:07:
         77:38
-----BEGIN CERTIFICATE-----
MIIDIDCCAomgAwIBAgIENd70zzANBgkqhkiG9w0BAQUFADBOMQswCQYDVQQGEwJV
UzEQMA4GA1UEChMHRXF1aWZheDEtMCsGA1UECxMkRXF1aWZheCBTZWN1cmUgQ2Vy
dGlmaWNhdGUgQXV0aG9yaXR5MB4XDTk4MDgyMjE2NDE1MVoXDTE4MDgyMjE2NDE1
MVowTjELMAkGA1UEBhMCVVMxEDAOBgNVBAoTB0VxdWlmYXgxLTArBgNVBAsTJEVx
dWlmYXggU2VjdXJlIENlcnRpZmljYXRlIEF1dGhvcml0eTCBnzANBgkqhkiG9w0B
AQEFAAOBjQAwgYkCgYEAwV2xWGcIYu6gmi0fCG2RFGiYCh7+2gRvE4RiIcPRfM6f
BeC4AfBONOziipUEZKzxa1NfBbPLZ4C/QgKO/t0BCezhABRP/PvwDN1Dulsr4R+A
cJkVV5MW8Q+XarfCaCMczE1ZMKxRHjuvK9buY0V7xdlfUNLjUA86iOe/FP3gx7kC
AwEAAaOCAQkwggEFMHAGA1UdHwRpMGcwZaBjoGGkXzBdMQswCQYDVQQGEwJVUzEQ
MA4GA1UEChMHRXF1aWZheDEtMCsGA1UECxMkRXF1aWZheCBTZWN1cmUgQ2VydGlm
aWNhdGUgQXV0aG9yaXR5MQ0wCwYDVQQDEwRDUkwxMBoGA1UdEAQTMBGBDzIwMTgw
ODIyMTY0MTUxWjALBgNVHQ8EBAMCAQYwHwYDVR0jBBgwFoAUSOZo+SvSspXXR9gj
IBBPM5iQn9QwHQYDVR0OBBYEFEjmaPkr0rKV10fYIyAQTzOYkJ/UMAwGA1UdEwQF
MAMBAf8wGgYJKoZIhvZ9B0EABA0wCxsFVjMuMGMDAgbAMA0GCSqGSIb3DQEBBQUA
A4GBAFjOKer89961zgK5F7WF0bnj4JXMJTENAKaSbn+2kmOeUJXRmm/kEd5jhW6Y
7qj/WsjTVbJmcVfewCHrPSqnI0kBBIZCe/zuf6IWUrVnZ9NA2zsmWLIodz2uFHdh
1voqZiegDfqnc1zqcPGUIWVEX/r87yloqaKHee9570+sB3c4
-----END CERTIFICATE-----

