Certificate:
    Data:
        Version: 3 (0x2)
        Serial Number: 21 (0x15)
    Signature Algorithm: sha256WithRSAEncryption
        Issuer: C=US, ST=California, L=Mountain View, O=Test CA, CN=Test Root CA
        Validity
            Not Before: May  1 00:00:00 2012 GMT
            Not After : Jul  3 00:00:00 2019 GMT
        Subject: C=US, ST=California, L=Mountain View, O=Test CA, CN=127.0.0.1
        Subject Public Key Info:
            Public Key Algorithm: rsaEncryption
                Public-Key: (2048 bit)
                Modulus:
                    00:e8:84:db:5e:7d:ea:ce:7c:36:6f:2c:8b:48:0a:
                    c4:c3:48:44:4a:75:7d:85:c0:86:c3:77:ed:55:4b:
                    0d:0c:62:9f:90:5b:56:8f:db:80:a5:64:4c:b9:fa:
                    64:9f:93:1e:bd:b5:bf:94:04:52:fa:9a:db:87:d1:
                    9a:19:da:d4:5e:47:36:31:24:3e:62:60:34:34:d9:
                    17:6e:89:14:04:f2:98:32:19:70:f4:5a:2a:a0:26:
                    90:26:f6:5a:e4:a7:ad:23:d8:18:a3:bd:a0:a3:d5:
                    e0:de:fb:81:28:39:c4:b9:65:f7:5c:6e:ae:82:ef:
                    cd:14:75:53:45:31:de:1f:dd:61:de:ff:2d:11:7e:
                    23:b6:bc:c1:d8:71:71:0c:14:af:d2:03:b2:38:35:
                    83:39:48:d3:c4:a2:0c:76:c2:93:a7:de:78:56:db:
                    27:67:92:a1:29:d7:aa:ed:25:27:9e:3e:17:aa:10:
                    2a:10:d4:e2:db:43:cc:64:99:78:63:85:78:f6:e1:
                    1e:c7:9a:a2:e2:98:8f:e9:10:93:3e:06:db:14:70:
                    fb:21:7f:6d:16:a6:13:e2:54:59:eb:66:75:26:e6:
                    60:12:c1:51:6c:63:7a:1a:cf:18:52:dc:db:a0:7d:
                    2d:92:ad:f1:4f:e5:2c:1c:14:81:1a:db:63:6a:2f:
                    75:b1
                Exponent: 65537 (0x10001)
        X509v3 extensions:
            X509v3 Basic Constraints: critical
                CA:FALSE
            X509v3 Subject Key Identifier: 
                A6:5C:B0:9B:17:D4:01:25:77:C5:1A:B6:E6:A2:D8:53:1D:18:93:6C
            X509v3 Authority Key Identifier: 
                keyid:9B:26:0B:8A:98:A9:BB:1D:B9:1F:1C:E3:1A:40:33:ED:8E:17:88:AB

            X509v3 Extended Key Usage: 
                TLS Web Server Authentication, TLS Web Client Authentication
            X509v3 Subject Alternative Name: 
                IP Address:127.0.0.1
    Signature Algorithm: sha256WithRSAEncryption
         47:a5:c1:c8:64:68:17:77:f1:42:e1:2a:ae:0d:0a:6d:17:04:
         a8:72:aa:7b:0a:46:ee:62:f1:61:28:f5:84:c5:f7:d0:fd:81:
         41:dc:77:b9:80:2d:24:35:c3:2f:86:ba:74:3b:48:3f:be:59:
         60:92:11:e8:57:0d:fa:7b:ef:a8:21:20:0d:77:27:c7:5d:51:
         b3:03:06:a0:9b:5a:12:67:49:65:64:9c:b2:68:fe:1a:50:2e:
         a9:f6:dd:d2:a5:07:a8:b1:24:65:71:1b:d6:1b:23:c6:7c:28:
         24:5e:df:1c:56:1d:0b:c5:dd:bb:07:5a:d2:86:55:df:76:95:
         19:b7:72:53:cb:1d:97:42:3b:7e:c5:98:24:46:73:4e:6d:81:
         c8:b5:3e:8c:12:ec:6e:a5:51:a5:fa:0d:10:b8:39:4a:dd:26:
         51:b1:7d:4d:c6:c7:a7:6d:8d:aa:d8:19:da:c0:a0:d7:6d:5f:
         71:97:8e:16:1f:2a:6f:0b:3d:73:2d:60:1d:9f:07:4f:17:65:
         26:d9:c5:d6:9d:04:d9:b0:b9:b0:02:48:63:4e:fd:43:ac:7b:
         5c:87:80:e8:14:9d:59:fc:f8:a6:af:87:30:52:6d:c9:ab:23:
         b7:88:9a:19:0f:38:a1:fe:78:90:34:1c:a4:19:48:c7:55:01:
         65:28:69:1b
-----BEGIN CERTIFICATE-----
MIIDvzCCAqegAwIBAgIBFTANBgkqhkiG9w0BAQsFADBjMQswCQYDVQQGEwJVUzET
MBEGA1UECAwKQ2FsaWZvcm5pYTEWMBQGA1UEBwwNTW91bnRhaW4gVmlldzEQMA4G
A1UECgwHVGVzdCBDQTEVMBMGA1UEAwwMVGVzdCBSb290IENBMB4XDTEyMDUwMTAw
MDAwMFoXDTE5MDcwMzAwMDAwMFowYDELMAkGA1UEBhMCVVMxEzARBgNVBAgMCkNh
bGlmb3JuaWExFjAUBgNVBAcMDU1vdW50YWluIFZpZXcxEDAOBgNVBAoMB1Rlc3Qg
Q0ExEjAQBgNVBAMMCTEyNy4wLjAuMTCCASIwDQYJKoZIhvcNAQEBBQADggEPADCC
AQoCggEBAOiE21596s58Nm8si0gKxMNIREp1fYXAhsN37VVLDQxin5BbVo/bgKVk
TLn6ZJ+THr21v5QEUvqa24fRmhna1F5HNjEkPmJgNDTZF26JFATymDIZcPRaKqAm
kCb2WuSnrSPYGKO9oKPV4N77gSg5xLll91xuroLvzRR1U0Ux3h/dYd7/LRF+I7a8
wdhxcQwUr9IDsjg1gzlI08SiDHbCk6feeFbbJ2eSoSnXqu0lJ54+F6oQKhDU4ttD
zGSZeGOFePbhHseaouKYj+kQkz4G2xRw+yF/bRamE+JUWetmdSbmYBLBUWxjehrP
GFLc26B9LZKt8U/lLBwUgRrbY2ovdbECAwEAAaOBgDB+MAwGA1UdEwEB/wQCMAAw
HQYDVR0OBBYEFKZcsJsX1AEld8Uatuai2FMdGJNsMB8GA1UdIwQYMBaAFJsmC4qY
qbsduR8c4xpAM+2OF4irMB0GA1UdJQQWMBQGCCsGAQUFBwMBBggrBgEFBQcDAjAP
BgNVHREECDAGhwR/AAABMA0GCSqGSIb3DQEBCwUAA4IBAQBHpcHIZGgXd/FC4Squ
DQptFwSocqp7CkbuYvFhKPWExffQ/YFB3He5gC0kNcMvhrp0O0g/vllgkhHoVw36
e++oISANdyfHXVGzAwagm1oSZ0llZJyyaP4aUC6p9t3SpQeosSRlcRvWGyPGfCgk
Xt8cVh0Lxd27B1rShlXfdpUZt3JTyx2XQjt+xZgkRnNObYHItT6MEuxupVGl+g0Q
uDlK3SZRsX1NxsenbY2q2BnawKDXbV9xl44WHypvCz1zLWAdnwdPF2Um2cXWnQTZ
sLmwAkhjTv1DrHtch4DoFJ1Z/Pimr4cwUm3JqyO3iJoZDzih/niQNBykGUjHVQFl
KGkb
-----END CERTIFICATE-----
