Certificate:
    Data:
        Version: 3 (0x2)
        Serial Number: 20 (0x14)
    Signature Algorithm: sha256WithRSAEncryption
        Issuer: C=US, ST=California, L=Mountain View, O=Test CA, CN=Test Root CA
        Validity
            Not Before: Jan  1 00:00:00 2008 GMT
            Not After : May  1 00:00:00 2018 GMT
        Subject: C=US, ST=California, L=Mountain View, O=Test CA, CN=127.0.0.1
        Subject Public Key Info:
            Public Key Algorithm: rsaEncryption
                Public-Key: (2048 bit)
                Modulus:
                    00:9f:eb:e4:9c:a0:87:13:91:5c:dd:4b:ca:0d:15:
                    66:ba:86:05:e4:f7:32:b3:ea:9b:57:9f:77:a6:52:
                    39:7d:62:4f:c8:f4:24:c9:47:8d:1f:0a:a2:ce:13:
                    90:a1:27:ab:4d:7d:ca:66:64:44:7b:5c:82:00:b0:
                    3a:2f:da:ab:d3:f8:c1:22:09:49:3d:26:96:59:25:
                    ec:58:9f:2e:82:82:63:6e:dc:4a:87:ad:fd:c1:ef:
                    44:34:a5:9d:d2:48:25:ca:f5:20:3f:e3:2b:6d:9a:
                    b7:d1:c5:e9:53:7f:f0:ab:b0:29:5a:1e:a1:8b:fb:
                    6a:b8:99:5b:61:7f:ca:4d:5c:b9:50:5d:f2:52:de:
                    ec:06:62:e3:ff:95:2c:51:04:2c:95:6c:56:cf:a1:
                    2d:78:be:7c:a2:a7:53:1f:52:96:e1:a2:cc:72:c2:
                    e6:a4:62:da:e8:94:2a:3b:e0:25:f0:6c:d2:a5:16:
                    ba:1f:75:52:8a:5e:7b:4d:0a:79:c9:14:bf:dc:ac:
                    8c:d3:03:01:fe:05:8b:00:e8:17:f7:11:9b:ca:f8:
                    d4:80:58:7f:77:4b:f4:17:87:5f:f4:98:a4:1b:3c:
                    8c:c8:a4:1d:26:02:4a:24:b5:e8:7c:e0:38:bc:e8:
                    90:d5:fa:91:6a:3d:97:7c:ed:f5:22:f3:29:3d:3d:
                    c5:33
                Exponent: 65537 (0x10001)
        X509v3 extensions:
            X509v3 Basic Constraints: critical
                CA:FALSE
            X509v3 Subject Key Identifier: 
                09:3A:F7:03:5A:79:7A:04:12:F8:DA:B6:8D:5F:90:7F:FD:9D:EE:67
            X509v3 Authority Key Identifier: 
                keyid:9B:26:0B:8A:98:A9:BB:1D:B9:1F:1C:E3:1A:40:33:ED:8E:17:88:AB

            X509v3 Extended Key Usage: 
                TLS Web Server Authentication, TLS Web Client Authentication
            X509v3 Subject Alternative Name: 
                IP Address:127.0.0.1
    Signature Algorithm: sha256WithRSAEncryption
         38:14:a7:3c:63:ee:dd:f9:f5:9e:55:09:97:55:fc:3e:2d:09:
         f8:45:20:c0:05:9c:cd:96:87:f6:2d:d6:e0:9b:34:b8:16:03:
         40:39:1c:a5:02:c9:01:9d:2d:bb:52:f2:65:45:94:49:43:a0:
         1a:2f:26:c3:5d:cf:41:66:be:02:0b:37:0b:4e:66:3b:66:13:
         7f:10:8e:8b:6a:84:4e:50:ec:f0:0c:26:4d:dc:4d:2e:93:4b:
         19:98:18:12:2d:80:dd:55:12:d4:41:6c:53:50:2f:d7:4e:da:
         fd:0c:5a:fc:f6:fc:02:30:3f:72:8c:2a:34:1e:9c:0c:96:3f:
         1f:54:79:97:d4:97:7b:81:bc:5b:22:42:0c:dd:6b:3a:04:30:
         7b:71:35:df:9b:32:95:86:07:2d:15:ef:a7:1e:8b:ec:fc:27:
         49:29:fd:a1:7f:01:88:13:6f:5d:8f:6b:be:21:57:2d:5a:c3:
         cd:30:46:f6:5e:2b:ca:ce:48:f8:5b:ba:f6:40:97:31:c6:c3:
         ea:31:55:64:9a:8b:93:6c:cb:e5:0e:f7:3d:f2:13:8e:bb:1e:
         39:09:3e:62:0a:d7:2c:c9:5c:35:db:8b:d7:e6:c8:27:f3:09:
         e0:3f:e4:98:8d:e5:db:2c:d6:8b:9f:85:24:4f:15:98:af:86:
         85:b6:13:1f
-----BEGIN CERTIFICATE-----
MIIDvzCCAqegAwIBAgIBFDANBgkqhkiG9w0BAQsFADBjMQswCQYDVQQGEwJVUzET
MBEGA1UECAwKQ2FsaWZvcm5pYTEWMBQGA1UEBwwNTW91bnRhaW4gVmlldzEQMA4G
A1UECgwHVGVzdCBDQTEVMBMGA1UEAwwMVGVzdCBSb290IENBMB4XDTA4MDEwMTAw
MDAwMFoXDTE4MDUwMTAwMDAwMFowYDELMAkGA1UEBhMCVVMxEzARBgNVBAgMCkNh
bGlmb3JuaWExFjAUBgNVBAcMDU1vdW50YWluIFZpZXcxEDAOBgNVBAoMB1Rlc3Qg
Q0ExEjAQBgNVBAMMCTEyNy4wLjAuMTCCASIwDQYJKoZIhvcNAQEBBQADggEPADCC
AQoCggEBAJ/r5JyghxORXN1Lyg0VZrqGBeT3MrPqm1efd6ZSOX1iT8j0JMlHjR8K
os4TkKEnq019ymZkRHtcggCwOi/aq9P4wSIJST0mllkl7FifLoKCY27cSoet/cHv
RDSlndJIJcr1ID/jK22at9HF6VN/8KuwKVoeoYv7ariZW2F/yk1cuVBd8lLe7AZi
4/+VLFEELJVsVs+hLXi+fKKnUx9SluGizHLC5qRi2uiUKjvgJfBs0qUWuh91Uope
e00KeckUv9ysjNMDAf4FiwDoF/cRm8r41IBYf3dL9BeHX/SYpBs8jMikHSYCSiS1
6HzgOLzokNX6kWo9l3zt9SLzKT09xTMCAwEAAaOBgDB+MAwGA1UdEwEB/wQCMAAw
HQYDVR0OBBYEFAk69wNaeXoEEvjato1fkH/9ne5nMB8GA1UdIwQYMBaAFJsmC4qY
qbsduR8c4xpAM+2OF4irMB0GA1UdJQQWMBQGCCsGAQUFBwMBBggrBgEFBQcDAjAP
BgNVHREECDAGhwR/AAABMA0GCSqGSIb3DQEBCwUAA4IBAQA4FKc8Y+7d+fWeVQmX
Vfw+LQn4RSDABZzNlof2LdbgmzS4FgNAORylAskBnS27UvJlRZRJQ6AaLybDXc9B
Zr4CCzcLTmY7ZhN/EI6LaoROUOzwDCZN3E0uk0sZmBgSLYDdVRLUQWxTUC/XTtr9
DFr89vwCMD9yjCo0HpwMlj8fVHmX1Jd7gbxbIkIM3Ws6BDB7cTXfmzKVhgctFe+n
Hovs/CdJKf2hfwGIE29dj2u+IVctWsPNMEb2XivKzkj4W7r2QJcxxsPqMVVkmouT
bMvlDvc98hOOux45CT5iCtcsyVw124vX5sgn8wngP+SYjeXbLNaLn4UkTxWYr4aF
thMf
-----END CERTIFICATE-----
