Certificate:
    Data:
        Version: 3 (0x2)
        Serial Number: 19 (0x13)
    Signature Algorithm: sha256WithRSAEncryption
        Issuer: C=US, ST=California, L=Mountain View, O=Test CA, CN=Test Root CA
        Validity
            Not Before: Jan  1 00:00:00 2008 GMT
            Not After : Jan  1 00:00:00 2015 GMT
        Subject: C=US, ST=California, L=Mountain View, O=Test CA, CN=127.0.0.1
        Subject Public Key Info:
            Public Key Algorithm: rsaEncryption
                Public-Key: (2048 bit)
                Modulus:
                    00:c9:a8:08:1a:b3:09:5d:20:f4:ee:7b:73:0d:56:
                    82:3d:da:d7:f3:e4:94:34:04:1f:d1:bf:8f:7b:ac:
                    d8:ec:4b:b3:d2:da:ba:47:3d:19:12:cb:1d:12:ff:
                    dd:64:8b:d3:97:9f:56:80:b5:35:00:fa:fb:56:20:
                    2c:96:d6:e5:73:87:30:72:98:11:ea:87:fa:35:cd:
                    70:a9:f5:a2:16:b0:6d:64:d6:68:3e:4d:a5:fc:b8:
                    ec:d7:6e:9a:33:84:88:d7:50:ab:7f:2e:37:52:c4:
                    21:80:6b:8e:4c:dc:95:c5:9e:a5:dd:46:c6:f0:6d:
                    bd:d6:03:d0:8b:5a:3c:4b:07:61:90:bb:4e:0b:58:
                    e5:be:1d:96:e7:66:03:12:96:6c:e7:e4:73:49:10:
                    20:db:74:3d:ca:bd:c2:4d:47:46:4e:2f:1e:cc:09:
                    b7:0a:61:14:a0:b7:7a:0c:f1:5e:15:e8:87:4a:b8:
                    3f:42:a3:73:8e:00:f5:81:e2:b9:1e:6a:b3:11:3e:
                    f9:84:0e:e8:59:17:fd:dd:8e:af:e2:88:09:88:43:
                    f6:89:15:af:91:36:b4:f8:b9:9f:a5:75:a1:39:21:
                    ad:03:fd:c0:60:c5:e7:aa:e3:4e:c3:bf:01:f8:e7:
                    6b:dd:f7:7a:da:26:12:3c:d7:64:28:2e:da:36:d6:
                    fa:0b
                Exponent: 65537 (0x10001)
        X509v3 extensions:
            X509v3 Basic Constraints: critical
                CA:FALSE
            X509v3 Subject Key Identifier: 
                FB:DF:D4:89:A2:A9:E0:BE:B0:E3:FC:AD:C9:F9:80:85:3C:30:B5:81
            X509v3 Authority Key Identifier: 
                keyid:9B:26:0B:8A:98:A9:BB:1D:B9:1F:1C:E3:1A:40:33:ED:8E:17:88:AB

            X509v3 Extended Key Usage: 
                TLS Web Server Authentication, TLS Web Client Authentication
            X509v3 Subject Alternative Name: 
                IP Address:127.0.0.1
    Signature Algorithm: sha256WithRSAEncryption
         4f:9f:49:7d:21:55:a4:d8:63:0c:79:2f:4a:62:cf:31:b9:94:
         18:e8:27:e3:de:73:53:19:0b:c0:cd:d0:35:89:40:a9:29:4c:
         64:2f:ae:77:4a:2d:b7:7a:1c:d7:8b:40:8b:5a:44:98:db:83:
         22:28:e7:4b:cc:4b:6d:49:a3:e4:23:ee:ae:73:c9:37:06:7b:
         12:c9:83:ef:50:64:bd:71:5b:01:9c:ff:5e:e9:86:91:51:a3:
         f4:6e:15:07:4f:23:46:82:d7:11:95:79:e7:9c:9c:bb:10:90:
         f5:da:9a:4e:6f:2a:b5:f5:68:ed:6c:a5:f1:69:6d:f6:aa:6d:
         02:df:10:c2:b1:7b:35:1d:20:9f:61:85:cb:81:9f:e7:aa:36:
         12:7a:f0:a3:31:29:a7:b4:a9:62:66:d6:2d:4d:3f:d8:9f:5c:
         1b:e2:06:31:37:92:51:a7:3f:5d:91:1b:45:c5:4b:be:b2:d8:
         b9:59:f6:4d:45:52:af:d4:d0:db:f2:85:01:9b:fa:cf:1b:54:
         85:7c:79:3a:3f:f5:a8:b1:e9:d7:41:21:0b:d0:48:03:d0:ba:
         ee:4d:cf:1e:df:f5:57:25:d9:1f:dc:34:4f:7b:f7:68:b3:65:
         aa:e3:0f:50:e8:1f:0e:50:1a:c8:48:22:6b:bc:a1:ae:cc:b3:
         72:94:c2:24
-----BEGIN CERTIFICATE-----
MIIDvzCCAqegAwIBAgIBEzANBgkqhkiG9w0BAQsFADBjMQswCQYDVQQGEwJVUzET
MBEGA1UECAwKQ2FsaWZvcm5pYTEWMBQGA1UEBwwNTW91bnRhaW4gVmlldzEQMA4G
A1UECgwHVGVzdCBDQTEVMBMGA1UEAwwMVGVzdCBSb290IENBMB4XDTA4MDEwMTAw
MDAwMFoXDTE1MDEwMTAwMDAwMFowYDELMAkGA1UEBhMCVVMxEzARBgNVBAgMCkNh
bGlmb3JuaWExFjAUBgNVBAcMDU1vdW50YWluIFZpZXcxEDAOBgNVBAoMB1Rlc3Qg
Q0ExEjAQBgNVBAMMCTEyNy4wLjAuMTCCASIwDQYJKoZIhvcNAQEBBQADggEPADCC
AQoCggEBAMmoCBqzCV0g9O57cw1Wgj3a1/PklDQEH9G/j3us2OxLs9Laukc9GRLL
HRL/3WSL05efVoC1NQD6+1YgLJbW5XOHMHKYEeqH+jXNcKn1ohawbWTWaD5Npfy4
7NdumjOEiNdQq38uN1LEIYBrjkzclcWepd1GxvBtvdYD0ItaPEsHYZC7TgtY5b4d
ludmAxKWbOfkc0kQINt0Pcq9wk1HRk4vHswJtwphFKC3egzxXhXoh0q4P0Kjc44A
9YHiuR5qsxE++YQO6FkX/d2Or+KICYhD9okVr5E2tPi5n6V1oTkhrQP9wGDF56rj
TsO/Afjna933etomEjzXZCgu2jbW+gsCAwEAAaOBgDB+MAwGA1UdEwEB/wQCMAAw
HQYDVR0OBBYEFPvf1ImiqeC+sOP8rcn5gIU8MLWBMB8GA1UdIwQYMBaAFJsmC4qY
qbsduR8c4xpAM+2OF4irMB0GA1UdJQQWMBQGCCsGAQUFBwMBBggrBgEFBQcDAjAP
BgNVHREECDAGhwR/AAABMA0GCSqGSIb3DQEBCwUAA4IBAQBPn0l9IVWk2GMMeS9K
Ys8xuZQY6Cfj3nNTGQvAzdA1iUCpKUxkL653Si23ehzXi0CLWkSY24MiKOdLzEtt
SaPkI+6uc8k3BnsSyYPvUGS9cVsBnP9e6YaRUaP0bhUHTyNGgtcRlXnnnJy7EJD1
2ppObyq19WjtbKXxaW32qm0C3xDCsXs1HSCfYYXLgZ/nqjYSevCjMSmntKliZtYt
TT/Yn1wb4gYxN5JRpz9dkRtFxUu+sti5WfZNRVKv1NDb8oUBm/rPG1SFfHk6P/Wo
senXQSEL0EgD0LruTc8e3/VXJdkf3DRPe/dos2Wq4w9Q6B8OUBrISCJrvKGuzLNy
lMIk
-----END CERTIFICATE-----
