Certificate:
    Data:
        Version: 3 (0x2)
        Serial Number: 22 (0x16)
    Signature Algorithm: sha256WithRSAEncryption
        Issuer: C=US, ST=California, L=Mountain View, O=Test CA, CN=Test Root CA
        Validity
            Not Before: May  1 00:00:00 2016 GMT
            Not After : Jul  3 00:00:00 2017 GMT
        Subject: C=US, ST=California, L=Mountain View, O=Test CA, CN=127.0.0.1
        Subject Public Key Info:
            Public Key Algorithm: rsaEncryption
                Public-Key: (2048 bit)
                Modulus:
                    00:b7:cf:66:d4:a6:c7:91:a5:b9:1e:8a:91:cf:51:
                    54:07:f4:c2:a9:8e:ca:88:1f:51:cf:70:e2:93:07:
                    ff:17:9b:cf:ae:88:85:3d:ab:f6:66:be:ac:d5:ea:
                    61:d7:54:86:36:12:dd:98:8c:bc:3a:86:54:f0:08:
                    d3:84:18:ab:ed:11:1a:41:1c:9f:cd:ec:97:8f:22:
                    5a:f1:cb:d3:c0:bb:c2:ac:45:d4:bd:aa:ab:b3:ac:
                    ea:5b:da:20:24:e7:9e:03:97:3e:a4:c6:c1:ba:b4:
                    c4:69:6f:9d:7e:81:3d:58:96:80:0c:91:de:71:9f:
                    d8:24:73:8e:8b:f0:64:be:4e:9b:c4:3a:c1:9c:ef:
                    3c:05:06:c7:a7:ba:34:1b:ff:d7:87:96:00:30:db:
                    6d:74:f2:ae:f4:cb:a6:9e:b9:42:8a:58:6d:3e:e7:
                    54:11:2e:b8:12:5a:c9:c1:21:d4:a1:c7:ce:5e:3e:
                    c5:75:03:38:7a:8d:20:13:ef:d8:f8:a4:9c:1e:04:
                    7b:28:b0:d1:24:e1:14:d3:ff:18:2a:de:a0:c8:00:
                    47:80:9a:86:c9:3d:0a:48:d8:0c:63:df:7b:1b:f3:
                    b6:d5:b8:14:1d:7a:40:eb:06:7c:23:b1:77:ab:1a:
                    60:a2:36:7f:0a:e3:9b:75:01:11:7d:af:29:5b:7b:
                    f8:21
                Exponent: 65537 (0x10001)
        X509v3 extensions:
            X509v3 Basic Constraints: critical
                CA:FALSE
            X509v3 Subject Key Identifier: 
                D5:17:E7:68:DB:E1:51:CE:A3:7C:B7:76:EE:CD:89:C1:33:1E:98:86
            X509v3 Authority Key Identifier: 
                keyid:9B:26:0B:8A:98:A9:BB:1D:B9:1F:1C:E3:1A:40:33:ED:8E:17:88:AB

            X509v3 Extended Key Usage: 
                TLS Web Server Authentication, TLS Web Client Authentication
            X509v3 Subject Alternative Name: 
                IP Address:127.0.0.1
    Signature Algorithm: sha256WithRSAEncryption
         94:67:c8:ba:c7:18:21:a5:11:8c:39:e6:d2:17:47:a5:ac:04:
         ce:88:a4:86:9d:a7:a9:3f:e2:fc:54:13:28:b3:4d:a4:04:96:
         21:cc:d1:3f:d2:94:fe:d3:bb:99:49:41:4d:2b:fc:61:be:a1:
         3c:01:88:03:1b:62:c6:5f:f8:ae:20:70:ba:82:65:50:10:ef:
         f3:1e:7b:cd:76:c3:a2:77:b9:6f:28:13:3e:6e:76:57:2b:8a:
         eb:4e:21:86:9d:f2:98:c9:89:f0:bd:c4:2c:62:e9:bd:3b:1f:
         50:ee:0f:94:65:9f:16:04:1f:27:18:a4:fc:7b:7c:b5:16:72:
         56:a2:dc:6c:6a:04:e8:45:03:82:d6:f5:54:9e:b2:59:f8:a2:
         8a:8b:77:ef:a3:ab:b2:b9:2b:a3:a6:40:45:b0:f3:48:3f:4b:
         18:d2:8d:49:45:ab:a8:34:46:c9:70:9d:02:75:3b:7e:27:9f:
         11:69:0a:fa:46:25:3e:e0:17:24:32:12:c2:2a:a9:4a:a2:d5:
         8e:62:b9:2d:3e:75:f9:d0:84:cd:e3:cb:45:16:81:3b:5a:80:
         7c:d9:96:78:76:9f:df:ae:93:61:8e:b8:31:28:d6:a2:6c:80:
         86:67:06:33:1b:71:7d:73:62:df:fc:e1:6c:01:b4:6d:73:19:
         50:fe:1e:47
-----BEGIN CERTIFICATE-----
MIIDvzCCAqegAwIBAgIBFjANBgkqhkiG9w0BAQsFADBjMQswCQYDVQQGEwJVUzET
MBEGA1UECAwKQ2FsaWZvcm5pYTEWMBQGA1UEBwwNTW91bnRhaW4gVmlldzEQMA4G
A1UECgwHVGVzdCBDQTEVMBMGA1UEAwwMVGVzdCBSb290IENBMB4XDTE2MDUwMTAw
MDAwMFoXDTE3MDcwMzAwMDAwMFowYDELMAkGA1UEBhMCVVMxEzARBgNVBAgMCkNh
bGlmb3JuaWExFjAUBgNVBAcMDU1vdW50YWluIFZpZXcxEDAOBgNVBAoMB1Rlc3Qg
Q0ExEjAQBgNVBAMMCTEyNy4wLjAuMTCCASIwDQYJKoZIhvcNAQEBBQADggEPADCC
AQoCggEBALfPZtSmx5GluR6Kkc9RVAf0wqmOyogfUc9w4pMH/xebz66IhT2r9ma+
rNXqYddUhjYS3ZiMvDqGVPAI04QYq+0RGkEcn83sl48iWvHL08C7wqxF1L2qq7Os
6lvaICTnngOXPqTGwbq0xGlvnX6BPViWgAyR3nGf2CRzjovwZL5Om8Q6wZzvPAUG
x6e6NBv/14eWADDbbXTyrvTLpp65QopYbT7nVBEuuBJaycEh1KHHzl4+xXUDOHqN
IBPv2PiknB4Eeyiw0SThFNP/GCreoMgAR4Cahsk9CkjYDGPfexvzttW4FB16QOsG
fCOxd6saYKI2fwrjm3UBEX2vKVt7+CECAwEAAaOBgDB+MAwGA1UdEwEB/wQCMAAw
HQYDVR0OBBYEFNUX52jb4VHOo3y3du7NicEzHpiGMB8GA1UdIwQYMBaAFJsmC4qY
qbsduR8c4xpAM+2OF4irMB0GA1UdJQQWMBQGCCsGAQUFBwMBBggrBgEFBQcDAjAP
BgNVHREECDAGhwR/AAABMA0GCSqGSIb3DQEBCwUAA4IBAQCUZ8i6xxghpRGMOebS
F0elrATOiKSGnaepP+L8VBMos02kBJYhzNE/0pT+07uZSUFNK/xhvqE8AYgDG2LG
X/iuIHC6gmVQEO/zHnvNdsOid7lvKBM+bnZXK4rrTiGGnfKYyYnwvcQsYum9Ox9Q
7g+UZZ8WBB8nGKT8e3y1FnJWotxsagToRQOC1vVUnrJZ+KKKi3fvo6uyuSujpkBF
sPNIP0sY0o1JRauoNEbJcJ0CdTt+J58RaQr6RiU+4BckMhLCKqlKotWOYrktPnX5
0ITN48tFFoE7WoB82ZZ4dp/frpNhjrgxKNaibICGZwYzG3F9c2Lf/OFsAbRtcxlQ
/h5H
-----END CERTIFICATE-----

Certificate:
    Data:
        Version: 3 (0x2)
        Serial Number: 903804111 (0x35def4cf)
    Signature Algorithm: sha1WithRSAEncryption
        Issuer: C=US, O=Equifax, OU=Equifax Secure Certificate Authority
        Validity
            Not Before: Aug 22 16:41:51 1998 GMT
            Not After : Aug 22 16:41:51 2018 GMT
        Subject: C=US, O=Equifax, OU=Equifax Secure Certificate Authority
        Subject Public Key Info:
            Public Key Algorithm: rsaEncryption
                Public-Key: (1024 bit)
                Modulus:
                    00:c1:5d:b1:58:67:08:62:ee:a0:9a:2d:1f:08:6d:
                    91:14:68:98:0a:1e:fe:da:04:6f:13:84:62:21:c3:
                    d1:7c:ce:9f:05:e0:b8:01:f0:4e:34:ec:e2:8a:95:
                    04:64:ac:f1:6b:53:5f:05:b3:cb:67:80:bf:42:02:
                    8e:fe:dd:01:09:ec:e1:00:14:4f:fc:fb:f0:0c:dd:
                    43:ba:5b:2b:e1:1f:80:70:99:15:57:93:16:f1:0f:
                    97:6a:b7:c2:68:23:1c:cc:4d:59:30:ac:51:1e:3b:
                    af:2b:d6:ee:63:45:7b:c5:d9:5f:50:d2:e3:50:0f:
                    3a:88:e7:bf:14:fd:e0:c7:b9
                Exponent: 65537 (0x10001)
        X509v3 extensions:
            X509v3 CRL Distribution Points: 

                Full Name:
                  DirName: C = US, O = Equifax, OU = Equifax Secure Certificate Authority, CN = CRL1

            X509v3 Private Key Usage Period: 
                Not After: Aug 22 16:41:51 2018 GMT
            X509v3 Key Usage: 
                Certificate Sign, CRL Sign
            X509v3 Authority Key Identifier: 
                keyid:48:E6:68:F9:2B:D2:B2:95:D7:47:D8:23:20:10:4F:33:98:90:9F:D4

            X509v3 Subject Key Identifier: 
                48:E6:68:F9:2B:D2:B2:95:D7:47:D8:23:20:10:4F:33:98:90:9F:D4
            X509v3 Basic Constraints: 
                CA:TRUE
            1.2.840.113533.7.65.0: 
                0...V3.0c....
    Signature Algorithm: sha1WithRSAEncryption
         58:ce:29:ea:fc:f7:de:b5:ce:02:b9:17:b5:85:d1:b9:e3:e0:
         95:cc:25:31:0d:00:a6:92:6e:7f:b6:92:63:9e:50:95:d1:9a:
         6f:e4:11:de:63:85:6e:98:ee:a8:ff:5a:c8:d3:55:b2:66:71:
         57:de:c0:21:eb:3d:2a:a7:23:49:01:04:86:42:7b:fc:ee:7f:
         a2:16:52:b5:67:67:d3:40:db:3b:26:58:b2:28:77:3d:ae:14:
         77:61:d6:fa:2a:66:27:a0:0d:fa:a7:73:5c:ea:70:f1:94:21:
         65:44:5f:fa:fc:ef:29:68:a9:a2:87:79:ef:79:ef:4f:ac:07:
         77:38
-----BEGIN CERTIFICATE-----
MIIDIDCCAomgAwIBAgIENd70zzANBgkqhkiG9w0BAQUFADBOMQswCQYDVQQGEwJV
UzEQMA4GA1UEChMHRXF1aWZheDEtMCsGA1UECxMkRXF1aWZheCBTZWN1cmUgQ2Vy
dGlmaWNhdGUgQXV0aG9yaXR5MB4XDTk4MDgyMjE2NDE1MVoXDTE4MDgyMjE2NDE1
MVowTjELMAkGA1UEBhMCVVMxEDAOBgNVBAoTB0VxdWlmYXgxLTArBgNVBAsTJEVx
dWlmYXggU2VjdXJlIENlcnRpZmljYXRlIEF1dGhvcml0eTCBnzANBgkqhkiG9w0B
AQEFAAOBjQAwgYkCgYEAwV2xWGcIYu6gmi0fCG2RFGiYCh7+2gRvE4RiIcPRfM6f
BeC4AfBONOziipUEZKzxa1NfBbPLZ4C/QgKO/t0BCezhABRP/PvwDN1Dulsr4R+A
cJkVV5MW8Q+XarfCaCMczE1ZMKxRHjuvK9buY0V7xdlfUNLjUA86iOe/FP3gx7kC
AwEAAaOCAQkwggEFMHAGA1UdHwRpMGcwZaBjoGGkXzBdMQswCQYDVQQGEwJVUzEQ
MA4GA1UEChMHRXF1aWZheDEtMCsGA1UECxMkRXF1aWZheCBTZWN1cmUgQ2VydGlm
aWNhdGUgQXV0aG9yaXR5MQ0wCwYDVQQDEwRDUkwxMBoGA1UdEAQTMBGBDzIwMTgw
ODIyMTY0MTUxWjALBgNVHQ8EBAMCAQYwHwYDVR0jBBgwFoAUSOZo+SvSspXXR9gj
IBBPM5iQn9QwHQYDVR0OBBYEFEjmaPkr0rKV10fYIyAQTzOYkJ/UMAwGA1UdEwQF
MAMBAf8wGgYJKoZIhvZ9B0EABA0wCxsFVjMuMGMDAgbAMA0GCSqGSIb3DQEBBQUA
A4GBAFjOKer89961zgK5F7WF0bnj4JXMJTENAKaSbn+2kmOeUJXRmm/kEd5jhW6Y
7qj/WsjTVbJmcVfewCHrPSqnI0kBBIZCe/zuf6IWUrVnZ9NA2zsmWLIodz2uFHdh
1voqZiegDfqnc1zqcPGUIWVEX/r87yloqaKHee9570+sB3c4
-----END CERTIFICATE-----

