Certificate:
    Data:
        Version: 3 (0x2)
        Serial Number: 10431067552074120060 (0x90c298ac257b3b7c)
    Signature Algorithm: sha256WithRSAEncryption
        Issuer: CN=xn--wgv71a119e.com
        Validity
            Not Before: Jun  5 17:10:47 2017 GMT
            Not After : Jun  3 17:10:47 2027 GMT
        Subject: CN=xn--wgv71a119e.com
        Subject Public Key Info:
            Public Key Algorithm: rsaEncryption
                Public-Key: (2048 bit)
                Modulus:
                    00:c7:8e:c3:54:a1:02:4a:e0:97:7a:13:a3:42:57:
                    03:9e:f5:1e:61:69:35:f3:be:f8:92:2d:fe:47:5e:
                    0d:dc:7d:b8:79:bb:ce:7d:dd:ce:45:82:ff:ce:23:
                    56:0d:b3:08:ef:ab:67:02:50:6d:e6:dc:83:e1:9e:
                    a9:ac:5b:6a:6d:bd:b1:ef:78:d5:5c:4d:1f:d0:47:
                    d9:b3:d8:d0:5c:ad:fc:76:ac:7f:f7:33:b3:a0:bc:
                    99:3f:b7:8b:e1:ca:d7:98:78:d4:aa:10:1a:9a:1a:
                    84:f8:a9:fe:34:96:75:66:1c:36:5f:2d:8d:12:bf:
                    7e:24:7c:87:b3:d5:f4:07:73:d6:b8:e2:a0:f1:11:
                    fe:6b:37:0a:cb:0f:e4:23:b3:67:77:3c:16:72:af:
                    c5:11:62:18:1d:9e:be:f9:ce:62:29:91:2e:7f:2f:
                    c5:ee:de:98:ef:f8:43:97:cc:65:92:87:4f:70:5d:
                    62:23:f2:22:dc:48:e1:7c:9e:97:e5:d3:84:27:93:
                    37:d6:45:ea:e3:1d:de:9f:06:b5:99:2d:2a:70:ab:
                    76:34:95:7d:3d:43:9f:c8:35:5b:06:cf:94:d9:7c:
                    ed:cf:a3:b3:0b:f1:ad:b6:9d:cd:44:17:61:c8:97:
                    7a:26:10:4b:fd:ae:6d:11:a9:87:cc:14:eb:24:32:
                    eb:9d
                Exponent: 65537 (0x10001)
        X509v3 extensions:
            X509v3 Basic Constraints: critical
                CA:TRUE
            X509v3 Subject Alternative Name: 
                DNS:xn--wgv71a119e.com, DNS:*.xn--wgv71a119e.com, DNS:blahblahblahblah.com
    Signature Algorithm: sha256WithRSAEncryption
         c4:81:b1:91:37:f7:df:1e:a4:56:f6:03:95:4c:67:2d:b9:a3:
         ed:e0:2c:37:2d:bd:d1:6a:9e:a2:c4:66:3b:f8:7c:5a:cb:ec:
         57:64:e6:1d:20:85:cc:24:99:33:9c:cd:38:0e:03:c4:13:f6:
         b4:c6:d1:ea:6c:bd:34:1b:71:24:15:35:20:be:87:a0:97:0e:
         32:42:24:18:b8:8b:0f:15:da:73:42:0e:d7:fa:b9:7a:1b:a9:
         3e:71:64:a0:12:36:91:1f:5f:ae:0d:c4:26:22:fb:19:11:b6:
         75:92:1e:f4:ef:79:68:ef:9b:fc:3a:a6:11:9d:aa:9e:11:64:
         74:54:ba:80:a0:b9:3b:28:f9:3d:54:95:25:da:54:8e:38:47:
         6a:b0:d5:ec:33:a6:3c:b7:60:86:c9:03:ee:7d:5e:3f:c5:f1:
         e8:4c:1d:4a:20:be:02:43:bd:e2:cc:4c:c6:13:2a:4a:b8:80:
         67:98:7b:5f:ae:3b:48:16:ba:46:da:a1:0e:88:22:85:f9:48:
         1b:04:64:0f:09:a5:89:1e:4f:ca:ce:39:60:27:f3:ea:ee:29:
         ff:27:58:88:ad:eb:1d:ac:6a:46:a5:66:a3:43:e9:7f:ce:01:
         8a:33:31:a2:fc:64:26:9b:e9:0e:a9:af:76:be:b7:d9:59:6a:
         71:15:b4:fb
-----BEGIN CERTIFICATE-----
MIIDGzCCAgOgAwIBAgIJAJDCmKwlezt8MA0GCSqGSIb3DQEBCwUAMB0xGzAZBgNV
BAMMEnhuLS13Z3Y3MWExMTllLmNvbTAeFw0xNzA2MDUxNzEwNDdaFw0yNzA2MDMx
NzEwNDdaMB0xGzAZBgNVBAMMEnhuLS13Z3Y3MWExMTllLmNvbTCCASIwDQYJKoZI
hvcNAQEBBQADggEPADCCAQoCggEBAMeOw1ShAkrgl3oTo0JXA571HmFpNfO++JIt
/kdeDdx9uHm7zn3dzkWC/84jVg2zCO+rZwJQbebcg+Geqaxbam29se941VxNH9BH
2bPY0Fyt/Hasf/czs6C8mT+3i+HK15h41KoQGpoahPip/jSWdWYcNl8tjRK/fiR8
h7PV9Adz1rjioPER/ms3CssP5COzZ3c8FnKvxRFiGB2evvnOYimRLn8vxe7emO/4
Q5fMZZKHT3BdYiPyItxI4Xyel+XThCeTN9ZF6uMd3p8GtZktKnCrdjSVfT1Dn8g1
WwbPlNl87c+jswvxrbadzUQXYciXeiYQS/2ubRGph8wU6yQy650CAwEAAaNeMFww
DwYDVR0TAQH/BAUwAwEB/zBJBgNVHREEQjBAghJ4bi0td2d2NzFhMTE5ZS5jb22C
FCoueG4tLXdndjcxYTExOWUuY29tghRibGFoYmxhaGJsYWhibGFoLmNvbTANBgkq
hkiG9w0BAQsFAAOCAQEAxIGxkTf33x6kVvYDlUxnLbmj7eAsNy290WqeosRmO/h8
WsvsV2TmHSCFzCSZM5zNOA4DxBP2tMbR6my9NBtxJBU1IL6HoJcOMkIkGLiLDxXa
c0IO1/q5ehupPnFkoBI2kR9frg3EJiL7GRG2dZIe9O95aO+b/DqmEZ2qnhFkdFS6
gKC5Oyj5PVSVJdpUjjhHarDV7DOmPLdghskD7n1eP8Xx6EwdSiC+AkO94sxMxhMq
SriAZ5h7X647SBa6RtqhDogihflIGwRkDwmliR5Pys45YCfz6u4p/ydYiK3rHaxq
RqVmo0Ppf84BijMxovxkJpvpDqmvdr632VlqcRW0+w==
-----END CERTIFICATE-----
