Certificate:
    Data:
        Version: 3 (0x2)
        Serial Number: 15821419482712091348 (0xdb90f931ad7faad4)
    Signature Algorithm: sha1WithRSAEncryption
        Issuer: CN=C CA
        Validity
            Not Before: Aug 14 02:47:11 2014 GMT
            Not After : Aug 11 02:47:11 2024 GMT
        Subject: CN=C CA
        Subject Public Key Info:
            Public Key Algorithm: rsaEncryption
                Public-Key: (2048 bit)
                Modulus:
                    00:a7:3d:f2:7d:cf:2c:cd:eb:2c:bc:03:65:da:ae:
                    96:29:80:29:8d:c5:42:e1:93:d9:3a:d7:78:9b:b5:
                    be:7b:ef:df:c9:fd:86:30:18:c6:38:92:c6:a5:63:
                    2e:ba:d0:9c:16:91:af:b3:80:38:14:5f:88:ca:b3:
                    8b:a4:c4:ba:2f:c4:d4:c0:c0:2e:43:6c:1e:af:5e:
                    9c:6a:9c:96:17:c3:89:ab:af:2a:93:7d:76:ea:34:
                    2a:56:c9:5c:e9:72:50:f7:d1:e6:a0:2c:ee:df:27:
                    a8:2f:17:c1:f6:fd:80:d6:dd:19:64:fe:7f:b7:80:
                    a6:00:94:28:0e:01:fa:9b:40:d2:ed:43:2c:b1:10:
                    2e:b0:57:5a:e4:5a:2f:86:6c:63:fa:22:d4:e2:c6:
                    81:c0:d8:76:7e:54:a6:81:b7:b0:bb:ac:66:80:ed:
                    a1:ab:25:6f:4d:7d:b6:cc:37:65:74:30:df:52:84:
                    4b:93:f7:95:76:96:fb:db:fe:b9:d3:2c:ff:65:4d:
                    89:09:15:32:3c:5d:60:68:79:57:9b:98:59:bc:d7:
                    c2:93:30:91:81:7c:fc:d5:7e:46:3c:85:ef:4d:d2:
                    9e:96:b0:86:95:78:20:6f:bd:a0:72:3f:d1:25:4c:
                    f7:2e:c5:a1:21:5a:c7:7b:5e:98:73:15:37:0a:9d:
                    80:0b
                Exponent: 65537 (0x10001)
        X509v3 extensions:
            X509v3 Basic Constraints: critical
                CA:TRUE
            X509v3 Subject Key Identifier: 
                08:C0:24:F4:0D:BB:C2:01:35:30:BA:2C:41:96:6B:16:DB:F8:22:F5
            X509v3 Key Usage: critical
                Certificate Sign, CRL Sign
    Signature Algorithm: sha1WithRSAEncryption
         5f:95:30:a9:ee:b0:b0:b4:fb:0e:3e:7a:df:57:6e:cc:e4:59:
         45:bf:93:08:62:d2:98:f6:7b:37:cf:b6:f5:8c:8d:82:dc:c8:
         f0:af:3b:0d:1e:cc:c4:b7:b1:f3:da:58:f9:29:d6:f7:ed:16:
         63:51:dc:d3:1c:37:2f:a3:f4:29:0f:91:5d:90:2e:d2:c7:ef:
         1b:55:01:c9:ad:cb:7b:45:da:2d:65:01:c7:3f:b5:a4:78:b1:
         22:81:d3:a6:6c:c6:ba:5e:23:88:1d:d5:3e:7d:c6:15:88:88:
         19:f7:c4:83:a6:27:96:9e:4b:c5:ef:7e:2c:6a:09:e1:3f:79:
         2d:91:27:ab:28:12:18:6f:b3:b8:cf:0f:06:1d:d7:75:47:9b:
         39:4d:66:3c:b4:12:58:0a:b8:b2:d7:c7:99:26:a0:9c:e4:90:
         cd:5e:1b:0a:50:d1:61:20:ff:b7:c7:da:7e:7c:e5:e7:d3:91:
         a8:82:f8:90:f4:2d:aa:6e:b7:28:59:02:42:fc:90:a2:1d:f9:
         d4:74:b0:a3:c4:9c:95:9a:33:e2:30:dd:7d:6e:58:e7:b0:41:
         de:b3:db:7f:16:da:94:e6:99:32:49:d4:69:6b:68:be:95:2e:
         2e:fa:fd:eb:ec:67:87:24:f6:74:cc:1c:3b:32:fa:45:24:a9:
         ff:f5:df:12
-----BEGIN CERTIFICATE-----
MIIC4zCCAcugAwIBAgIJANuQ+TGtf6rUMA0GCSqGSIb3DQEBBQUAMA8xDTALBgNV
BAMMBEMgQ0EwHhcNMTQwODE0MDI0NzExWhcNMjQwODExMDI0NzExWjAPMQ0wCwYD
VQQDDARDIENBMIIBIjANBgkqhkiG9w0BAQEFAAOCAQ8AMIIBCgKCAQEApz3yfc8s
zessvANl2q6WKYApjcVC4ZPZOtd4m7W+e+/fyf2GMBjGOJLGpWMuutCcFpGvs4A4
FF+IyrOLpMS6L8TUwMAuQ2wer16capyWF8OJq68qk3126jQqVslc6XJQ99HmoCzu
3yeoLxfB9v2A1t0ZZP5/t4CmAJQoDgH6m0DS7UMssRAusFda5Fovhmxj+iLU4saB
wNh2flSmgbewu6xmgO2hqyVvTX22zDdldDDfUoRLk/eVdpb72/650yz/ZU2JCRUy
PF1gaHlXm5hZvNfCkzCRgXz81X5GPIXvTdKelrCGlXggb72gcj/RJUz3LsWhIVrH
e16YcxU3Cp2ACwIDAQABo0IwQDAPBgNVHRMBAf8EBTADAQH/MB0GA1UdDgQWBBQI
wCT0DbvCATUwuixBlmsW2/gi9TAOBgNVHQ8BAf8EBAMCAQYwDQYJKoZIhvcNAQEF
BQADggEBAF+VMKnusLC0+w4+et9XbszkWUW/kwhi0pj2ezfPtvWMjYLcyPCvOw0e
zMS3sfPaWPkp1vftFmNR3NMcNy+j9CkPkV2QLtLH7xtVAcmty3tF2i1lAcc/taR4
sSKB06ZsxrpeI4gd1T59xhWIiBn3xIOmJ5aeS8XvfixqCeE/eS2RJ6soEhhvs7jP
DwYd13VHmzlNZjy0ElgKuLLXx5kmoJzkkM1eGwpQ0WEg/7fH2n585efTkaiC+JD0
LaputyhZAkL8kKId+dR0sKPEnJWaM+Iw3X1uWOewQd6z238W2pTmmTJJ1GlraL6V
Li76/evsZ4ck9nTMHDsy+kUkqf/13xI=
-----END CERTIFICATE-----
