-----BEGIN RSA PRIVATE KEY-----
MIIEowIBAAKCAQEAs9htMWsxQD/3s1phTjWQ2u8R4idEckpFjVHN+C9K3HEKIS9K
VN51HtRwu9nj36OT970k2xC3+O5SAtqdy23/5oMPUTdoD5zKdNvGVxLSGypFOMZX
jgt39pulOan4sJJ/DtdrRjZEkjXBqgYy0xSeBoJIf1tewIJiv8YEYOjwMQKaznLM
qaVY8+k8n/NtRb49etaBR0j3531UCupBMEyiiITqMd1Z/dwQodvD5UZhxaSxY1xl
nw6/HX1f32zWq6zSZrnk9JDpLPyBuJy4d/op7mJv4Tv/jFc7qMpB0AvCflqneeeU
r4TI34CSo+zFu7IPIFVzvd8ZYUGPtIkane2JVQIDAQABAoIBAFcpIvJ6cuoille0
C8itqUCR8ObcBQ4m9MJizSHlObDQkAo5MxsinTyN1P0VwpyWWJYOcxhAaAka52A+
t47qBsWe6wN/iM1YPb6Y7O0yT+WefOHhLnnHESLRmCf0OnTI6w80U+c5Uc5Sg0N1
sZgfO98HsT8X9znxdw5eV6zn99CoFCXouF8lCci/PQ0LnIWrMYHggN1MuhLlh3pB
Vi+ozl5ZYPbsU8+BOWk7T4xhNfgCYqrKSsz9qthiCxPfA9bmGBK02qXFbx55VXJe
C5+LZV0oleDjChskH0FpfFoTh2aasGmhM3bwIp2rsz32MJe/QHTaT24eeRNgdB+H
Xb7BRIECgYEA4/Be1j2TQbvyp4Yd/cW2NUVzxo/kq5FY5yi3CGQ7fkTU/KgER3p/
DuCOk/ly9IdrILg9ojGXnPQgEbVNkmeulrFD+UBZtFqdpusX50Ehv8TLwoInLsOf
v1BN3Vhh8NfHEFiD/DuVBN1rwk9R+yIG6ZTe3kohLRXWHspCGGnrFQUCgYEAyfxc
Oc3sVJa5S9Vug3ZcmolKI/sZP7/4+q0HtfGmimQGmA1gNy/vPTe6gYnoVNgFmvGG
LQCm/qYoUtcKGoQJuAj8hurYZehWmhmXudf82r1DaN26V70DCVV/bMXQROQGWxTN
ci7h13dmOl6vJXf2jcqRAIRYnbH6bbUaGryV1BECgYBw1JaNZJOVMW0PYgNMkGb+
fa+utaHTD7K7UlswCzWr7nSj0KO1ojxs59mMBCnUQ4hS/QB9XiEXr3yEZ4PLmglB
TORB6Im/DjAF5U/CyGnlXIwkb3rn2iwkbqLsk4h/yMAgJkDHRdMhQl3KJKuHLbPQ
QkIENRuxDqMcQLBxF1Un5QKBgAXZgypBZnjErLUfh0XTZbcsBrOoEAEipClOXYzN
ZM9ZOj+pE4JFpx4UwRgDUHE0mGT2XbZr8Gorkbtkcux1qnpj+DxIDOBWrDtmRlih
grcrCAq/cSgdVzsr+LbDu9Zi7DQzFAgch3ngAVvrZhMluEQ++5gSPSbEAsaumgTw
NT6hAoGBAM2IpPgrCi60ikYxmFx9gtqAGedWPu7c1BlP2HVBuib+STodK3sVcNU3
px9zzrGTbil/r873Co4/sgFXk5r+23qTuFCpUOrW0YDsKOe85WSuOY8RiSf/SQhd
B9gqBDymZgZ/0kCIUGhigZNNcJEhdY++eggmgt0lUt2QQNa7o3JI
-----END RSA PRIVATE KEY-----
Certificate:
    Data:
        Version: 3 (0x2)
        Serial Number: 4096 (0x1000)
    Signature Algorithm: sha256WithRSAEncryption
        Issuer: CN=B CA
        Validity
            Not Before: Aug 14 02:47:12 2014 GMT
            Not After : Aug 11 02:47:12 2024 GMT
        Subject: C=US, ST=California, L=Mountain View, O=Test CA, CN=127.0.0.1
        Subject Public Key Info:
            Public Key Algorithm: rsaEncryption
                Public-Key: (2048 bit)
                Modulus:
                    00:b3:d8:6d:31:6b:31:40:3f:f7:b3:5a:61:4e:35:
                    90:da:ef:11:e2:27:44:72:4a:45:8d:51:cd:f8:2f:
                    4a:dc:71:0a:21:2f:4a:54:de:75:1e:d4:70:bb:d9:
                    e3:df:a3:93:f7:bd:24:db:10:b7:f8:ee:52:02:da:
                    9d:cb:6d:ff:e6:83:0f:51:37:68:0f:9c:ca:74:db:
                    c6:57:12:d2:1b:2a:45:38:c6:57:8e:0b:77:f6:9b:
                    a5:39:a9:f8:b0:92:7f:0e:d7:6b:46:36:44:92:35:
                    c1:aa:06:32:d3:14:9e:06:82:48:7f:5b:5e:c0:82:
                    62:bf:c6:04:60:e8:f0:31:02:9a:ce:72:cc:a9:a5:
                    58:f3:e9:3c:9f:f3:6d:45:be:3d:7a:d6:81:47:48:
                    f7:e7:7d:54:0a:ea:41:30:4c:a2:88:84:ea:31:dd:
                    59:fd:dc:10:a1:db:c3:e5:46:61:c5:a4:b1:63:5c:
                    65:9f:0e:bf:1d:7d:5f:df:6c:d6:ab:ac:d2:66:b9:
                    e4:f4:90:e9:2c:fc:81:b8:9c:b8:77:fa:29:ee:62:
                    6f:e1:3b:ff:8c:57:3b:a8:ca:41:d0:0b:c2:7e:5a:
                    a7:79:e7:94:af:84:c8:df:80:92:a3:ec:c5:bb:b2:
                    0f:20:55:73:bd:df:19:61:41:8f:b4:89:1a:9d:ed:
                    89:55
                Exponent: 65537 (0x10001)
        X509v3 extensions:
            X509v3 Basic Constraints: critical
                CA:FALSE
            X509v3 Subject Key Identifier: 
                C0:E2:E7:28:2E:67:6F:8E:24:79:39:78:B6:0C:7E:B1:48:35:40:1E
            X509v3 Authority Key Identifier: 
                keyid:69:C1:9C:85:EC:20:DC:38:0C:32:B0:51:FC:CF:DB:C1:97:03:50:5D

            X509v3 Extended Key Usage: 
                TLS Web Server Authentication, TLS Web Client Authentication
    Signature Algorithm: sha256WithRSAEncryption
         da:56:18:d4:16:55:5a:e4:c4:1c:66:15:dd:f0:eb:e6:94:b6:
         d1:84:65:75:06:c8:15:fd:16:6b:e0:f0:0c:90:9f:0b:23:a2:
         7f:30:2a:59:31:b1:fe:c5:88:06:fe:ad:82:7d:e3:9d:73:82:
         cf:31:22:93:4d:36:32:49:e5:21:9c:5a:99:e0:74:d8:4d:ed:
         f8:99:83:5f:ba:50:96:34:6d:aa:cc:50:61:a2:7c:60:e8:c1:
         00:b4:68:a5:05:cf:b8:44:7e:36:9a:c7:06:c5:26:e0:f8:58:
         2e:ec:d3:45:e0:64:99:95:4f:08:f3:6d:d4:aa:e9:93:a0:b4:
         bd:5d:77:20:b9:84:61:e2:dd:04:7a:75:4f:dc:94:48:f7:b3:
         76:ef:a9:21:f5:24:42:ef:aa:e2:eb:80:c1:6f:66:91:dc:45:
         27:a6:f9:fc:d7:e7:9d:c9:3f:d3:ce:8d:e7:a6:0f:41:50:72:
         94:01:9a:72:82:d3:86:23:cc:fe:f3:2e:d8:b9:b5:16:ed:1c:
         7a:d0:39:06:e5:2b:0b:ac:d9:21:29:30:b4:06:f2:ee:a5:6b:
         b3:13:8d:23:eb:62:95:b7:43:ca:f1:cb:fa:3a:fd:ce:5a:eb:
         36:fe:47:f0:51:47:fe:b1:70:90:45:ce:4d:b2:60:80:b7:7f:
         19:4d:79:e5
-----BEGIN CERTIFICATE-----
MIIDWjCCAkKgAwIBAgICEAAwDQYJKoZIhvcNAQELBQAwDzENMAsGA1UEAwwEQiBD
QTAeFw0xNDA4MTQwMjQ3MTJaFw0yNDA4MTEwMjQ3MTJaMGAxCzAJBgNVBAYTAlVT
MRMwEQYDVQQIDApDYWxpZm9ybmlhMRYwFAYDVQQHDA1Nb3VudGFpbiBWaWV3MRAw
DgYDVQQKDAdUZXN0IENBMRIwEAYDVQQDDAkxMjcuMC4wLjEwggEiMA0GCSqGSIb3
DQEBAQUAA4IBDwAwggEKAoIBAQCz2G0xazFAP/ezWmFONZDa7xHiJ0RySkWNUc34
L0rccQohL0pU3nUe1HC72ePfo5P3vSTbELf47lIC2p3Lbf/mgw9RN2gPnMp028ZX
EtIbKkU4xleOC3f2m6U5qfiwkn8O12tGNkSSNcGqBjLTFJ4Ggkh/W17AgmK/xgRg
6PAxAprOcsyppVjz6Tyf821Fvj161oFHSPfnfVQK6kEwTKKIhOox3Vn93BCh28Pl
RmHFpLFjXGWfDr8dfV/fbNarrNJmueT0kOks/IG4nLh3+inuYm/hO/+MVzuoykHQ
C8J+Wqd555SvhMjfgJKj7MW7sg8gVXO93xlhQY+0iRqd7YlVAgMBAAGjbzBtMAwG
A1UdEwEB/wQCMAAwHQYDVR0OBBYEFMDi5yguZ2+OJHk5eLYMfrFINUAeMB8GA1Ud
IwQYMBaAFGnBnIXsINw4DDKwUfzP28GXA1BdMB0GA1UdJQQWMBQGCCsGAQUFBwMB
BggrBgEFBQcDAjANBgkqhkiG9w0BAQsFAAOCAQEA2lYY1BZVWuTEHGYV3fDr5pS2
0YRldQbIFf0Wa+DwDJCfCyOifzAqWTGx/sWIBv6tgn3jnXOCzzEik002MknlIZxa
meB02E3t+JmDX7pQljRtqsxQYaJ8YOjBALRopQXPuER+NprHBsUm4PhYLuzTReBk
mZVPCPNt1Krpk6C0vV13ILmEYeLdBHp1T9yUSPezdu+pIfUkQu+q4uuAwW9mkdxF
J6b5/Nfnnck/086N56YPQVBylAGacoLThiPM/vMu2Lm1Fu0cetA5BuUrC6zZISkw
tAby7qVrsxONI+tilbdDyvHL+jr9zlrrNv5H8FFH/rFwkEXOTbJggLd/GU155Q==
-----END CERTIFICATE-----
Certificate:
    Data:
        Version: 3 (0x2)
        Serial Number: 4097 (0x1001)
    Signature Algorithm: sha256WithRSAEncryption
        Issuer: CN=C CA
        Validity
            Not Before: Aug 14 02:47:12 2014 GMT
            Not After : Aug 11 02:47:12 2024 GMT
        Subject: CN=B CA
        Subject Public Key Info:
            Public Key Algorithm: rsaEncryption
                Public-Key: (2048 bit)
                Modulus:
                    00:ec:ac:40:57:bc:13:cd:7a:72:b9:2b:fb:46:a3:
                    ca:a0:0e:f9:74:87:0d:16:e4:d4:78:79:38:ac:f3:
                    39:61:52:2d:11:38:15:cc:7a:02:1e:b1:a8:d7:0d:
                    39:fd:d1:2e:0c:66:35:e0:47:66:96:6c:3a:aa:11:
                    3f:91:36:e4:fb:71:5e:2d:e5:4a:c1:2c:82:bc:de:
                    0e:e4:d4:fb:8d:c0:a7:0e:82:70:4e:64:aa:55:5a:
                    cb:59:de:b7:8f:e0:77:96:db:3a:4a:47:52:a8:1b:
                    ef:7a:c9:c3:d5:7e:e1:65:2f:6d:35:21:24:37:12:
                    c9:e8:c1:43:35:8d:7f:81:a5:77:fa:b6:c4:f0:74:
                    3b:ab:40:03:a7:98:32:9d:7b:67:5a:19:b1:29:0c:
                    ac:96:28:12:4c:cb:3b:e0:71:08:6a:02:86:de:b4:
                    fe:66:b4:46:ac:7b:c6:45:62:27:1b:40:7a:f6:d7:
                    38:02:52:43:21:9e:6a:80:91:83:b1:16:aa:ca:87:
                    4c:d2:db:d5:1c:e0:2c:73:07:d1:36:43:4c:b3:09:
                    5d:88:6e:5b:90:61:5a:74:c6:84:1a:da:29:1c:9c:
                    5c:b0:b7:18:f0:12:9d:9c:c9:23:96:1f:50:5f:94:
                    4f:a6:65:1a:45:cb:88:bb:a7:c7:66:fd:74:c0:75:
                    ad:c1
                Exponent: 65537 (0x10001)
        X509v3 extensions:
            X509v3 Basic Constraints: critical
                CA:TRUE
            X509v3 Subject Key Identifier: 
                69:C1:9C:85:EC:20:DC:38:0C:32:B0:51:FC:CF:DB:C1:97:03:50:5D
            X509v3 Key Usage: critical
                Certificate Sign, CRL Sign
    Signature Algorithm: sha256WithRSAEncryption
         69:cd:f5:27:4e:fd:65:b2:91:8f:37:9f:ea:3a:46:ad:b3:8e:
         d8:f4:ba:a7:e1:da:9b:22:39:44:2b:eb:37:84:ed:f4:b4:87:
         bc:db:7f:f0:db:06:78:38:30:5d:33:70:05:e3:70:20:39:fc:
         18:86:86:6a:95:0f:ce:a7:ad:8d:c6:5d:29:c8:39:0c:f1:82:
         a1:c3:4c:f6:58:e3:3f:2c:95:70:13:29:a8:b4:17:8c:94:bb:
         01:af:07:9d:a5:d3:47:28:15:45:a6:40:0a:f0:37:f3:32:e4:
         af:8c:e6:59:8a:bb:0d:a0:38:e0:6d:20:75:22:24:12:75:69:
         ac:4a:87:aa:c1:d1:8e:e5:9d:be:8f:cd:6e:c6:d8:5e:43:83:
         7f:fb:50:43:8a:6f:db:9a:fc:7e:61:70:87:10:15:c4:2c:1b:
         6b:24:ee:eb:16:08:4b:d2:9e:ba:c0:ef:59:d3:be:9f:36:4c:
         70:4d:11:ab:16:10:0a:b4:26:f4:b0:a0:60:5f:02:60:dc:0d:
         3c:82:69:5b:7e:c8:2c:3b:ec:59:7d:08:65:e5:a5:d8:c3:d0:
         e8:b7:c8:2a:27:95:6e:d1:84:54:76:dc:58:9f:9a:2d:4b:9e:
         1d:44:44:7f:ed:b7:ef:9e:52:49:1c:cf:6d:c9:ba:d5:54:d9:
         59:2d:c7:af
-----BEGIN CERTIFICATE-----
MIIC3DCCAcSgAwIBAgICEAEwDQYJKoZIhvcNAQELBQAwDzENMAsGA1UEAwwEQyBD
QTAeFw0xNDA4MTQwMjQ3MTJaFw0yNDA4MTEwMjQ3MTJaMA8xDTALBgNVBAMMBEIg
Q0EwggEiMA0GCSqGSIb3DQEBAQUAA4IBDwAwggEKAoIBAQDsrEBXvBPNenK5K/tG
o8qgDvl0hw0W5NR4eTis8zlhUi0ROBXMegIesajXDTn90S4MZjXgR2aWbDqqET+R
NuT7cV4t5UrBLIK83g7k1PuNwKcOgnBOZKpVWstZ3reP4HeW2zpKR1KoG+96ycPV
fuFlL201ISQ3EsnowUM1jX+BpXf6tsTwdDurQAOnmDKde2daGbEpDKyWKBJMyzvg
cQhqAobetP5mtEase8ZFYicbQHr21zgCUkMhnmqAkYOxFqrKh0zS29Uc4CxzB9E2
Q0yzCV2IbluQYVp0xoQa2ikcnFywtxjwEp2cySOWH1BflE+mZRpFy4i7p8dm/XTA
da3BAgMBAAGjQjBAMA8GA1UdEwEB/wQFMAMBAf8wHQYDVR0OBBYEFGnBnIXsINw4
DDKwUfzP28GXA1BdMA4GA1UdDwEB/wQEAwIBBjANBgkqhkiG9w0BAQsFAAOCAQEA
ac31J079ZbKRjzef6jpGrbOO2PS6p+HamyI5RCvrN4Tt9LSHvNt/8NsGeDgwXTNw
BeNwIDn8GIaGapUPzqetjcZdKcg5DPGCocNM9ljjPyyVcBMpqLQXjJS7Aa8HnaXT
RygVRaZACvA38zLkr4zmWYq7DaA44G0gdSIkEnVprEqHqsHRjuWdvo/NbsbYXkOD
f/tQQ4pv25r8fmFwhxAVxCwbayTu6xYIS9KeusDvWdO+nzZMcE0RqxYQCrQm9LCg
YF8CYNwNPIJpW37ILDvsWX0IZeWl2MPQ6LfIKieVbtGEVHbcWJ+aLUueHUREf+23
755SSRzPbcm61VTZWS3Hrw==
-----END CERTIFICATE-----
Certificate:
    Data:
        Version: 3 (0x2)
        Serial Number: 4099 (0x1003)
    Signature Algorithm: sha256WithRSAEncryption
        Issuer: CN=D Root CA
        Validity
            Not Before: Aug 14 02:47:12 2014 GMT
            Not After : Aug 11 02:47:12 2024 GMT
        Subject: CN=C CA
        Subject Public Key Info:
            Public Key Algorithm: rsaEncryption
                Public-Key: (2048 bit)
                Modulus:
                    00:a7:3d:f2:7d:cf:2c:cd:eb:2c:bc:03:65:da:ae:
                    96:29:80:29:8d:c5:42:e1:93:d9:3a:d7:78:9b:b5:
                    be:7b:ef:df:c9:fd:86:30:18:c6:38:92:c6:a5:63:
                    2e:ba:d0:9c:16:91:af:b3:80:38:14:5f:88:ca:b3:
                    8b:a4:c4:ba:2f:c4:d4:c0:c0:2e:43:6c:1e:af:5e:
                    9c:6a:9c:96:17:c3:89:ab:af:2a:93:7d:76:ea:34:
                    2a:56:c9:5c:e9:72:50:f7:d1:e6:a0:2c:ee:df:27:
                    a8:2f:17:c1:f6:fd:80:d6:dd:19:64:fe:7f:b7:80:
                    a6:00:94:28:0e:01:fa:9b:40:d2:ed:43:2c:b1:10:
                    2e:b0:57:5a:e4:5a:2f:86:6c:63:fa:22:d4:e2:c6:
                    81:c0:d8:76:7e:54:a6:81:b7:b0:bb:ac:66:80:ed:
                    a1:ab:25:6f:4d:7d:b6:cc:37:65:74:30:df:52:84:
                    4b:93:f7:95:76:96:fb:db:fe:b9:d3:2c:ff:65:4d:
                    89:09:15:32:3c:5d:60:68:79:57:9b:98:59:bc:d7:
                    c2:93:30:91:81:7c:fc:d5:7e:46:3c:85:ef:4d:d2:
                    9e:96:b0:86:95:78:20:6f:bd:a0:72:3f:d1:25:4c:
                    f7:2e:c5:a1:21:5a:c7:7b:5e:98:73:15:37:0a:9d:
                    80:0b
                Exponent: 65537 (0x10001)
        X509v3 extensions:
            X509v3 Basic Constraints: critical
                CA:TRUE
            X509v3 Subject Key Identifier: 
                08:C0:24:F4:0D:BB:C2:01:35:30:BA:2C:41:96:6B:16:DB:F8:22:F5
            X509v3 Key Usage: critical
                Certificate Sign, CRL Sign
    Signature Algorithm: sha256WithRSAEncryption
         20:97:de:df:43:2c:d1:43:19:77:8d:1f:9f:fa:9c:c5:40:0b:
         4f:cc:b1:4a:6f:61:74:92:d7:3f:cb:17:a8:f0:d9:f2:29:08:
         28:56:fd:ad:ae:db:b2:10:2b:90:ac:10:6d:65:36:73:55:6a:
         9f:92:8b:c4:d4:72:ff:a2:6a:55:e0:71:be:0b:60:f0:e5:45:
         a3:ae:c8:cf:21:f0:30:56:fc:b7:b0:46:60:12:dc:85:62:79:
         93:2d:dd:74:1b:62:8e:0e:cd:a5:de:b1:9f:6e:45:2b:5a:1c:
         8f:b8:fa:ac:05:21:1a:69:a7:e2:be:59:fe:88:ad:26:98:5f:
         78:9d:58:ca:06:8c:9a:6d:aa:2e:2c:52:ab:3c:99:66:cb:1f:
         56:eb:4b:17:e8:de:ab:d3:40:c7:92:f3:84:78:15:70:53:6b:
         bd:f3:5e:c3:4d:36:19:b6:da:54:79:eb:3f:80:8f:28:4f:35:
         cd:4d:3a:b5:e5:e9:3d:c0:eb:92:f5:64:ff:e9:69:ff:3c:06:
         bd:94:62:45:45:9c:85:bd:ff:18:45:48:d0:fb:28:1a:97:5c:
         0c:21:32:a7:a5:94:e3:51:14:4e:b3:fe:a7:bc:c6:6e:fc:1f:
         09:93:92:9a:3b:bf:8c:8a:3e:66:fe:fa:c9:2d:b4:18:96:c9:
         c6:64:90:98
-----BEGIN CERTIFICATE-----
MIIC4TCCAcmgAwIBAgICEAMwDQYJKoZIhvcNAQELBQAwFDESMBAGA1UEAwwJRCBS
b290IENBMB4XDTE0MDgxNDAyNDcxMloXDTI0MDgxMTAyNDcxMlowDzENMAsGA1UE
AwwEQyBDQTCCASIwDQYJKoZIhvcNAQEBBQADggEPADCCAQoCggEBAKc98n3PLM3r
LLwDZdqulimAKY3FQuGT2TrXeJu1vnvv38n9hjAYxjiSxqVjLrrQnBaRr7OAOBRf
iMqzi6TEui/E1MDALkNsHq9enGqclhfDiauvKpN9duo0KlbJXOlyUPfR5qAs7t8n
qC8Xwfb9gNbdGWT+f7eApgCUKA4B+ptA0u1DLLEQLrBXWuRaL4ZsY/oi1OLGgcDY
dn5UpoG3sLusZoDtoaslb019tsw3ZXQw31KES5P3lXaW+9v+udMs/2VNiQkVMjxd
YGh5V5uYWbzXwpMwkYF8/NV+RjyF703SnpawhpV4IG+9oHI/0SVM9y7FoSFax3te
mHMVNwqdgAsCAwEAAaNCMEAwDwYDVR0TAQH/BAUwAwEB/zAdBgNVHQ4EFgQUCMAk
9A27wgE1MLosQZZrFtv4IvUwDgYDVR0PAQH/BAQDAgEGMA0GCSqGSIb3DQEBCwUA
A4IBAQAgl97fQyzRQxl3jR+f+pzFQAtPzLFKb2F0ktc/yxeo8NnyKQgoVv2trtuy
ECuQrBBtZTZzVWqfkovE1HL/ompV4HG+C2Dw5UWjrsjPIfAwVvy3sEZgEtyFYnmT
Ld10G2KODs2l3rGfbkUrWhyPuPqsBSEaaafivln+iK0mmF94nVjKBoyabaouLFKr
PJlmyx9W60sX6N6r00DHkvOEeBVwU2u9817DTTYZttpUees/gI8oTzXNTTq15ek9
wOuS9WT/6Wn/PAa9lGJFRZyFvf8YRUjQ+ygal1wMITKnpZTjURROs/6nvMZu/B8J
k5KaO7+Mij5m/vrJLbQYlsnGZJCY
-----END CERTIFICATE-----
Certificate:
    Data:
        Version: 3 (0x2)
        Serial Number: 17926601032734454847 (0xf8c814a8fa49b43f)
    Signature Algorithm: sha1WithRSAEncryption
        Issuer: CN=D Root CA
        Validity
            Not Before: Aug 14 02:47:11 2014 GMT
            Not After : Aug 11 02:47:11 2024 GMT
        Subject: CN=D Root CA
        Subject Public Key Info:
            Public Key Algorithm: rsaEncryption
                Public-Key: (2048 bit)
                Modulus:
                    00:a8:28:d1:e2:8f:e8:bc:f3:d4:88:2e:a8:f6:b4:
                    91:b5:20:1e:cf:e5:3a:0a:2f:17:c9:4d:40:ba:39:
                    3a:ee:0d:b1:21:4a:c4:13:63:c3:05:8b:06:57:b5:
                    41:8b:f5:a3:69:81:e7:eb:3a:d3:f8:05:e8:be:ca:
                    a6:b5:17:41:0e:54:47:b6:88:3a:a6:31:d9:f2:05:
                    37:17:ab:b8:15:d4:00:85:dc:04:ed:c7:e0:de:16:
                    86:82:01:14:e0:f3:e9:d9:d0:7e:83:9e:4e:f3:7b:
                    33:fe:e6:dd:35:3c:fb:af:c8:08:30:36:78:ff:a5:
                    c4:a1:47:62:9c:37:25:fc:3a:21:78:c5:ec:a9:0c:
                    cc:72:69:e7:2b:b0:04:66:ca:a5:20:92:96:e6:3a:
                    90:b5:60:13:41:90:3d:ab:44:8e:21:ff:59:df:ed:
                    ce:30:7c:54:96:bb:fa:69:1c:f5:3d:1c:22:3b:9d:
                    75:44:ee:73:03:d4:6a:72:a7:5b:a7:8a:fd:ad:bc:
                    01:4f:32:2e:95:85:36:cb:fe:cd:52:8e:01:75:09:
                    78:d1:ea:fd:1c:0d:ea:4d:7d:02:f6:71:db:73:71:
                    1b:aa:20:f0:cd:74:4f:b5:c4:84:bd:65:d2:cc:54:
                    48:17:40:9d:bd:86:4b:1d:c7:7d:f4:e7:70:24:63:
                    67:af
                Exponent: 65537 (0x10001)
        X509v3 extensions:
            X509v3 Basic Constraints: critical
                CA:TRUE
            X509v3 Subject Key Identifier: 
                CF:6C:D3:AC:BC:C9:3C:DB:03:65:F9:7C:BC:03:A2:A3:9C:B8:45:E7
            X509v3 Key Usage: critical
                Certificate Sign, CRL Sign
    Signature Algorithm: sha1WithRSAEncryption
         2c:86:9e:a4:fc:bc:71:8b:b2:95:41:0b:f9:db:58:fc:b0:69:
         05:8b:0a:77:86:62:f3:6c:fd:91:f2:e6:b6:ce:c8:08:c1:46:
         bb:6a:0c:01:52:6f:a9:63:da:2f:3a:2c:16:cf:ba:a2:df:cd:
         3f:22:3c:16:0c:28:a0:75:8d:33:67:b7:b4:4b:f6:a0:90:b0:
         28:f1:d5:82:1e:2d:23:5f:6b:79:f7:73:72:9b:54:08:59:66:
         f8:f9:43:98:22:8b:af:94:b1:c4:76:c1:80:7e:9c:3c:a2:75:
         c1:69:33:52:54:0c:65:ae:af:41:21:9b:ad:18:bc:c3:44:f0:
         a1:88:2f:0f:3b:33:79:51:5c:a9:e1:2c:43:b4:8c:56:b6:56:
         ab:95:a3:03:72:ed:9d:bc:4b:fc:e1:19:50:e6:09:f8:7d:50:
         12:74:d7:c0:f2:2a:b8:af:ba:13:3f:b5:ca:96:ca:4f:c2:c1:
         64:bb:f5:7f:aa:b6:8d:ed:71:c8:6d:d0:be:0f:99:d8:1d:66:
         e9:e3:ce:d0:1f:d3:09:84:d4:96:ee:a1:01:dd:35:6c:5b:83:
         55:22:38:c8:01:6e:88:3e:8e:c7:13:4b:a8:e0:c0:96:4b:3e:
         83:e9:46:44:a0:46:f6:0e:75:e7:f4:6c:9e:5b:72:f3:1b:13:
         ae:05:1f:9e
-----BEGIN CERTIFICATE-----
MIIC7TCCAdWgAwIBAgIJAPjIFKj6SbQ/MA0GCSqGSIb3DQEBBQUAMBQxEjAQBgNV
BAMMCUQgUm9vdCBDQTAeFw0xNDA4MTQwMjQ3MTFaFw0yNDA4MTEwMjQ3MTFaMBQx
EjAQBgNVBAMMCUQgUm9vdCBDQTCCASIwDQYJKoZIhvcNAQEBBQADggEPADCCAQoC
ggEBAKgo0eKP6Lzz1IguqPa0kbUgHs/lOgovF8lNQLo5Ou4NsSFKxBNjwwWLBle1
QYv1o2mB5+s60/gF6L7KprUXQQ5UR7aIOqYx2fIFNxeruBXUAIXcBO3H4N4WhoIB
FODz6dnQfoOeTvN7M/7m3TU8+6/ICDA2eP+lxKFHYpw3Jfw6IXjF7KkMzHJp5yuw
BGbKpSCSluY6kLVgE0GQPatEjiH/Wd/tzjB8VJa7+mkc9T0cIjuddUTucwPUanKn
W6eK/a28AU8yLpWFNsv+zVKOAXUJeNHq/RwN6k19AvZx23NxG6og8M10T7XEhL1l
0sxUSBdAnb2GSx3HffTncCRjZ68CAwEAAaNCMEAwDwYDVR0TAQH/BAUwAwEB/zAd
BgNVHQ4EFgQUz2zTrLzJPNsDZfl8vAOio5y4RecwDgYDVR0PAQH/BAQDAgEGMA0G
CSqGSIb3DQEBBQUAA4IBAQAshp6k/Lxxi7KVQQv521j8sGkFiwp3hmLzbP2R8ua2
zsgIwUa7agwBUm+pY9ovOiwWz7qi380/IjwWDCigdY0zZ7e0S/agkLAo8dWCHi0j
X2t593Nym1QIWWb4+UOYIouvlLHEdsGAfpw8onXBaTNSVAxlrq9BIZutGLzDRPCh
iC8POzN5UVyp4SxDtIxWtlarlaMDcu2dvEv84RlQ5gn4fVASdNfA8iq4r7oTP7XK
lspPwsFku/V/qraN7XHIbdC+D5nYHWbp487QH9MJhNSW7qEB3TVsW4NVIjjIAW6I
Po7HE0uo4MCWSz6D6UZEoEb2DnXn9GyeW3LzGxOuBR+e
-----END CERTIFICATE-----
