-----BEGIN RSA PRIVATE KEY-----
MIIEowIBAAKCAQEAs9htMWsxQD/3s1phTjWQ2u8R4idEckpFjVHN+C9K3HEKIS9K
VN51HtRwu9nj36OT970k2xC3+O5SAtqdy23/5oMPUTdoD5zKdNvGVxLSGypFOMZX
jgt39pulOan4sJJ/DtdrRjZEkjXBqgYy0xSeBoJIf1tewIJiv8YEYOjwMQKaznLM
qaVY8+k8n/NtRb49etaBR0j3531UCupBMEyiiITqMd1Z/dwQodvD5UZhxaSxY1xl
nw6/HX1f32zWq6zSZrnk9JDpLPyBuJy4d/op7mJv4Tv/jFc7qMpB0AvCflqneeeU
r4TI34CSo+zFu7IPIFVzvd8ZYUGPtIkane2JVQIDAQABAoIBAFcpIvJ6cuoille0
C8itqUCR8ObcBQ4m9MJizSHlObDQkAo5MxsinTyN1P0VwpyWWJYOcxhAaAka52A+
t47qBsWe6wN/iM1YPb6Y7O0yT+WefOHhLnnHESLRmCf0OnTI6w80U+c5Uc5Sg0N1
sZgfO98HsT8X9znxdw5eV6zn99CoFCXouF8lCci/PQ0LnIWrMYHggN1MuhLlh3pB
Vi+ozl5ZYPbsU8+BOWk7T4xhNfgCYqrKSsz9qthiCxPfA9bmGBK02qXFbx55VXJe
C5+LZV0oleDjChskH0FpfFoTh2aasGmhM3bwIp2rsz32MJe/QHTaT24eeRNgdB+H
Xb7BRIECgYEA4/Be1j2TQbvyp4Yd/cW2NUVzxo/kq5FY5yi3CGQ7fkTU/KgER3p/
DuCOk/ly9IdrILg9ojGXnPQgEbVNkmeulrFD+UBZtFqdpusX50Ehv8TLwoInLsOf
v1BN3Vhh8NfHEFiD/DuVBN1rwk9R+yIG6ZTe3kohLRXWHspCGGnrFQUCgYEAyfxc
Oc3sVJa5S9Vug3ZcmolKI/sZP7/4+q0HtfGmimQGmA1gNy/vPTe6gYnoVNgFmvGG
LQCm/qYoUtcKGoQJuAj8hurYZehWmhmXudf82r1DaN26V70DCVV/bMXQROQGWxTN
ci7h13dmOl6vJXf2jcqRAIRYnbH6bbUaGryV1BECgYBw1JaNZJOVMW0PYgNMkGb+
fa+utaHTD7K7UlswCzWr7nSj0KO1ojxs59mMBCnUQ4hS/QB9XiEXr3yEZ4PLmglB
TORB6Im/DjAF5U/CyGnlXIwkb3rn2iwkbqLsk4h/yMAgJkDHRdMhQl3KJKuHLbPQ
QkIENRuxDqMcQLBxF1Un5QKBgAXZgypBZnjErLUfh0XTZbcsBrOoEAEipClOXYzN
ZM9ZOj+pE4JFpx4UwRgDUHE0mGT2XbZr8Gorkbtkcux1qnpj+DxIDOBWrDtmRlih
grcrCAq/cSgdVzsr+LbDu9Zi7DQzFAgch3ngAVvrZhMluEQ++5gSPSbEAsaumgTw
NT6hAoGBAM2IpPgrCi60ikYxmFx9gtqAGedWPu7c1BlP2HVBuib+STodK3sVcNU3
px9zzrGTbil/r873Co4/sgFXk5r+23qTuFCpUOrW0YDsKOe85WSuOY8RiSf/SQhd
B9gqBDymZgZ/0kCIUGhigZNNcJEhdY++eggmgt0lUt2QQNa7o3JI
-----END RSA PRIVATE KEY-----
Certificate:
    Data:
        Version: 3 (0x2)
        Serial Number: 4096 (0x1000)
    Signature Algorithm: sha256WithRSAEncryption
        Issuer: CN=B CA
        Validity
            Not Before: Aug 14 02:47:12 2014 GMT
            Not After : Aug 11 02:47:12 2024 GMT
        Subject: C=US, ST=California, L=Mountain View, O=Test CA, CN=127.0.0.1
        Subject Public Key Info:
            Public Key Algorithm: rsaEncryption
                Public-Key: (2048 bit)
                Modulus:
                    00:b3:d8:6d:31:6b:31:40:3f:f7:b3:5a:61:4e:35:
                    90:da:ef:11:e2:27:44:72:4a:45:8d:51:cd:f8:2f:
                    4a:dc:71:0a:21:2f:4a:54:de:75:1e:d4:70:bb:d9:
                    e3:df:a3:93:f7:bd:24:db:10:b7:f8:ee:52:02:da:
                    9d:cb:6d:ff:e6:83:0f:51:37:68:0f:9c:ca:74:db:
                    c6:57:12:d2:1b:2a:45:38:c6:57:8e:0b:77:f6:9b:
                    a5:39:a9:f8:b0:92:7f:0e:d7:6b:46:36:44:92:35:
                    c1:aa:06:32:d3:14:9e:06:82:48:7f:5b:5e:c0:82:
                    62:bf:c6:04:60:e8:f0:31:02:9a:ce:72:cc:a9:a5:
                    58:f3:e9:3c:9f:f3:6d:45:be:3d:7a:d6:81:47:48:
                    f7:e7:7d:54:0a:ea:41:30:4c:a2:88:84:ea:31:dd:
                    59:fd:dc:10:a1:db:c3:e5:46:61:c5:a4:b1:63:5c:
                    65:9f:0e:bf:1d:7d:5f:df:6c:d6:ab:ac:d2:66:b9:
                    e4:f4:90:e9:2c:fc:81:b8:9c:b8:77:fa:29:ee:62:
                    6f:e1:3b:ff:8c:57:3b:a8:ca:41:d0:0b:c2:7e:5a:
                    a7:79:e7:94:af:84:c8:df:80:92:a3:ec:c5:bb:b2:
                    0f:20:55:73:bd:df:19:61:41:8f:b4:89:1a:9d:ed:
                    89:55
                Exponent: 65537 (0x10001)
        X509v3 extensions:
            X509v3 Basic Constraints: critical
                CA:FALSE
            X509v3 Subject Key Identifier: 
                C0:E2:E7:28:2E:67:6F:8E:24:79:39:78:B6:0C:7E:B1:48:35:40:1E
            X509v3 Authority Key Identifier: 
                keyid:69:C1:9C:85:EC:20:DC:38:0C:32:B0:51:FC:CF:DB:C1:97:03:50:5D

            X509v3 Extended Key Usage: 
                TLS Web Server Authentication, TLS Web Client Authentication
    Signature Algorithm: sha256WithRSAEncryption
         da:56:18:d4:16:55:5a:e4:c4:1c:66:15:dd:f0:eb:e6:94:b6:
         d1:84:65:75:06:c8:15:fd:16:6b:e0:f0:0c:90:9f:0b:23:a2:
         7f:30:2a:59:31:b1:fe:c5:88:06:fe:ad:82:7d:e3:9d:73:82:
         cf:31:22:93:4d:36:32:49:e5:21:9c:5a:99:e0:74:d8:4d:ed:
         f8:99:83:5f:ba:50:96:34:6d:aa:cc:50:61:a2:7c:60:e8:c1:
         00:b4:68:a5:05:cf:b8:44:7e:36:9a:c7:06:c5:26:e0:f8:58:
         2e:ec:d3:45:e0:64:99:95:4f:08:f3:6d:d4:aa:e9:93:a0:b4:
         bd:5d:77:20:b9:84:61:e2:dd:04:7a:75:4f:dc:94:48:f7:b3:
         76:ef:a9:21:f5:24:42:ef:aa:e2:eb:80:c1:6f:66:91:dc:45:
         27:a6:f9:fc:d7:e7:9d:c9:3f:d3:ce:8d:e7:a6:0f:41:50:72:
         94:01:9a:72:82:d3:86:23:cc:fe:f3:2e:d8:b9:b5:16:ed:1c:
         7a:d0:39:06:e5:2b:0b:ac:d9:21:29:30:b4:06:f2:ee:a5:6b:
         b3:13:8d:23:eb:62:95:b7:43:ca:f1:cb:fa:3a:fd:ce:5a:eb:
         36:fe:47:f0:51:47:fe:b1:70:90:45:ce:4d:b2:60:80:b7:7f:
         19:4d:79:e5
-----BEGIN CERTIFICATE-----
MIIDWjCCAkKgAwIBAgICEAAwDQYJKoZIhvcNAQELBQAwDzENMAsGA1UEAwwEQiBD
QTAeFw0xNDA4MTQwMjQ3MTJaFw0yNDA4MTEwMjQ3MTJaMGAxCzAJBgNVBAYTAlVT
MRMwEQYDVQQIDApDYWxpZm9ybmlhMRYwFAYDVQQHDA1Nb3VudGFpbiBWaWV3MRAw
DgYDVQQKDAdUZXN0IENBMRIwEAYDVQQDDAkxMjcuMC4wLjEwggEiMA0GCSqGSIb3
DQEBAQUAA4IBDwAwggEKAoIBAQCz2G0xazFAP/ezWmFONZDa7xHiJ0RySkWNUc34
L0rccQohL0pU3nUe1HC72ePfo5P3vSTbELf47lIC2p3Lbf/mgw9RN2gPnMp028ZX
EtIbKkU4xleOC3f2m6U5qfiwkn8O12tGNkSSNcGqBjLTFJ4Ggkh/W17AgmK/xgRg
6PAxAprOcsyppVjz6Tyf821Fvj161oFHSPfnfVQK6kEwTKKIhOox3Vn93BCh28Pl
RmHFpLFjXGWfDr8dfV/fbNarrNJmueT0kOks/IG4nLh3+inuYm/hO/+MVzuoykHQ
C8J+Wqd555SvhMjfgJKj7MW7sg8gVXO93xlhQY+0iRqd7YlVAgMBAAGjbzBtMAwG
A1UdEwEB/wQCMAAwHQYDVR0OBBYEFMDi5yguZ2+OJHk5eLYMfrFINUAeMB8GA1Ud
IwQYMBaAFGnBnIXsINw4DDKwUfzP28GXA1BdMB0GA1UdJQQWMBQGCCsGAQUFBwMB
BggrBgEFBQcDAjANBgkqhkiG9w0BAQsFAAOCAQEA2lYY1BZVWuTEHGYV3fDr5pS2
0YRldQbIFf0Wa+DwDJCfCyOifzAqWTGx/sWIBv6tgn3jnXOCzzEik002MknlIZxa
meB02E3t+JmDX7pQljRtqsxQYaJ8YOjBALRopQXPuER+NprHBsUm4PhYLuzTReBk
mZVPCPNt1Krpk6C0vV13ILmEYeLdBHp1T9yUSPezdu+pIfUkQu+q4uuAwW9mkdxF
J6b5/Nfnnck/086N56YPQVBylAGacoLThiPM/vMu2Lm1Fu0cetA5BuUrC6zZISkw
tAby7qVrsxONI+tilbdDyvHL+jr9zlrrNv5H8FFH/rFwkEXOTbJggLd/GU155Q==
-----END CERTIFICATE-----
Certificate:
    Data:
        Version: 3 (0x2)
        Serial Number: 4097 (0x1001)
    Signature Algorithm: sha256WithRSAEncryption
        Issuer: CN=C CA
        Validity
            Not Before: Aug 14 02:47:12 2014 GMT
            Not After : Aug 11 02:47:12 2024 GMT
        Subject: CN=B CA
        Subject Public Key Info:
            Public Key Algorithm: rsaEncryption
                Public-Key: (2048 bit)
                Modulus:
                    00:ec:ac:40:57:bc:13:cd:7a:72:b9:2b:fb:46:a3:
                    ca:a0:0e:f9:74:87:0d:16:e4:d4:78:79:38:ac:f3:
                    39:61:52:2d:11:38:15:cc:7a:02:1e:b1:a8:d7:0d:
                    39:fd:d1:2e:0c:66:35:e0:47:66:96:6c:3a:aa:11:
                    3f:91:36:e4:fb:71:5e:2d:e5:4a:c1:2c:82:bc:de:
                    0e:e4:d4:fb:8d:c0:a7:0e:82:70:4e:64:aa:55:5a:
                    cb:59:de:b7:8f:e0:77:96:db:3a:4a:47:52:a8:1b:
                    ef:7a:c9:c3:d5:7e:e1:65:2f:6d:35:21:24:37:12:
                    c9:e8:c1:43:35:8d:7f:81:a5:77:fa:b6:c4:f0:74:
                    3b:ab:40:03:a7:98:32:9d:7b:67:5a:19:b1:29:0c:
                    ac:96:28:12:4c:cb:3b:e0:71:08:6a:02:86:de:b4:
                    fe:66:b4:46:ac:7b:c6:45:62:27:1b:40:7a:f6:d7:
                    38:02:52:43:21:9e:6a:80:91:83:b1:16:aa:ca:87:
                    4c:d2:db:d5:1c:e0:2c:73:07:d1:36:43:4c:b3:09:
                    5d:88:6e:5b:90:61:5a:74:c6:84:1a:da:29:1c:9c:
                    5c:b0:b7:18:f0:12:9d:9c:c9:23:96:1f:50:5f:94:
                    4f:a6:65:1a:45:cb:88:bb:a7:c7:66:fd:74:c0:75:
                    ad:c1
                Exponent: 65537 (0x10001)
        X509v3 extensions:
            X509v3 Basic Constraints: critical
                CA:TRUE
            X509v3 Subject Key Identifier: 
                69:C1:9C:85:EC:20:DC:38:0C:32:B0:51:FC:CF:DB:C1:97:03:50:5D
            X509v3 Key Usage: critical
                Certificate Sign, CRL Sign
    Signature Algorithm: sha256WithRSAEncryption
         69:cd:f5:27:4e:fd:65:b2:91:8f:37:9f:ea:3a:46:ad:b3:8e:
         d8:f4:ba:a7:e1:da:9b:22:39:44:2b:eb:37:84:ed:f4:b4:87:
         bc:db:7f:f0:db:06:78:38:30:5d:33:70:05:e3:70:20:39:fc:
         18:86:86:6a:95:0f:ce:a7:ad:8d:c6:5d:29:c8:39:0c:f1:82:
         a1:c3:4c:f6:58:e3:3f:2c:95:70:13:29:a8:b4:17:8c:94:bb:
         01:af:07:9d:a5:d3:47:28:15:45:a6:40:0a:f0:37:f3:32:e4:
         af:8c:e6:59:8a:bb:0d:a0:38:e0:6d:20:75:22:24:12:75:69:
         ac:4a:87:aa:c1:d1:8e:e5:9d:be:8f:cd:6e:c6:d8:5e:43:83:
         7f:fb:50:43:8a:6f:db:9a:fc:7e:61:70:87:10:15:c4:2c:1b:
         6b:24:ee:eb:16:08:4b:d2:9e:ba:c0:ef:59:d3:be:9f:36:4c:
         70:4d:11:ab:16:10:0a:b4:26:f4:b0:a0:60:5f:02:60:dc:0d:
         3c:82:69:5b:7e:c8:2c:3b:ec:59:7d:08:65:e5:a5:d8:c3:d0:
         e8:b7:c8:2a:27:95:6e:d1:84:54:76:dc:58:9f:9a:2d:4b:9e:
         1d:44:44:7f:ed:b7:ef:9e:52:49:1c:cf:6d:c9:ba:d5:54:d9:
         59:2d:c7:af
-----BEGIN CERTIFICATE-----
MIIC3DCCAcSgAwIBAgICEAEwDQYJKoZIhvcNAQELBQAwDzENMAsGA1UEAwwEQyBD
QTAeFw0xNDA4MTQwMjQ3MTJaFw0yNDA4MTEwMjQ3MTJaMA8xDTALBgNVBAMMBEIg
Q0EwggEiMA0GCSqGSIb3DQEBAQUAA4IBDwAwggEKAoIBAQDsrEBXvBPNenK5K/tG
o8qgDvl0hw0W5NR4eTis8zlhUi0ROBXMegIesajXDTn90S4MZjXgR2aWbDqqET+R
NuT7cV4t5UrBLIK83g7k1PuNwKcOgnBOZKpVWstZ3reP4HeW2zpKR1KoG+96ycPV
fuFlL201ISQ3EsnowUM1jX+BpXf6tsTwdDurQAOnmDKde2daGbEpDKyWKBJMyzvg
cQhqAobetP5mtEase8ZFYicbQHr21zgCUkMhnmqAkYOxFqrKh0zS29Uc4CxzB9E2
Q0yzCV2IbluQYVp0xoQa2ikcnFywtxjwEp2cySOWH1BflE+mZRpFy4i7p8dm/XTA
da3BAgMBAAGjQjBAMA8GA1UdEwEB/wQFMAMBAf8wHQYDVR0OBBYEFGnBnIXsINw4
DDKwUfzP28GXA1BdMA4GA1UdDwEB/wQEAwIBBjANBgkqhkiG9w0BAQsFAAOCAQEA
ac31J079ZbKRjzef6jpGrbOO2PS6p+HamyI5RCvrN4Tt9LSHvNt/8NsGeDgwXTNw
BeNwIDn8GIaGapUPzqetjcZdKcg5DPGCocNM9ljjPyyVcBMpqLQXjJS7Aa8HnaXT
RygVRaZACvA38zLkr4zmWYq7DaA44G0gdSIkEnVprEqHqsHRjuWdvo/NbsbYXkOD
f/tQQ4pv25r8fmFwhxAVxCwbayTu6xYIS9KeusDvWdO+nzZMcE0RqxYQCrQm9LCg
YF8CYNwNPIJpW37ILDvsWX0IZeWl2MPQ6LfIKieVbtGEVHbcWJ+aLUueHUREf+23
755SSRzPbcm61VTZWS3Hrw==
-----END CERTIFICATE-----
Certificate:
    Data:
        Version: 3 (0x2)
        Serial Number: 15821419482712091348 (0xdb90f931ad7faad4)
    Signature Algorithm: sha1WithRSAEncryption
        Issuer: CN=C CA
        Validity
            Not Before: Aug 14 02:47:11 2014 GMT
            Not After : Aug 11 02:47:11 2024 GMT
        Subject: CN=C CA
        Subject Public Key Info:
            Public Key Algorithm: rsaEncryption
                Public-Key: (2048 bit)
                Modulus:
                    00:a7:3d:f2:7d:cf:2c:cd:eb:2c:bc:03:65:da:ae:
                    96:29:80:29:8d:c5:42:e1:93:d9:3a:d7:78:9b:b5:
                    be:7b:ef:df:c9:fd:86:30:18:c6:38:92:c6:a5:63:
                    2e:ba:d0:9c:16:91:af:b3:80:38:14:5f:88:ca:b3:
                    8b:a4:c4:ba:2f:c4:d4:c0:c0:2e:43:6c:1e:af:5e:
                    9c:6a:9c:96:17:c3:89:ab:af:2a:93:7d:76:ea:34:
                    2a:56:c9:5c:e9:72:50:f7:d1:e6:a0:2c:ee:df:27:
                    a8:2f:17:c1:f6:fd:80:d6:dd:19:64:fe:7f:b7:80:
                    a6:00:94:28:0e:01:fa:9b:40:d2:ed:43:2c:b1:10:
                    2e:b0:57:5a:e4:5a:2f:86:6c:63:fa:22:d4:e2:c6:
                    81:c0:d8:76:7e:54:a6:81:b7:b0:bb:ac:66:80:ed:
                    a1:ab:25:6f:4d:7d:b6:cc:37:65:74:30:df:52:84:
                    4b:93:f7:95:76:96:fb:db:fe:b9:d3:2c:ff:65:4d:
                    89:09:15:32:3c:5d:60:68:79:57:9b:98:59:bc:d7:
                    c2:93:30:91:81:7c:fc:d5:7e:46:3c:85:ef:4d:d2:
                    9e:96:b0:86:95:78:20:6f:bd:a0:72:3f:d1:25:4c:
                    f7:2e:c5:a1:21:5a:c7:7b:5e:98:73:15:37:0a:9d:
                    80:0b
                Exponent: 65537 (0x10001)
        X509v3 extensions:
            X509v3 Basic Constraints: critical
                CA:TRUE
            X509v3 Subject Key Identifier: 
                08:C0:24:F4:0D:BB:C2:01:35:30:BA:2C:41:96:6B:16:DB:F8:22:F5
            X509v3 Key Usage: critical
                Certificate Sign, CRL Sign
    Signature Algorithm: sha1WithRSAEncryption
         5f:95:30:a9:ee:b0:b0:b4:fb:0e:3e:7a:df:57:6e:cc:e4:59:
         45:bf:93:08:62:d2:98:f6:7b:37:cf:b6:f5:8c:8d:82:dc:c8:
         f0:af:3b:0d:1e:cc:c4:b7:b1:f3:da:58:f9:29:d6:f7:ed:16:
         63:51:dc:d3:1c:37:2f:a3:f4:29:0f:91:5d:90:2e:d2:c7:ef:
         1b:55:01:c9:ad:cb:7b:45:da:2d:65:01:c7:3f:b5:a4:78:b1:
         22:81:d3:a6:6c:c6:ba:5e:23:88:1d:d5:3e:7d:c6:15:88:88:
         19:f7:c4:83:a6:27:96:9e:4b:c5:ef:7e:2c:6a:09:e1:3f:79:
         2d:91:27:ab:28:12:18:6f:b3:b8:cf:0f:06:1d:d7:75:47:9b:
         39:4d:66:3c:b4:12:58:0a:b8:b2:d7:c7:99:26:a0:9c:e4:90:
         cd:5e:1b:0a:50:d1:61:20:ff:b7:c7:da:7e:7c:e5:e7:d3:91:
         a8:82:f8:90:f4:2d:aa:6e:b7:28:59:02:42:fc:90:a2:1d:f9:
         d4:74:b0:a3:c4:9c:95:9a:33:e2:30:dd:7d:6e:58:e7:b0:41:
         de:b3:db:7f:16:da:94:e6:99:32:49:d4:69:6b:68:be:95:2e:
         2e:fa:fd:eb:ec:67:87:24:f6:74:cc:1c:3b:32:fa:45:24:a9:
         ff:f5:df:12
-----BEGIN CERTIFICATE-----
MIIC4zCCAcugAwIBAgIJANuQ+TGtf6rUMA0GCSqGSIb3DQEBBQUAMA8xDTALBgNV
BAMMBEMgQ0EwHhcNMTQwODE0MDI0NzExWhcNMjQwODExMDI0NzExWjAPMQ0wCwYD
VQQDDARDIENBMIIBIjANBgkqhkiG9w0BAQEFAAOCAQ8AMIIBCgKCAQEApz3yfc8s
zessvANl2q6WKYApjcVC4ZPZOtd4m7W+e+/fyf2GMBjGOJLGpWMuutCcFpGvs4A4
FF+IyrOLpMS6L8TUwMAuQ2wer16capyWF8OJq68qk3126jQqVslc6XJQ99HmoCzu
3yeoLxfB9v2A1t0ZZP5/t4CmAJQoDgH6m0DS7UMssRAusFda5Fovhmxj+iLU4saB
wNh2flSmgbewu6xmgO2hqyVvTX22zDdldDDfUoRLk/eVdpb72/650yz/ZU2JCRUy
PF1gaHlXm5hZvNfCkzCRgXz81X5GPIXvTdKelrCGlXggb72gcj/RJUz3LsWhIVrH
e16YcxU3Cp2ACwIDAQABo0IwQDAPBgNVHRMBAf8EBTADAQH/MB0GA1UdDgQWBBQI
wCT0DbvCATUwuixBlmsW2/gi9TAOBgNVHQ8BAf8EBAMCAQYwDQYJKoZIhvcNAQEF
BQADggEBAF+VMKnusLC0+w4+et9XbszkWUW/kwhi0pj2ezfPtvWMjYLcyPCvOw0e
zMS3sfPaWPkp1vftFmNR3NMcNy+j9CkPkV2QLtLH7xtVAcmty3tF2i1lAcc/taR4
sSKB06ZsxrpeI4gd1T59xhWIiBn3xIOmJ5aeS8XvfixqCeE/eS2RJ6soEhhvs7jP
DwYd13VHmzlNZjy0ElgKuLLXx5kmoJzkkM1eGwpQ0WEg/7fH2n585efTkaiC+JD0
LaputyhZAkL8kKId+dR0sKPEnJWaM+Iw3X1uWOewQd6z238W2pTmmTJJ1GlraL6V
Li76/evsZ4ck9nTMHDsy+kUkqf/13xI=
-----END CERTIFICATE-----
