Certificate:
    Data:
        Version: 3 (0x2)
        Serial Number: 15572396188146182397 (0xd81c43d3b819a8fd)
    Signature Algorithm: sha256WithRSAEncryption
        Issuer: CN=webmail
        Validity
            Not Before: Jun  5 17:10:47 2017 GMT
            Not After : Jun  4 17:10:47 2020 GMT
        Subject: CN=webmail
        Subject Public Key Info:
            Public Key Algorithm: rsaEncryption
                Public-Key: (2048 bit)
                Modulus:
                    00:ea:65:9e:eb:22:3a:b0:1c:eb:57:da:85:42:7e:
                    2a:3d:f7:a7:54:b5:81:19:71:c3:b5:ae:ee:7e:85:
                    1a:7a:23:61:76:3b:4e:bc:a6:a6:7f:e7:3d:b5:4b:
                    b8:d3:c9:df:d2:a2:36:11:9f:9f:bc:36:19:87:4c:
                    43:89:c1:b3:0e:2c:bd:36:d7:d3:a4:00:52:06:01:
                    fb:a8:99:49:5c:46:bc:2b:9c:52:6e:b6:d0:e8:7d:
                    4a:e6:a3:d3:e0:d9:f4:cf:e5:67:e7:37:51:fc:d5:
                    5f:03:70:9c:b0:4b:c9:f4:db:91:42:86:40:60:73:
                    d8:7d:38:f1:e4:a8:16:93:e2:83:0f:03:52:9b:9c:
                    d0:d0:6d:3d:be:04:9c:14:21:b0:e5:97:c9:02:9e:
                    92:34:2d:02:70:0a:74:21:91:1d:f7:cd:27:49:7f:
                    93:48:5d:7a:02:d9:00:bd:3f:ab:ce:0c:96:3f:a5:
                    b0:04:93:b9:14:62:5b:c4:8d:ee:3e:bc:2d:aa:a7:
                    b5:ca:54:58:98:3f:a3:41:d4:e8:87:08:02:7d:89:
                    bf:2a:83:ae:ba:92:22:8e:19:3c:55:6b:f8:f4:53:
                    c3:03:e9:14:1d:5c:80:e1:71:5f:6a:2e:51:cf:d2:
                    2d:2a:5d:50:58:03:06:70:be:1e:6e:d5:e0:2b:b2:
                    7d:9d
                Exponent: 65537 (0x10001)
        X509v3 extensions:
            X509v3 Subject Alternative Name: 
                DNS:webmail
    Signature Algorithm: sha256WithRSAEncryption
         69:b0:cd:3e:65:2f:da:f6:0f:13:e8:ba:91:0d:c6:1a:4c:71:
         5a:4f:b6:2a:4d:87:29:53:7b:9d:53:c1:fb:bc:46:be:13:34:
         68:0f:57:6d:85:85:93:5f:69:74:ea:3d:34:8c:bc:c2:64:8e:
         59:e0:53:d8:ac:35:64:c3:77:19:d6:dd:4d:cc:b9:f3:9e:fb:
         d7:d8:78:7b:5a:d2:aa:01:72:89:73:a1:a5:b2:75:01:ba:04:
         33:65:4f:eb:37:d4:41:3b:9c:3f:7a:d6:22:61:e6:fe:8d:92:
         cf:f1:e0:70:ad:58:2f:5c:37:0c:69:1c:bf:05:f7:ec:9b:cb:
         87:eb:bd:8d:13:45:bf:ac:3c:80:d7:e4:f1:bd:40:50:dc:25:
         98:4f:50:13:8c:65:bc:c9:5f:62:33:c3:b6:13:34:22:d2:18:
         c5:80:77:bb:46:44:68:33:b3:50:f2:dc:de:5a:03:b3:9c:e9:
         f5:15:65:29:55:56:10:cd:bd:c7:54:59:9e:4a:1a:3b:9c:64:
         d5:1e:fb:fa:26:d7:ba:5d:14:59:3a:3a:8e:61:98:4e:41:24:
         4c:c3:a0:25:26:f8:16:ba:d9:22:51:54:69:1e:a4:cf:d9:21:
         30:de:3a:09:31:55:d5:bd:3d:ab:2f:c0:37:c6:78:54:df:38:
         8c:02:bb:70
-----BEGIN CERTIFICATE-----
MIICvTCCAaWgAwIBAgIJANgcQ9O4Gaj9MA0GCSqGSIb3DQEBCwUAMBIxEDAOBgNV
BAMMB3dlYm1haWwwHhcNMTcwNjA1MTcxMDQ3WhcNMjAwNjA0MTcxMDQ3WjASMRAw
DgYDVQQDDAd3ZWJtYWlsMIIBIjANBgkqhkiG9w0BAQEFAAOCAQ8AMIIBCgKCAQEA
6mWe6yI6sBzrV9qFQn4qPfenVLWBGXHDta7ufoUaeiNhdjtOvKamf+c9tUu408nf
0qI2EZ+fvDYZh0xDicGzDiy9NtfTpABSBgH7qJlJXEa8K5xSbrbQ6H1K5qPT4Nn0
z+Vn5zdR/NVfA3CcsEvJ9NuRQoZAYHPYfTjx5KgWk+KDDwNSm5zQ0G09vgScFCGw
5ZfJAp6SNC0CcAp0IZEd980nSX+TSF16AtkAvT+rzgyWP6WwBJO5FGJbxI3uPrwt
qqe1ylRYmD+jQdTohwgCfYm/KoOuupIijhk8VWv49FPDA+kUHVyA4XFfai5Rz9It
Kl1QWAMGcL4ebtXgK7J9nQIDAQABoxYwFDASBgNVHREECzAJggd3ZWJtYWlsMA0G
CSqGSIb3DQEBCwUAA4IBAQBpsM0+ZS/a9g8T6LqRDcYaTHFaT7YqTYcpU3udU8H7
vEa+EzRoD1dthYWTX2l06j00jLzCZI5Z4FPYrDVkw3cZ1t1NzLnznvvX2Hh7WtKq
AXKJc6GlsnUBugQzZU/rN9RBO5w/etYiYeb+jZLP8eBwrVgvXDcMaRy/Bffsm8uH
672NE0W/rDyA1+TxvUBQ3CWYT1ATjGW8yV9iM8O2EzQi0hjFgHe7RkRoM7NQ8tze
WgOznOn1FWUpVVYQzb3HVFmeSho7nGTVHvv6Jte6XRRZOjqOYZhOQSRMw6AlJvgW
utkiUVRpHqTP2SEw3joJMVXVvT2rL8A3xnhU3ziMArtw
-----END CERTIFICATE-----
