-----BEGIN RSA PRIVATE KEY-----
MIIEpAIBAAKCAQEAxoEfknO2WIXZjay3IP3Hv0Cy6vrlC1IBj5rB63qAwfOJpD7V
G2HMtc+AsRrbuyXgGL+SaSZQzec//w08tB8UEqtnN94HA2wSdII2rMPU02Sfke1b
9ql6pJyY6GVslOHLVXOu+B1QsHjldP+xNyzLGT2kjOd2ToZcP9+z7UUjT1SbM8aJ
XhMd3X1ZpQc0KIYnH/qeU08qtkKtNxJi9XI2tgISQET+x56ViUNRXrRux2eAWEO+
zAcovVn/HEyNkEL0z/1UAE9IcivhZzyEF2iVv8oHe9+GnVbjMuNwh7f4OvfjbmUU
fLt2txfxQoxvKjRkEDUUjIX2V7/zXFWdrQMQ8wIDAQABAoIBABUQ4PPe2cwdMFBL
sweKRydxy0sKo0IHSukdiFTgJEfw+3t1u5HzWBE3WzXwXr9GrriRpA0KpuqjDvSX
SAjpf2zXydVw95eSYYcBxqGhCrYAaLrI0MilhcFwaP3IvbQzHiwMYdYs7kI8IkW/
WOQ9GbStCQh3C+QbeDDDIcodWzjw1sR5uFUu8WurGPQkQI2gwxzL9dtcU5LeP36G
wpYZMuE6pJcZ7BmNE880YtUEhGJVWaYLv5b/VqeZ7AMcHV7kb2NlN+tMgxxObFte
K/1RGemAd2U7TDRQVbsna/hAI1MX/QRXKJ8KsD3J6d6zjWO/SblFBqOPZNygLPtr
Tqlf9PkCgYEA6N0feYjh4VSfwJKawKIZoVS7IH8klTBmGK4pOkTsUPdDcqiPErQ+
gG8IIJNtO85wvmt79io/MQP/K0X4he41yvqD1uv9h/gErPZNZdxah0O1s7f28GRE
AVLKPu82KSHIbjHDyO5JjSZhtM5erdN96J0Fn5crZf9bunopaTMkGY0CgYEA2joS
U9uMyuwnmJWsb1VY4G59Mc7uz2owRLTZqJpMg7WiQETpE/VL72aQXPLoVHktFjzS
xBO90krfYzQS3KQVQDgr4rljOHpkInMfgez7UBdbz+4Qp5xTQgltoHlAyOf2JMyU
c1arW/vkJfpwX9wnZFnMCqwH6gu4DG8sdazA9H8CgYEAjbxZtg3c/twVSI9zZiDE
XPBH3eXFjJEi846+RVtCQ53dDeMPAqF3EZGDbuCNMkPbV+vwTcs1H06BeANk25A8
acnFiYGmlaYeonBgd8mByKcr57HnujYtNmj/9QKBAtQvPPNJafmwBxv/iJ+7/S2n
i3hXveWzYqflW0GUBxY7uNkCgYEAqjiB80deGyr599tIFc/M88M7hI6VWNTLscwf
u5Qf+tzDIr6d0COWh7bJBLe04a9jq+TlwmxjtJUSip8j11dl/CHUmZVh/7v4P6bs
/LuNjHur8hUQiK03hFs2V+Y80nmdVjb91LnWEHn7DGS9Iwjm8S/aKLjns3hQp+JQ
G7oVCKECgYAB2xZOrm4FE6/lwDKlMiZMMq+3YWfoKWTg0BscfCgcOJMunhEX9w3p
W1Tpq6I4N+l81NVKbnwoUNImfI+JN7VXxmR+w1feierpWSFXrwsDIdpx54KVchuo
N7/caM0W1tEFrcMKD7ECvJO6IK/vvB+MOe63WAqvaLCrcUd12qk4DA==
-----END RSA PRIVATE KEY-----
Certificate:
    Data:
        Version: 3 (0x2)
        Serial Number: 10687961985666567129 (0x945344cc7888cbd9)
    Signature Algorithm: sha256WithRSAEncryption
        Issuer: C=US, ST=California, L=Mountain View, O=Test CA, CN=Test Root CA
        Validity
            Not Before: Jun  5 17:10:44 2017 GMT
            Not After : Jun  3 17:10:44 2027 GMT
        Subject: C=US, ST=California, L=Mountain View, O=Test CA, CN=Test Root CA
        Subject Public Key Info:
            Public Key Algorithm: rsaEncryption
                Public-Key: (2048 bit)
                Modulus:
                    00:c6:81:1f:92:73:b6:58:85:d9:8d:ac:b7:20:fd:
                    c7:bf:40:b2:ea:fa:e5:0b:52:01:8f:9a:c1:eb:7a:
                    80:c1:f3:89:a4:3e:d5:1b:61:cc:b5:cf:80:b1:1a:
                    db:bb:25:e0:18:bf:92:69:26:50:cd:e7:3f:ff:0d:
                    3c:b4:1f:14:12:ab:67:37:de:07:03:6c:12:74:82:
                    36:ac:c3:d4:d3:64:9f:91:ed:5b:f6:a9:7a:a4:9c:
                    98:e8:65:6c:94:e1:cb:55:73:ae:f8:1d:50:b0:78:
                    e5:74:ff:b1:37:2c:cb:19:3d:a4:8c:e7:76:4e:86:
                    5c:3f:df:b3:ed:45:23:4f:54:9b:33:c6:89:5e:13:
                    1d:dd:7d:59:a5:07:34:28:86:27:1f:fa:9e:53:4f:
                    2a:b6:42:ad:37:12:62:f5:72:36:b6:02:12:40:44:
                    fe:c7:9e:95:89:43:51:5e:b4:6e:c7:67:80:58:43:
                    be:cc:07:28:bd:59:ff:1c:4c:8d:90:42:f4:cf:fd:
                    54:00:4f:48:72:2b:e1:67:3c:84:17:68:95:bf:ca:
                    07:7b:df:86:9d:56:e3:32:e3:70:87:b7:f8:3a:f7:
                    e3:6e:65:14:7c:bb:76:b7:17:f1:42:8c:6f:2a:34:
                    64:10:35:14:8c:85:f6:57:bf:f3:5c:55:9d:ad:03:
                    10:f3
                Exponent: 65537 (0x10001)
        X509v3 extensions:
            X509v3 Basic Constraints: critical
                CA:TRUE
            X509v3 Subject Key Identifier: 
                9B:26:0B:8A:98:A9:BB:1D:B9:1F:1C:E3:1A:40:33:ED:8E:17:88:AB
            X509v3 Key Usage: critical
                Certificate Sign, CRL Sign
    Signature Algorithm: sha256WithRSAEncryption
         5b:53:ff:6d:d5:0a:43:a5:0f:d4:7d:c6:5d:88:e3:98:9d:67:
         eb:32:82:b3:0f:f5:c1:78:f8:05:4a:bf:bc:21:05:ee:21:08:
         2c:b2:15:a1:b8:b2:f6:a3:15:61:e4:c1:ad:84:a4:a7:40:0c:
         87:09:5f:2b:1b:f9:4d:6c:92:7d:cb:7e:2b:b0:01:0a:ed:40:
         e5:4e:af:1a:f1:0d:ec:1d:9e:96:c7:d4:61:64:39:23:fa:5f:
         29:c4:2a:3a:b8:ed:8a:72:50:6a:ac:45:04:76:09:a8:3d:57:
         d7:f0:4b:ae:46:b4:83:c1:14:50:2a:19:59:53:b2:4d:ae:fc:
         2f:40:49:c8:ad:4d:9d:c8:22:8d:8c:01:db:31:33:5a:f4:bc:
         4c:9b:ed:d7:e3:43:d9:e8:1d:53:8b:30:d8:81:9e:72:ab:9e:
         ce:b8:f5:83:93:f2:72:db:de:cd:b0:52:9a:45:4d:cf:e7:21:
         d8:ce:16:64:8f:42:af:c1:87:a8:f9:d5:e2:03:dd:ba:6b:1b:
         7c:7d:a0:38:33:61:39:b4:dd:5c:69:17:79:02:3a:ec:1d:6f:
         5e:bb:13:fb:a6:82:5d:07:20:fc:86:fe:6e:8b:ac:e1:c2:18:
         a2:fe:3f:95:66:d3:69:8a:00:06:2c:56:37:34:b9:b6:31:de:
         0f:f6:44:39
-----BEGIN CERTIFICATE-----
MIIDizCCAnOgAwIBAgIJAJRTRMx4iMvZMA0GCSqGSIb3DQEBCwUAMGMxCzAJBgNV
BAYTAlVTMRMwEQYDVQQIDApDYWxpZm9ybmlhMRYwFAYDVQQHDA1Nb3VudGFpbiBW
aWV3MRAwDgYDVQQKDAdUZXN0IENBMRUwEwYDVQQDDAxUZXN0IFJvb3QgQ0EwHhcN
MTcwNjA1MTcxMDQ0WhcNMjcwNjAzMTcxMDQ0WjBjMQswCQYDVQQGEwJVUzETMBEG
A1UECAwKQ2FsaWZvcm5pYTEWMBQGA1UEBwwNTW91bnRhaW4gVmlldzEQMA4GA1UE
CgwHVGVzdCBDQTEVMBMGA1UEAwwMVGVzdCBSb290IENBMIIBIjANBgkqhkiG9w0B
AQEFAAOCAQ8AMIIBCgKCAQEAxoEfknO2WIXZjay3IP3Hv0Cy6vrlC1IBj5rB63qA
wfOJpD7VG2HMtc+AsRrbuyXgGL+SaSZQzec//w08tB8UEqtnN94HA2wSdII2rMPU
02Sfke1b9ql6pJyY6GVslOHLVXOu+B1QsHjldP+xNyzLGT2kjOd2ToZcP9+z7UUj
T1SbM8aJXhMd3X1ZpQc0KIYnH/qeU08qtkKtNxJi9XI2tgISQET+x56ViUNRXrRu
x2eAWEO+zAcovVn/HEyNkEL0z/1UAE9IcivhZzyEF2iVv8oHe9+GnVbjMuNwh7f4
OvfjbmUUfLt2txfxQoxvKjRkEDUUjIX2V7/zXFWdrQMQ8wIDAQABo0IwQDAPBgNV
HRMBAf8EBTADAQH/MB0GA1UdDgQWBBSbJguKmKm7HbkfHOMaQDPtjheIqzAOBgNV
HQ8BAf8EBAMCAQYwDQYJKoZIhvcNAQELBQADggEBAFtT/23VCkOlD9R9xl2I45id
Z+sygrMP9cF4+AVKv7whBe4hCCyyFaG4svajFWHkwa2EpKdADIcJXysb+U1skn3L
fiuwAQrtQOVOrxrxDewdnpbH1GFkOSP6XynEKjq47YpyUGqsRQR2Cag9V9fwS65G
tIPBFFAqGVlTsk2u/C9AScitTZ3IIo2MAdsxM1r0vEyb7dfjQ9noHVOLMNiBnnKr
ns649YOT8nLb3s2wUppFTc/nIdjOFmSPQq/Bh6j51eID3bprG3x9oDgzYTm03Vxp
F3kCOuwdb167E/umgl0HIPyG/m6LrOHCGKL+P5Vm02mKAAYsVjc0ubYx3g/2RDk=
-----END CERTIFICATE-----
