-----BEGIN PRIVATE KEY-----
MIIEvQIBADANBgkqhkiG9w0BAQEFAASCBKcwggSjAgEAAoIBAQCt5Mpt4Jw+UG9v
qfdbenxHoJJ8YcG9PZssBRhmA4GIwNGoYqG5D50gMxppUybpdZtQus+FF/lS8v2R
0+my4D3cgLo+eIebg2oqhz/x5QLQlWsGvcjcn6bTg0INuK9vn9HNqeMQkDotxK9X
zvcbKazzxzV1K81PGgocpjhj10qdOZoboDu+eTN8bFe13uRNFG13l1nQmU0B6R6n
BreDtxggA/C9H0x9YjRVyDamxwXe5c1yrye2HZXdxJneEEm+CMUSjKXlpK1it/+U
1mafGMtrSdl++aspmO3lZ61TUNdSqdSUBGL8azw7AzewvRj48KN8V4EPG7WUvu4a
CrZpy3O1AgMBAAECggEAcz5ibcliouWZxK4m0YhuXuXqzuXWiP0QHm9OCSWfrirj
h62+MjBH2LQld9H0wtn/UdRMfY8y3CdPp1qC0dpNBRqG06n7bTP9oyu5VC2K3QN5
R6F1QcnIvPqLRx6znc2UNLG3Wx3KgNSNxCrUlzradUD7i6i4ywid1PjP/FMNDv6q
k07xSxc0VpWwkUC0j3uau0qewfnjP3+Toe7au4vHhy+Opyudsu4WETlbhkZq2mlD
bgUS8/06FOjlf/2tfnElysL2NPvj0sFpm1yUckxZVjiepJ8QfqU46zsxUTqKrtca
b6kYiJmB30wSxwnsweBhJ6w7UOOV6kmB6scc5OD2IQKBgQDgZESH7yLkqBdY1qFE
AfWvyMfIe/buB8UNLcicGuSPkjdtCzsXoDgzXxt37RSLFMsPTDBM51KPAzJkWaeM
Jksbivw/+bEFTyY/AaYreiRHrpIXvLM/mNJFZ514ImZ+mY8YU7nuTZRMn7Ysfs9c
kHc7r3ET65KOcnXtPVGk6h2rHQKBgQDGY4dc0vWHktGLLqmgIJZHVcojj4NLuX67
KCj1/DhNFpJhq24MKucxmaOlXXXPgEGTA/JwWnolo1fcT2Vv4LrlgL75SYVHOF71
2PTIrlM3w6lOJNyzyD3Sjh2wZ87u993P2z6Z/qDWOMTdfD/jvyoU/k1uq6rTxJzy
SktzfqRveQKBgBwI6vcAzZ870Q7sYeGZTRTVRQCrXEKI/fmTisjWI1A8uGgLSyq8
fckNTOVC3Zoy0tvqbO5uyEXN5HHdMa206xVZ3AIyNAexx9l/Xz93VykNinskvFBp
y3uYYngr9BpFHTew3j4Du0+HdL9CaK3r7rmqRbpzaDAb5NfrHVQ5W9ORAoGASfSq
bnkaHKsnwFnp1A6x1u/tRepnCKCi1MQ42NJobpxef1h30sNfokbjEW9QzsTCLTsI
csfXxxYoV7GlX9qH8axYBPhaXd1u0PlK71DFJwGiqMXnHIImQcrG2I8qPj1ai/Tw
VlnsvU82XFbIPm9yEZdnaD1Ill8yHsSBchGg3QkCgYEAxZcgtHjspR9TTzuyl8qm
gciF8YDwYIIHqOPnVKoC6+EQJf/BJnTU5naf56sa4aMg9eqqNA5eG0aohM1uZJAJ
TaxkXZ8wTCwFoIh6O05+SD4bHDWvr7Sur1z0HeasYH2OPf/H/N0Xuq10rphCr7dx
HYbEecCcSPrbEtOR7++xRvA=
-----END PRIVATE KEY-----
Certificate:
    Data:
        Version: 3 (0x2)
        Serial Number: 23 (0x17)
    Signature Algorithm: sha1WithRSAEncryption
        Issuer: C=US, ST=California, L=Mountain View, O=Test CA, CN=Test Root CA
        Validity
            Not Before: Dec 20 00:00:00 2017 GMT
            Not After : Dec 20 00:00:00 2020 GMT
        Subject: C=US, ST=California, L=Mountain View, O=Test CA, CN=127.0.0.1
        Subject Public Key Info:
            Public Key Algorithm: rsaEncryption
                Public-Key: (2048 bit)
                Modulus:
                    00:ad:e4:ca:6d:e0:9c:3e:50:6f:6f:a9:f7:5b:7a:
                    7c:47:a0:92:7c:61:c1:bd:3d:9b:2c:05:18:66:03:
                    81:88:c0:d1:a8:62:a1:b9:0f:9d:20:33:1a:69:53:
                    26:e9:75:9b:50:ba:cf:85:17:f9:52:f2:fd:91:d3:
                    e9:b2:e0:3d:dc:80:ba:3e:78:87:9b:83:6a:2a:87:
                    3f:f1:e5:02:d0:95:6b:06:bd:c8:dc:9f:a6:d3:83:
                    42:0d:b8:af:6f:9f:d1:cd:a9:e3:10:90:3a:2d:c4:
                    af:57:ce:f7:1b:29:ac:f3:c7:35:75:2b:cd:4f:1a:
                    0a:1c:a6:38:63:d7:4a:9d:39:9a:1b:a0:3b:be:79:
                    33:7c:6c:57:b5:de:e4:4d:14:6d:77:97:59:d0:99:
                    4d:01:e9:1e:a7:06:b7:83:b7:18:20:03:f0:bd:1f:
                    4c:7d:62:34:55:c8:36:a6:c7:05:de:e5:cd:72:af:
                    27:b6:1d:95:dd:c4:99:de:10:49:be:08:c5:12:8c:
                    a5:e5:a4:ad:62:b7:ff:94:d6:66:9f:18:cb:6b:49:
                    d9:7e:f9:ab:29:98:ed:e5:67:ad:53:50:d7:52:a9:
                    d4:94:04:62:fc:6b:3c:3b:03:37:b0:bd:18:f8:f0:
                    a3:7c:57:81:0f:1b:b5:94:be:ee:1a:0a:b6:69:cb:
                    73:b5
                Exponent: 65537 (0x10001)
        X509v3 extensions:
            X509v3 Basic Constraints: critical
                CA:FALSE
            X509v3 Subject Key Identifier: 
                18:9A:76:1E:86:4C:EF:67:5D:20:7F:24:4C:DC:3F:AE:B5:B5:5C:A1
            X509v3 Authority Key Identifier: 
                keyid:9B:26:0B:8A:98:A9:BB:1D:B9:1F:1C:E3:1A:40:33:ED:8E:17:88:AB

            X509v3 Extended Key Usage: 
                TLS Web Server Authentication, TLS Web Client Authentication
            X509v3 Subject Alternative Name: 
                IP Address:127.0.0.1
    Signature Algorithm: sha1WithRSAEncryption
         a0:b6:c2:65:a0:9b:25:b7:c9:81:9a:dc:63:aa:ae:6e:f3:8a:
         62:92:66:6e:ad:3d:a7:fd:26:d4:ea:7b:7c:00:80:2b:73:db:
         36:86:fe:b1:b5:8a:05:40:d3:3c:6f:1d:11:1b:b2:a0:0d:f6:
         26:aa:ac:63:62:61:c0:7e:b0:7d:da:73:2c:14:71:41:fd:93:
         f5:76:cd:21:13:42:df:e5:b0:26:e8:d0:ec:a2:e4:26:b8:ba:
         e8:bd:49:f9:38:7f:92:1c:a2:7e:8f:b3:d3:e6:0a:51:60:88:
         c4:ab:08:65:14:53:fd:c3:70:8a:6f:49:99:d7:09:38:00:20:
         b5:3d:3c:f1:7c:2c:ab:67:4d:df:1d:c2:1e:24:d3:31:60:71:
         be:b3:85:7e:a7:1e:ce:41:1f:21:58:63:83:3c:e5:91:4a:18:
         4d:6c:97:13:d5:df:34:c7:22:0a:92:3a:fb:03:3a:b8:62:2b:
         7e:be:03:fb:39:74:03:1d:f3:c7:55:28:e7:ed:cd:28:75:2b:
         75:c5:38:b7:fd:da:98:60:61:0a:aa:eb:17:1a:26:e1:74:7e:
         84:e8:76:bf:15:18:e3:b2:4e:25:41:cb:2b:19:c9:63:6f:aa:
         8a:58:c7:01:2a:cd:fc:04:ea:63:7f:b3:ed:5d:96:a2:b0:26:
         63:8d:0d:3f
-----BEGIN CERTIFICATE-----
MIIDvzCCAqegAwIBAgIBFzANBgkqhkiG9w0BAQUFADBjMQswCQYDVQQGEwJVUzET
MBEGA1UECAwKQ2FsaWZvcm5pYTEWMBQGA1UEBwwNTW91bnRhaW4gVmlldzEQMA4G
A1UECgwHVGVzdCBDQTEVMBMGA1UEAwwMVGVzdCBSb290IENBMB4XDTE3MTIyMDAw
MDAwMFoXDTIwMTIyMDAwMDAwMFowYDELMAkGA1UEBhMCVVMxEzARBgNVBAgMCkNh
bGlmb3JuaWExFjAUBgNVBAcMDU1vdW50YWluIFZpZXcxEDAOBgNVBAoMB1Rlc3Qg
Q0ExEjAQBgNVBAMMCTEyNy4wLjAuMTCCASIwDQYJKoZIhvcNAQEBBQADggEPADCC
AQoCggEBAK3kym3gnD5Qb2+p91t6fEegknxhwb09mywFGGYDgYjA0ahiobkPnSAz
GmlTJul1m1C6z4UX+VLy/ZHT6bLgPdyAuj54h5uDaiqHP/HlAtCVawa9yNyfptOD
Qg24r2+f0c2p4xCQOi3Er1fO9xsprPPHNXUrzU8aChymOGPXSp05mhugO755M3xs
V7Xe5E0UbXeXWdCZTQHpHqcGt4O3GCAD8L0fTH1iNFXINqbHBd7lzXKvJ7Ydld3E
md4QSb4IxRKMpeWkrWK3/5TWZp8Yy2tJ2X75qymY7eVnrVNQ11Kp1JQEYvxrPDsD
N7C9GPjwo3xXgQ8btZS+7hoKtmnLc7UCAwEAAaOBgDB+MAwGA1UdEwEB/wQCMAAw
HQYDVR0OBBYEFBiadh6GTO9nXSB/JEzcP661tVyhMB8GA1UdIwQYMBaAFJsmC4qY
qbsduR8c4xpAM+2OF4irMB0GA1UdJQQWMBQGCCsGAQUFBwMBBggrBgEFBQcDAjAP
BgNVHREECDAGhwR/AAABMA0GCSqGSIb3DQEBBQUAA4IBAQCgtsJloJslt8mBmtxj
qq5u84pikmZurT2n/SbU6nt8AIArc9s2hv6xtYoFQNM8bx0RG7KgDfYmqqxjYmHA
frB92nMsFHFB/ZP1ds0hE0Lf5bAm6NDsouQmuLrovUn5OH+SHKJ+j7PT5gpRYIjE
qwhlFFP9w3CKb0mZ1wk4ACC1PTzxfCyrZ03fHcIeJNMxYHG+s4V+px7OQR8hWGOD
POWRShhNbJcT1d80xyIKkjr7Azq4Yit+vgP7OXQDHfPHVSjn7c0odSt1xTi3/dqY
YGEKqusXGibhdH6E6Ha/FRjjsk4lQcsrGcljb6qKWMcBKs38BOpjf7PtXZaisCZj
jQ0/
-----END CERTIFICATE-----
