Certificate:
    Data:
        Version: 3 (0x2)
        Serial Number: 9 (0x9)
    Signature Algorithm: sha1WithRSAEncryption
        Issuer: C=US, ST=California, L=Mountain View, O=Test CA, CN=Test Root CA
        Validity
            Not Before: Oct 30 00:00:00 2008 GMT
            Not After : Dec 30 00:00:00 2016 GMT
        Subject: C=US, ST=California, L=Mountain View, O=Test CA, CN=127.0.0.1
        Subject Public Key Info:
            Public Key Algorithm: rsaEncryption
                Public-Key: (2048 bit)
                Modulus:
                    00:b6:97:a0:79:d1:5c:5f:c1:13:33:6e:21:f8:2b:
                    e2:55:d6:bd:bb:2e:4e:78:cf:3d:fc:32:02:69:f7:
                    1e:57:26:5d:38:18:bd:60:4e:c9:9b:7d:48:47:8e:
                    e0:b8:7f:de:9e:48:6a:e2:b7:fc:58:aa:38:a5:4d:
                    ab:b1:6d:ab:ed:f8:ae:7d:9b:2c:e0:cb:af:7b:2d:
                    10:f8:97:8d:d7:8d:9f:8c:48:32:df:30:69:2a:de:
                    cc:1f:81:f1:6d:14:2f:56:ac:64:20:9e:90:6b:5a:
                    63:da:0a:08:f2:c6:89:01:44:15:c7:bb:02:fe:4b:
                    c5:68:18:7f:47:4c:91:c0:59:bd:72:47:69:28:47:
                    b8:6d:2a:3b:57:74:59:68:9e:e7:35:1d:a4:a9:3b:
                    51:9a:74:82:3b:9e:7c:49:d5:f8:d9:72:9b:20:b1:
                    53:1f:30:9d:20:a0:26:b9:2f:57:18:a4:63:be:8b:
                    3b:03:31:fd:11:8a:d5:2d:13:67:51:88:c1:9f:2b:
                    65:da:ea:d3:29:25:3a:60:0f:7f:fc:a0:61:8d:dd:
                    8e:4f:45:b3:0f:da:ba:a4:1a:13:87:0d:1f:27:31:
                    c2:37:1a:a6:fc:49:1c:02:82:ff:f8:a8:7f:4d:66:
                    6e:46:38:4d:37:63:fd:bc:b3:d1:29:cc:de:4c:a5:
                    c8:5b
                Exponent: 65537 (0x10001)
        X509v3 extensions:
            X509v3 Basic Constraints: critical
                CA:FALSE
            X509v3 Subject Key Identifier: 
                3C:CC:C9:4A:92:DF:8A:05:12:74:8D:AA:B3:40:EE:69:E4:52:77:62
            X509v3 Authority Key Identifier: 
                keyid:9B:26:0B:8A:98:A9:BB:1D:B9:1F:1C:E3:1A:40:33:ED:8E:17:88:AB

            X509v3 Extended Key Usage: 
                TLS Web Server Authentication, TLS Web Client Authentication
            X509v3 Subject Alternative Name: 
                IP Address:127.0.0.1
    Signature Algorithm: sha1WithRSAEncryption
         61:42:bd:ce:3e:8a:ca:a0:bc:61:5f:0a:30:cb:86:02:e3:d3:
         22:a2:c2:d7:b9:b8:79:9b:53:b5:60:14:0a:7f:98:3f:bd:a6:
         09:03:fc:05:bd:b8:24:00:aa:85:ca:ea:36:c0:58:a7:6e:25:
         8f:64:a6:9a:77:35:53:f2:c1:be:04:95:c3:2b:dc:1a:9f:42:
         31:af:5f:1d:06:4d:bb:08:bb:18:b5:48:eb:4a:03:85:be:12:
         7f:bc:62:d5:44:25:0e:75:a8:7a:63:86:0b:c9:af:0f:03:4c:
         14:ac:de:50:c1:0b:d9:cd:17:1e:56:e4:43:18:a7:0f:cc:fc:
         58:e9:d9:7a:62:f7:8b:64:ae:0d:e0:a3:78:75:87:aa:e9:d0:
         ce:f4:a2:60:46:41:48:eb:04:89:74:55:d6:f1:1f:f0:ed:32:
         df:fc:cc:86:68:c9:b0:36:4f:9f:db:f0:cf:51:a2:9a:89:43:
         65:b1:6c:a1:1a:4f:ef:35:ca:d7:c1:d6:c7:96:f5:4e:0a:f6:
         1d:d1:8f:59:4c:77:20:73:4a:fe:0f:fc:a9:c8:e4:11:d9:3e:
         71:7e:84:b8:ed:e0:fb:00:5d:1e:7b:7b:c9:5b:2d:51:44:7c:
         0b:60:f1:13:7a:ff:7b:fa:0b:74:47:bb:99:89:ef:fe:cc:9f:
         f7:a3:e3:20
-----BEGIN CERTIFICATE-----
MIIDvzCCAqegAwIBAgIBCTANBgkqhkiG9w0BAQUFADBjMQswCQYDVQQGEwJVUzET
MBEGA1UECAwKQ2FsaWZvcm5pYTEWMBQGA1UEBwwNTW91bnRhaW4gVmlldzEQMA4G
A1UECgwHVGVzdCBDQTEVMBMGA1UEAwwMVGVzdCBSb290IENBMB4XDTA4MTAzMDAw
MDAwMFoXDTE2MTIzMDAwMDAwMFowYDELMAkGA1UEBhMCVVMxEzARBgNVBAgMCkNh
bGlmb3JuaWExFjAUBgNVBAcMDU1vdW50YWluIFZpZXcxEDAOBgNVBAoMB1Rlc3Qg
Q0ExEjAQBgNVBAMMCTEyNy4wLjAuMTCCASIwDQYJKoZIhvcNAQEBBQADggEPADCC
AQoCggEBALaXoHnRXF/BEzNuIfgr4lXWvbsuTnjPPfwyAmn3HlcmXTgYvWBOyZt9
SEeO4Lh/3p5IauK3/FiqOKVNq7Ftq+34rn2bLODLr3stEPiXjdeNn4xIMt8waSre
zB+B8W0UL1asZCCekGtaY9oKCPLGiQFEFce7Av5LxWgYf0dMkcBZvXJHaShHuG0q
O1d0WWie5zUdpKk7UZp0gjuefEnV+NlymyCxUx8wnSCgJrkvVxikY76LOwMx/RGK
1S0TZ1GIwZ8rZdrq0yklOmAPf/ygYY3djk9Fsw/auqQaE4cNHycxwjcapvxJHAKC
//iof01mbkY4TTdj/byz0SnM3kylyFsCAwEAAaOBgDB+MAwGA1UdEwEB/wQCMAAw
HQYDVR0OBBYEFDzMyUqS34oFEnSNqrNA7mnkUndiMB8GA1UdIwQYMBaAFJsmC4qY
qbsduR8c4xpAM+2OF4irMB0GA1UdJQQWMBQGCCsGAQUFBwMBBggrBgEFBQcDAjAP
BgNVHREECDAGhwR/AAABMA0GCSqGSIb3DQEBBQUAA4IBAQBhQr3OPorKoLxhXwow
y4YC49MiosLXubh5m1O1YBQKf5g/vaYJA/wFvbgkAKqFyuo2wFinbiWPZKaadzVT
8sG+BJXDK9wan0Ixr18dBk27CLsYtUjrSgOFvhJ/vGLVRCUOdah6Y4YLya8PA0wU
rN5QwQvZzRceVuRDGKcPzPxY6dl6YveLZK4N4KN4dYeq6dDO9KJgRkFI6wSJdFXW
8R/w7TLf/MyGaMmwNk+f2/DPUaKaiUNlsWyhGk/vNcrXwdbHlvVOCvYd0Y9ZTHcg
c0r+D/ypyOQR2T5xfoS47eD7AF0ee3vJWy1RRHwLYPETev97+gt0R7uZie/+zJ/3
o+Mg
-----END CERTIFICATE-----
