Certificate:
    Data:
        Version: 3 (0x2)
        Serial Number: 10589705580089419423 (0x92f6311e5133a69f)
    Signature Algorithm: sha256WithRSAEncryption
        Issuer: C=US, ST=California, L=Mountain View, O=Test CA, CN=127.0.0.1
        Validity
            Not Before: Jun  5 17:10:46 2017 GMT
            Not After : Jun  3 17:10:46 2027 GMT
        Subject: C=US, ST=California, L=Mountain View, O=Test CA, CN=127.0.0.1
        Subject Public Key Info:
            Public Key Algorithm: rsaEncryption
                Public-Key: (2048 bit)
                Modulus:
                    00:9b:5b:94:c3:15:5e:59:33:46:02:5f:33:d9:e6:
                    a6:c3:c7:d4:0c:d1:3f:41:3d:1e:40:4b:6c:75:6f:
                    90:03:da:59:bb:cf:47:9c:f5:c0:2d:9b:09:7c:2f:
                    84:83:74:5d:62:40:36:b4:8f:a7:cc:1a:da:f2:0d:
                    08:0a:00:ab:9e:2d:d6:ef:09:e8:82:bd:08:f3:db:
                    b2:51:3d:17:a4:cb:4c:48:81:cc:9d:95:6c:9b:cd:
                    a3:22:ac:58:6e:94:f7:19:ae:c4:9c:c3:78:02:00:
                    02:e7:0b:f3:9c:7a:f0:64:62:e8:1e:b5:30:0d:3a:
                    79:f1:3d:b7:6f:64:0f:fa:08:bf:76:b2:49:29:54:
                    96:b6:8d:08:00:23:0b:90:cb:9d:05:e7:1b:df:2a:
                    2a:25:67:a0:21:ea:c5:a1:5a:4f:17:88:bd:d6:80:
                    db:88:75:8c:61:54:9b:dc:09:e9:38:fe:20:8a:6b:
                    ad:35:97:0e:c4:b5:63:7a:3d:16:aa:b7:4f:af:48:
                    b6:83:a3:7b:6d:bd:19:37:9c:cb:82:82:93:8c:8a:
                    10:48:30:dd:22:ac:dc:11:63:cf:43:73:bc:ce:21:
                    fc:c8:2e:17:86:32:2e:47:ef:ed:7f:39:03:ea:7c:
                    4d:b6:56:d6:75:f6:cb:cb:be:69:42:09:e7:2d:1c:
                    7f:f7
                Exponent: 65537 (0x10001)
        X509v3 extensions:
            X509v3 Subject Alternative Name: 
                DNS:www.example.org, DNS:mail.example.org, DNS:mail.example.com
    Signature Algorithm: sha256WithRSAEncryption
         50:4f:a8:9a:be:db:68:69:40:91:4d:cc:d4:e1:bd:93:12:8b:
         65:e3:9c:9e:51:9f:eb:19:16:ea:4d:84:01:dd:a0:78:0d:e8:
         af:75:8d:b9:72:c4:79:04:ac:bb:a9:f7:9d:9c:d3:e7:eb:0e:
         43:a9:64:a3:72:e0:11:ea:25:3f:e3:9c:f0:8d:b5:0b:f9:44:
         9a:85:59:2e:aa:48:f7:9a:a7:5f:be:a5:1e:86:e7:87:cb:7f:
         b7:82:81:20:2c:fa:59:5d:aa:29:12:fc:97:5f:3c:09:84:70:
         69:da:1f:b6:71:82:8f:d4:9f:fd:93:26:88:65:28:dd:6f:ef:
         0e:8a:dc:a6:c0:af:12:6d:1a:93:7a:cd:81:5c:f7:8f:d4:9b:
         67:bc:0d:b3:6d:21:b7:4a:22:34:47:7c:7a:64:6f:e3:80:1a:
         a6:96:d2:98:c6:e8:71:96:27:ec:15:94:50:96:ed:e7:ae:80:
         fe:e4:a7:69:3a:f8:ca:f7:bc:c6:b4:3f:66:ca:39:8a:75:32:
         d3:f2:f2:d7:fa:03:97:79:c2:06:e5:2b:46:58:a2:5f:2b:19:
         30:b7:2a:00:5a:31:17:74:9b:3a:e0:bf:e1:0c:c9:db:ff:5c:
         15:b8:72:2c:fa:e4:5a:fd:c5:56:32:29:dc:4e:b6:1a:ed:19:
         01:3d:e0:ce
-----BEGIN CERTIFICATE-----
MIIDhTCCAm2gAwIBAgIJAJL2MR5RM6afMA0GCSqGSIb3DQEBCwUAMGAxCzAJBgNV
BAYTAlVTMRMwEQYDVQQIDApDYWxpZm9ybmlhMRYwFAYDVQQHDA1Nb3VudGFpbiBW
aWV3MRAwDgYDVQQKDAdUZXN0IENBMRIwEAYDVQQDDAkxMjcuMC4wLjEwHhcNMTcw
NjA1MTcxMDQ2WhcNMjcwNjAzMTcxMDQ2WjBgMQswCQYDVQQGEwJVUzETMBEGA1UE
CAwKQ2FsaWZvcm5pYTEWMBQGA1UEBwwNTW91bnRhaW4gVmlldzEQMA4GA1UECgwH
VGVzdCBDQTESMBAGA1UEAwwJMTI3LjAuMC4xMIIBIjANBgkqhkiG9w0BAQEFAAOC
AQ8AMIIBCgKCAQEAm1uUwxVeWTNGAl8z2eamw8fUDNE/QT0eQEtsdW+QA9pZu89H
nPXALZsJfC+Eg3RdYkA2tI+nzBra8g0ICgCrni3W7wnogr0I89uyUT0XpMtMSIHM
nZVsm82jIqxYbpT3Ga7EnMN4AgAC5wvznHrwZGLoHrUwDTp58T23b2QP+gi/drJJ
KVSWto0IACMLkMudBecb3yoqJWegIerFoVpPF4i91oDbiHWMYVSb3AnpOP4gimut
NZcOxLVjej0WqrdPr0i2g6N7bb0ZN5zLgoKTjIoQSDDdIqzcEWPPQ3O8ziH8yC4X
hjIuR+/tfzkD6nxNtlbWdfbLy75pQgnnLRx/9wIDAQABo0IwQDA+BgNVHREENzA1
gg93d3cuZXhhbXBsZS5vcmeCEG1haWwuZXhhbXBsZS5vcmeCEG1haWwuZXhhbXBs
ZS5jb20wDQYJKoZIhvcNAQELBQADggEBAFBPqJq+22hpQJFNzNThvZMSi2XjnJ5R
n+sZFupNhAHdoHgN6K91jblyxHkErLup952c0+frDkOpZKNy4BHqJT/jnPCNtQv5
RJqFWS6qSPeap1++pR6G54fLf7eCgSAs+lldqikS/JdfPAmEcGnaH7Zxgo/Un/2T
JohlKN1v7w6K3KbArxJtGpN6zYFc94/Um2e8DbNtIbdKIjRHfHpkb+OAGqaW0pjG
6HGWJ+wVlFCW7eeugP7kp2k6+Mr3vMa0P2bKOYp1MtPy8tf6A5d5wgblK0ZYol8r
GTC3KgBaMRd0mzrgv+EMydv/XBW4ciz65Fr9xVYyKdxOthrtGQE94M4=
-----END CERTIFICATE-----
