Certificate:
    Data:
        Version: 3 (0x2)
        Serial Number: 18 (0x12)
    Signature Algorithm: sha256WithRSAEncryption
        Issuer: C=US, ST=California, L=Mountain View, O=Test CA, CN=Test Root CA
        Validity
            Not Before: Sep  1 00:00:00 2018 GMT
            Not After : Apr  2 00:00:00 2015 GMT
        Subject: C=US, ST=California, L=Mountain View, O=Test CA, CN=127.0.0.1
        Subject Public Key Info:
            Public Key Algorithm: rsaEncryption
                Public-Key: (2048 bit)
                Modulus:
                    00:9a:5a:33:cc:a1:02:df:a5:c4:bc:57:68:1b:03:
                    11:b3:58:58:8e:78:63:8a:02:0e:8a:ec:5d:96:a6:
                    3b:3f:98:db:3e:ba:d6:56:48:8b:2b:00:3c:ef:e2:
                    93:08:67:46:68:93:05:2c:63:4c:07:d2:01:6f:36:
                    72:cb:d1:40:a4:7f:a2:53:0f:ae:72:92:2f:c9:8a:
                    37:96:7b:a6:a9:a0:32:68:39:5b:03:d1:7b:be:fd:
                    7c:9d:19:87:87:83:08:f4:66:5b:d4:f5:89:f7:52:
                    93:16:6a:6c:70:41:d8:0a:4d:fd:3f:08:e1:3a:d5:
                    26:b5:12:09:d0:0d:3b:6c:34:ae:56:46:0f:12:ab:
                    39:f9:df:d9:a7:b6:95:ba:d3:96:de:64:42:44:83:
                    6a:21:9a:2d:a3:5c:eb:ea:d6:9b:63:80:77:0a:12:
                    b3:12:1e:31:f1:b3:ac:b2:69:ca:01:51:4a:92:0a:
                    e5:7f:b5:d5:3f:17:d8:b3:e0:d2:14:c7:b1:3d:0a:
                    be:e2:ef:4f:25:94:0d:d3:39:2b:1e:fd:ff:69:89:
                    a8:1e:18:38:1e:2f:6b:8b:9d:e5:2e:1c:ce:f0:9f:
                    c2:f5:d9:14:31:2a:c5:f2:5f:04:d9:dc:ec:80:48:
                    50:5f:b0:be:b7:50:57:22:40:f1:53:40:8e:97:5f:
                    66:1d
                Exponent: 65537 (0x10001)
        X509v3 extensions:
            X509v3 Basic Constraints: critical
                CA:FALSE
            X509v3 Subject Key Identifier: 
                E8:35:95:5F:B1:76:85:86:C1:35:20:30:76:70:AC:2B:AE:6E:48:DA
            X509v3 Authority Key Identifier: 
                keyid:9B:26:0B:8A:98:A9:BB:1D:B9:1F:1C:E3:1A:40:33:ED:8E:17:88:AB

            X509v3 Extended Key Usage: 
                TLS Web Server Authentication, TLS Web Client Authentication
            X509v3 Subject Alternative Name: 
                IP Address:127.0.0.1
    Signature Algorithm: sha256WithRSAEncryption
         a2:76:a0:fc:72:5c:0c:48:59:8e:fb:06:02:1d:de:e6:cd:eb:
         58:97:0c:4e:b8:f3:d2:af:f5:4c:35:36:fc:17:57:58:cc:f0:
         fe:67:57:b0:26:f1:07:8f:01:72:62:d9:a0:a4:1f:95:d7:dc:
         ea:48:0c:47:a2:57:dd:0b:0d:21:81:24:8f:15:0e:c3:7b:6c:
         3a:46:13:47:4f:fb:bf:b8:f1:74:04:ca:dd:17:40:ed:f4:a9:
         86:82:9a:b3:a5:1b:0e:2b:e2:f2:1b:c1:30:c9:aa:51:c5:f9:
         33:58:33:25:21:d1:10:34:6a:4d:89:9d:9e:ef:ef:cf:ed:3b:
         08:67:47:17:62:3b:5f:f7:81:14:57:86:c7:3c:fc:30:6b:20:
         8d:26:bc:b6:95:83:8d:84:2a:3a:12:25:02:22:c5:0c:11:cc:
         eb:61:46:d4:01:f6:65:e0:b9:8d:6c:3e:7b:66:56:d8:c4:2d:
         b5:c1:46:9f:b6:19:ae:ba:45:47:86:34:77:2d:3f:4d:66:4f:
         fc:84:83:7a:98:c1:cc:b8:79:4f:21:d6:14:45:27:f1:c9:df:
         2d:db:b1:45:28:45:c9:73:a6:e6:6c:50:a5:9a:5a:dc:4b:87:
         9f:7c:fe:29:ed:50:c3:dd:6b:ad:2f:2e:97:1a:02:33:28:6d:
         68:72:7d:31
-----BEGIN CERTIFICATE-----
MIIDvzCCAqegAwIBAgIBEjANBgkqhkiG9w0BAQsFADBjMQswCQYDVQQGEwJVUzET
MBEGA1UECAwKQ2FsaWZvcm5pYTEWMBQGA1UEBwwNTW91bnRhaW4gVmlldzEQMA4G
A1UECgwHVGVzdCBDQTEVMBMGA1UEAwwMVGVzdCBSb290IENBMB4XDTE4MDkwMTAw
MDAwMFoXDTE1MDQwMjAwMDAwMFowYDELMAkGA1UEBhMCVVMxEzARBgNVBAgMCkNh
bGlmb3JuaWExFjAUBgNVBAcMDU1vdW50YWluIFZpZXcxEDAOBgNVBAoMB1Rlc3Qg
Q0ExEjAQBgNVBAMMCTEyNy4wLjAuMTCCASIwDQYJKoZIhvcNAQEBBQADggEPADCC
AQoCggEBAJpaM8yhAt+lxLxXaBsDEbNYWI54Y4oCDorsXZamOz+Y2z661lZIiysA
PO/ikwhnRmiTBSxjTAfSAW82csvRQKR/olMPrnKSL8mKN5Z7pqmgMmg5WwPRe779
fJ0Zh4eDCPRmW9T1ifdSkxZqbHBB2ApN/T8I4TrVJrUSCdANO2w0rlZGDxKrOfnf
2ae2lbrTlt5kQkSDaiGaLaNc6+rWm2OAdwoSsxIeMfGzrLJpygFRSpIK5X+11T8X
2LPg0hTHsT0KvuLvTyWUDdM5Kx79/2mJqB4YOB4va4ud5S4czvCfwvXZFDEqxfJf
BNnc7IBIUF+wvrdQVyJA8VNAjpdfZh0CAwEAAaOBgDB+MAwGA1UdEwEB/wQCMAAw
HQYDVR0OBBYEFOg1lV+xdoWGwTUgMHZwrCuubkjaMB8GA1UdIwQYMBaAFJsmC4qY
qbsduR8c4xpAM+2OF4irMB0GA1UdJQQWMBQGCCsGAQUFBwMBBggrBgEFBQcDAjAP
BgNVHREECDAGhwR/AAABMA0GCSqGSIb3DQEBCwUAA4IBAQCidqD8clwMSFmO+wYC
Hd7mzetYlwxOuPPSr/VMNTb8F1dYzPD+Z1ewJvEHjwFyYtmgpB+V19zqSAxHolfd
Cw0hgSSPFQ7De2w6RhNHT/u/uPF0BMrdF0Dt9KmGgpqzpRsOK+LyG8EwyapRxfkz
WDMlIdEQNGpNiZ2e7+/P7TsIZ0cXYjtf94EUV4bHPPwwayCNJry2lYONhCo6EiUC
IsUMEczrYUbUAfZl4LmNbD57ZlbYxC21wUafthmuukVHhjR3LT9NZk/8hIN6mMHM
uHlPIdYURSfxyd8t27FFKEXJc6bmbFClmlrcS4effP4p7VDD3WutLy6XGgIzKG1o
cn0x
-----END CERTIFICATE-----
