Certificate:
    Data:
        Version: 3 (0x2)
        Serial Number: 16251326626457629923 (0xe1884f76aadab4e3)
    Signature Algorithm: sha256WithRSAEncryption
        Issuer: C=US, ST=California, L=Mountain View, O=Test CA, CN=127.0.0.1
        Validity
            Not Before: Jun  5 17:10:46 2017 GMT
            Not After : Jun  3 17:10:46 2027 GMT
        Subject: C=US, ST=California, L=Mountain View, O=Test CA, CN=127.0.0.1
        Subject Public Key Info:
            Public Key Algorithm: rsaEncryption
                Public-Key: (2048 bit)
                Modulus:
                    00:be:1b:08:be:be:01:88:90:32:54:37:9f:95:fc:
                    22:04:22:e1:ef:a8:28:b5:20:a8:dd:f9:ff:4e:3b:
                    ca:ca:e2:05:43:a0:6e:bb:db:0c:6c:e8:59:05:83:
                    2a:65:14:32:83:9b:af:04:61:ab:2b:35:c7:1f:3a:
                    59:6b:24:3c:91:f1:0e:18:33:23:0a:13:63:80:59:
                    1e:4d:65:e8:60:67:1e:07:8f:70:19:f5:59:5f:b6:
                    8b:54:83:c6:a4:33:e8:91:56:9d:f6:90:ab:3d:eb:
                    6f:e9:91:07:d2:60:5c:d7:4c:36:97:7e:b4:ff:ac:
                    f0:8a:41:8f:50:fb:c6:bd:ee:d9:00:ac:d9:f6:4f:
                    c8:49:fc:1c:b5:3e:f6:74:4d:8e:cc:74:cb:4f:af:
                    f9:a6:42:dc:9f:e1:4b:0e:bb:82:4f:46:06:3d:6a:
                    68:d6:45:96:3e:9c:c6:60:ac:c6:7e:ed:d7:39:16:
                    85:c6:91:97:12:6f:74:2a:60:bf:2e:d7:ff:91:d8:
                    81:46:d4:e9:33:19:5a:04:35:34:96:c2:de:9d:a8:
                    54:75:ed:91:da:94:ed:91:f5:1d:2a:5e:66:b3:4b:
                    0f:2f:1f:97:81:83:c4:5e:34:d5:e6:cf:df:e0:a2:
                    d1:93:e5:64:64:6f:50:5c:7d:bc:4d:1c:2e:93:6a:
                    ad:65
                Exponent: 65537 (0x10001)
        X509v3 extensions:
            X509v3 Basic Constraints: critical
                CA:TRUE
            X509v3 Subject Alternative Name: 
                IP Address:127.0.0.2, IP Address:FE80:0:0:0:0:0:0:1, DNS:test.example, email:test@test.example, othername:<unsupported>, DirName:/CN=127.0.0.3
    Signature Algorithm: sha256WithRSAEncryption
         27:c1:5a:11:e6:f9:3b:69:a1:61:a9:af:83:21:3c:d0:60:43:
         b2:e4:27:b7:46:67:d8:ae:dc:b7:51:85:53:25:b8:d8:48:d9:
         ce:2d:f4:17:2c:75:a1:2d:ad:fe:73:a6:1e:0b:3f:4a:1a:df:
         85:99:db:57:b0:cc:8d:3d:01:74:11:2e:51:81:c4:4b:2d:ee:
         bd:05:84:59:ce:a5:40:c5:3d:fa:19:d7:48:32:22:ca:49:d6:
         e3:74:8f:fb:02:0e:d1:73:76:7a:3d:ca:e8:96:7e:0d:2e:df:
         79:44:ce:aa:f6:ea:c2:61:d6:54:11:c9:38:85:72:4f:9f:94:
         b0:f9:d1:84:43:05:5a:8a:37:d4:ce:d7:e9:16:23:7e:10:67:
         8b:61:00:54:c6:13:da:03:e3:ed:4f:46:eb:44:af:5c:65:e7:
         93:1d:2e:ab:d3:8e:35:e5:4e:d1:56:ef:09:1b:74:b3:a4:ca:
         00:83:ea:e0:95:ed:ef:f3:cd:8a:1e:da:71:6d:40:e7:36:56:
         26:50:9f:5a:86:7f:45:4a:d4:0c:6b:40:68:78:fe:57:0a:e7:
         96:8c:ec:38:57:ac:89:58:54:e0:14:76:4c:93:40:7d:2e:d7:
         36:1d:71:5a:ac:73:f8:ad:80:d3:52:48:b4:68:f3:06:ab:b7:
         5a:b4:2c:1a
-----BEGIN CERTIFICATE-----
MIIDyDCCArCgAwIBAgIJAOGIT3aq2rTjMA0GCSqGSIb3DQEBCwUAMGAxCzAJBgNV
BAYTAlVTMRMwEQYDVQQIDApDYWxpZm9ybmlhMRYwFAYDVQQHDA1Nb3VudGFpbiBW
aWV3MRAwDgYDVQQKDAdUZXN0IENBMRIwEAYDVQQDDAkxMjcuMC4wLjEwHhcNMTcw
NjA1MTcxMDQ2WhcNMjcwNjAzMTcxMDQ2WjBgMQswCQYDVQQGEwJVUzETMBEGA1UE
CAwKQ2FsaWZvcm5pYTEWMBQGA1UEBwwNTW91bnRhaW4gVmlldzEQMA4GA1UECgwH
VGVzdCBDQTESMBAGA1UEAwwJMTI3LjAuMC4xMIIBIjANBgkqhkiG9w0BAQEFAAOC
AQ8AMIIBCgKCAQEAvhsIvr4BiJAyVDeflfwiBCLh76gotSCo3fn/TjvKyuIFQ6Bu
u9sMbOhZBYMqZRQyg5uvBGGrKzXHHzpZayQ8kfEOGDMjChNjgFkeTWXoYGceB49w
GfVZX7aLVIPGpDPokVad9pCrPetv6ZEH0mBc10w2l360/6zwikGPUPvGve7ZAKzZ
9k/ISfwctT72dE2OzHTLT6/5pkLcn+FLDruCT0YGPWpo1kWWPpzGYKzGfu3XORaF
xpGXEm90KmC/Ltf/kdiBRtTpMxlaBDU0lsLenahUde2R2pTtkfUdKl5ms0sPLx+X
gYPEXjTV5s/f4KLRk+VkZG9QXH28TRwuk2qtZQIDAQABo4GEMIGBMA8GA1UdEwEB
/wQFMAMBAf8wbgYDVR0RBGcwZYcEfwAAAocQ/oAAAAAAAAAAAAAAAAAAAYIMdGVz
dC5leGFtcGxlgRF0ZXN0QHRlc3QuZXhhbXBsZaASBgMqAwSgCwwJaWdub3JlIG1l
pBYwFDESMBAGA1UEAwwJMTI3LjAuMC4zMA0GCSqGSIb3DQEBCwUAA4IBAQAnwVoR
5vk7aaFhqa+DITzQYEOy5Ce3RmfYrty3UYVTJbjYSNnOLfQXLHWhLa3+c6YeCz9K
Gt+FmdtXsMyNPQF0ES5RgcRLLe69BYRZzqVAxT36GddIMiLKSdbjdI/7Ag7Rc3Z6
Pcroln4NLt95RM6q9urCYdZUEck4hXJPn5Sw+dGEQwVaijfUztfpFiN+EGeLYQBU
xhPaA+PtT0brRK9cZeeTHS6r04415U7RVu8JG3SzpMoAg+rgle3v882KHtpxbUDn
NlYmUJ9ahn9FStQMa0BoeP5XCueWjOw4V6yJWFTgFHZMk0B9Ltc2HXFarHP4rYDT
Uki0aPMGq7datCwa
-----END CERTIFICATE-----
