Certificate:
    Data:
        Version: 3 (0x2)
        Serial Number: 9226305053301513866 (0x800a6b901b6d9e8a)
    Signature Algorithm: sha256WithRSAEncryption
        Issuer: C=US, ST=California, L=Mountain View, O=Test CA, CN=127.0.0.1
        Validity
            Not Before: Jun  5 17:10:46 2017 GMT
            Not After : Jun  3 17:10:46 2027 GMT
        Subject: C=US, ST=California, L=Mountain View, O=Test CA, CN=127.0.0.1
        Subject Public Key Info:
            Public Key Algorithm: rsaEncryption
                Public-Key: (2048 bit)
                Modulus:
                    00:c2:db:bc:7e:99:b1:50:d8:bf:22:12:80:24:5b:
                    ab:6d:bb:75:86:e1:14:17:9b:e4:c8:f2:99:ef:aa:
                    be:8f:4a:74:29:a1:ce:24:55:aa:f1:b5:e9:9a:c7:
                    01:04:e1:87:c9:38:32:ff:fe:f1:26:e4:36:74:62:
                    84:a7:13:1b:44:b5:4c:9f:41:86:f2:28:7c:d1:24:
                    3e:c0:f4:4e:0b:81:e8:f1:f7:54:bf:b0:87:2f:19:
                    17:92:aa:f7:fd:86:b3:bf:2c:5b:23:da:9b:13:ae:
                    0d:32:4d:b4:94:72:c6:08:05:95:c4:1d:b7:e2:34:
                    35:6e:44:44:c1:5d:d5:61:78:b9:e9:70:55:e6:a0:
                    cf:08:1d:7e:85:48:3e:51:33:6b:15:c2:11:f9:37:
                    db:cf:8b:6a:f0:cc:f7:cc:41:3a:ef:e6:78:3d:03:
                    9f:ab:79:3f:aa:6f:e5:68:07:21:f0:62:5b:cd:2d:
                    d6:fb:fc:9f:71:a4:14:34:d7:3d:a3:27:ee:89:4c:
                    6c:06:62:ab:1a:6e:7b:a4:1a:57:0f:93:2d:e5:c0:
                    83:43:6d:e8:e3:72:53:58:2d:0f:57:f4:2a:37:84:
                    bf:d7:7f:f9:4f:5d:9a:96:ce:92:54:86:b4:6c:20:
                    0e:fe:9a:f1:74:e3:65:3c:03:09:61:ea:6d:00:9a:
                    70:df
                Exponent: 65537 (0x10001)
        X509v3 extensions:
            X509v3 Basic Constraints: critical
                CA:TRUE
            X509v3 Subject Alternative Name: 
                DNS:www.example.com
    Signature Algorithm: sha256WithRSAEncryption
         c1:24:33:a1:13:e3:3d:7a:aa:1c:d7:7e:02:27:b3:af:3b:f7:
         88:de:6a:97:11:28:07:ea:39:3b:11:89:9d:07:e5:7c:0e:b1:
         0e:5f:0f:6a:5a:b6:e4:35:ed:45:55:2c:b2:ed:c8:5a:af:69:
         86:87:b6:4e:11:3e:4d:82:a1:f5:11:ce:3c:fb:18:4a:1a:be:
         e0:31:4c:bb:0d:2b:90:49:58:a7:1a:33:f3:16:84:d1:f4:ec:
         c9:7a:eb:65:04:ac:03:3e:17:97:ac:fb:db:3a:52:bf:af:22:
         f7:10:00:a8:ad:d6:0f:a3:c1:f1:6a:9e:78:30:de:0d:03:ad:
         f6:8e:f6:6f:4b:af:5f:f4:76:ec:23:fa:d1:a0:1f:40:7f:e4:
         7d:84:cd:5f:42:c3:4c:7d:0e:89:3a:3e:ae:34:18:18:31:45:
         44:2f:d0:1f:e9:46:f0:ee:f2:c4:c7:a8:4d:f3:2d:c6:66:a5:
         02:01:a5:0b:7c:3f:91:d0:38:41:ad:d6:3d:0c:0c:3e:43:81:
         cb:7e:87:95:b2:ae:7e:ff:67:11:ea:98:66:b4:3e:87:95:e3:
         37:09:e8:de:22:bb:7b:02:00:40:1b:77:a6:09:65:75:45:a0:
         0a:49:23:32:4e:b1:b5:c3:fb:a2:5b:d5:88:7d:35:04:7d:5b:
         79:53:f5:a0
-----BEGIN CERTIFICATE-----
MIIDcjCCAlqgAwIBAgIJAIAKa5AbbZ6KMA0GCSqGSIb3DQEBCwUAMGAxCzAJBgNV
BAYTAlVTMRMwEQYDVQQIDApDYWxpZm9ybmlhMRYwFAYDVQQHDA1Nb3VudGFpbiBW
aWV3MRAwDgYDVQQKDAdUZXN0IENBMRIwEAYDVQQDDAkxMjcuMC4wLjEwHhcNMTcw
NjA1MTcxMDQ2WhcNMjcwNjAzMTcxMDQ2WjBgMQswCQYDVQQGEwJVUzETMBEGA1UE
CAwKQ2FsaWZvcm5pYTEWMBQGA1UEBwwNTW91bnRhaW4gVmlldzEQMA4GA1UECgwH
VGVzdCBDQTESMBAGA1UEAwwJMTI3LjAuMC4xMIIBIjANBgkqhkiG9w0BAQEFAAOC
AQ8AMIIBCgKCAQEAwtu8fpmxUNi/IhKAJFurbbt1huEUF5vkyPKZ76q+j0p0KaHO
JFWq8bXpmscBBOGHyTgy//7xJuQ2dGKEpxMbRLVMn0GG8ih80SQ+wPROC4Ho8fdU
v7CHLxkXkqr3/YazvyxbI9qbE64NMk20lHLGCAWVxB234jQ1bkREwV3VYXi56XBV
5qDPCB1+hUg+UTNrFcIR+Tfbz4tq8Mz3zEE67+Z4PQOfq3k/qm/laAch8GJbzS3W
+/yfcaQUNNc9oyfuiUxsBmKrGm57pBpXD5Mt5cCDQ23o43JTWC0PV/QqN4S/13/5
T12als6SVIa0bCAO/prxdONlPAMJYeptAJpw3wIDAQABoy8wLTAPBgNVHRMBAf8E
BTADAQH/MBoGA1UdEQQTMBGCD3d3dy5leGFtcGxlLmNvbTANBgkqhkiG9w0BAQsF
AAOCAQEAwSQzoRPjPXqqHNd+Aiezrzv3iN5qlxEoB+o5OxGJnQflfA6xDl8Palq2
5DXtRVUssu3IWq9phoe2ThE+TYKh9RHOPPsYShq+4DFMuw0rkElYpxoz8xaE0fTs
yXrrZQSsAz4Xl6z72zpSv68i9xAAqK3WD6PB8WqeeDDeDQOt9o72b0uvX/R27CP6
0aAfQH/kfYTNX0LDTH0OiTo+rjQYGDFFRC/QH+lG8O7yxMeoTfMtxmalAgGlC3w/
kdA4Qa3WPQwMPkOBy36HlbKufv9nEeqYZrQ+h5XjNwno3iK7ewIAQBt3pglldUWg
CkkjMk6xtcP7olvViH01BH1beVP1oA==
-----END CERTIFICATE-----
