-----BEGIN PRIVATE KEY-----
MIIEvAIBADANBgkqhkiG9w0BAQEFAASCBKYwggSiAgEAAoIBAQCr56DO++8VlWy3
9XXdRKtmLymKfGU8mfUnv4ByKKnZu05BCLrkskcHn0KjferLmUvsuTr88H+icNbP
px1ZvJ58G4lesVcFx+rotsVaBFKPBt+BXlUxDhReet2Vb56/1F8clTeYz+IWQYzt
OpABrO/dxQRq0xmVG0pHXUI6Dk11Vo4Zd62c526kDFCyozvdxYyi62ZuRGI8nMVD
vymk5BvR88zSaRNFeA71GGTxInxi+3/UwVR3hcdhZ1CGRx/52pF3XDrTtKYuhwJL
OZOoUDY+CR9skbEBLvrCemL5PFwl/6upBuLWWxzYqGNrMd6WgEd0XcgAvJplqmeW
wzSgm/27AgMBAAECggEAf5zMsLsvihtKAOoUHDVc89dxBCBCWxGDf4VXCegL5tl4
Ryj+7MU3m33rz0irY4ciaNI86wZyCZmwrahGTpaKJGGgwY3upxj41tbPfHqW+xxE
EVqA7ZChKF4XXlblR0yVareO9T7lfFYfEwCVZNkHm98k31Rkul7u7jlZ75UshTyL
esQcX8mlEZQXbBVEQ2ojoknWhq+jjRmZzAEZpXLJGIjLe20JT/p+QaNDclFimt6R
thxJ42bnx8G2Pxhl7wXgLmy+Pu6kDrs7gUa9iKqFoMswxifZODMD+iqUct5vgRV2
e1+1XskeJJn+AKnMymCNujHiSS4iLL/LamMXtWElEQKBgQDS+alLOCzhNSnhFre/
d4TkPWVLJcafMQ0Embmj1I8JOnpGx7KWuI+f3I8ut1G8kbNichD4yHui0fDlfqRT
pKWZE44K0GZGq5rzA/c3NfFCndHV7lkofS1I8AYVaUnl3oKVg7lhkg0pAr9cC2vE
+k9+iV2Fwq1L3qoiuJF5O1AsWQKBgQDQl2hZSnHxflk9nTtS7njnGI9Q5QSlW8eJ
BrN+6D7lVPK+U/Tqd7QHXwnRsrnOuSuiS0HiFM/7OAmjLRDxCGjUxnkVDAqm0Htj
oVp06FKofRElNb/up8wbFjhjEMrSWF0qGD3WDjmFSHp3ZznO7mw752CnzabD7tid
LF+4mrdoMwKBgDaESynjxz0exsaiXzL7yHxOHSmxBkVGoI2Kx7y9BYUl9kjp+40U
/hAaJ2mz90wZ/le3EAmpjMFDLNOwyPfQOPZ4ZiEHPxaN64lWggBjUQeczodQgvuC
dTw+weOwhGcA+491LWc4HWx2iEpZrSyGXhpdlqwk5TEQxbgZJ4ZDPHFpAoGAVHZK
eYVsd/XKWumUwPLxH9pRBdeGNxLfy/tbqTKPbTslg63pSRupWSbBihjNpghSw8en
aM02ninFtT4lUwQttqKbGsuicIOQwvnt79K2zaS+0YtfKVrmib1IncyJ4/yF1Oq1
9zwRTIfZlwnEXacrSmJZP/lE4qePLK1wIQb85wMCgYBR6l2B8Cf/MlOlsqfP24ZU
AOm63+CWFarTh0m/pi/SVByLrS8LD3l1jZjaH6Gjw8Xfm6c7iVDJYCe7QWOxvb3c
QbafGkVB+EPmqL6wtnqpxLjtuhe19/L6qlTuM9oqODqqESzhU+bworovVtV8ZH00
q+99H/JlBoMr13sYXsZYFw==
-----END PRIVATE KEY-----
Certificate:
    Data:
        Version: 3 (0x2)
        Serial Number:
            f3:16:df:45:2e:03:f3:bc:17:7c:99:0e:a4:e5:25:5a
        Signature Algorithm: sha256WithRSAEncryption
        Issuer: C=US, ST=California, L=Mountain View, O=Test CA, CN=Test Root CA
        Validity
            Not Before: Nov 27 22:36:24 2019 GMT
            Not After : Nov 24 22:36:24 2029 GMT
        Subject: C=US, ST=California, L=Mountain View, O=Test CA, CN=127.0.0.1
        Subject Public Key Info:
            Public Key Algorithm: rsaEncryption
                RSA Public-Key: (2048 bit)
                Modulus:
                    00:ab:e7:a0:ce:fb:ef:15:95:6c:b7:f5:75:dd:44:
                    ab:66:2f:29:8a:7c:65:3c:99:f5:27:bf:80:72:28:
                    a9:d9:bb:4e:41:08:ba:e4:b2:47:07:9f:42:a3:7d:
                    ea:cb:99:4b:ec:b9:3a:fc:f0:7f:a2:70:d6:cf:a7:
                    1d:59:bc:9e:7c:1b:89:5e:b1:57:05:c7:ea:e8:b6:
                    c5:5a:04:52:8f:06:df:81:5e:55:31:0e:14:5e:7a:
                    dd:95:6f:9e:bf:d4:5f:1c:95:37:98:cf:e2:16:41:
                    8c:ed:3a:90:01:ac:ef:dd:c5:04:6a:d3:19:95:1b:
                    4a:47:5d:42:3a:0e:4d:75:56:8e:19:77:ad:9c:e7:
                    6e:a4:0c:50:b2:a3:3b:dd:c5:8c:a2:eb:66:6e:44:
                    62:3c:9c:c5:43:bf:29:a4:e4:1b:d1:f3:cc:d2:69:
                    13:45:78:0e:f5:18:64:f1:22:7c:62:fb:7f:d4:c1:
                    54:77:85:c7:61:67:50:86:47:1f:f9:da:91:77:5c:
                    3a:d3:b4:a6:2e:87:02:4b:39:93:a8:50:36:3e:09:
                    1f:6c:91:b1:01:2e:fa:c2:7a:62:f9:3c:5c:25:ff:
                    ab:a9:06:e2:d6:5b:1c:d8:a8:63:6b:31:de:96:80:
                    47:74:5d:c8:00:bc:9a:65:aa:67:96:c3:34:a0:9b:
                    fd:bb
                Exponent: 65537 (0x10001)
        X509v3 extensions:
            X509v3 Basic Constraints: critical
                CA:FALSE
            X509v3 Subject Key Identifier: 
                72:93:A0:82:75:3D:83:80:E7:FA:7F:34:7B:30:F3:E8:7A:1B:D4:B1
            X509v3 Authority Key Identifier: 
                keyid:9B:26:0B:8A:98:A9:BB:1D:B9:1F:1C:E3:1A:40:33:ED:8E:17:88:AB

            X509v3 Extended Key Usage: 
                TLS Web Server Authentication, TLS Web Client Authentication
            X509v3 Subject Alternative Name: 
                DNS:a.test, DNS:*.a.test, DNS:b.test, DNS:*.b.test, DNS:c.test, DNS:*.c.test, DNS:d.test, DNS:*.d.test
    Signature Algorithm: sha256WithRSAEncryption
         9a:cf:6b:2b:2e:00:74:2e:70:a1:eb:a2:4e:b3:46:b6:03:ed:
         ea:94:51:66:a2:9b:53:f0:a3:2a:8f:62:24:b4:2b:9b:68:3c:
         f1:0f:fd:79:23:94:4d:6d:e6:06:2a:dd:88:d0:47:e8:f6:10:
         b6:15:29:32:83:73:a8:7e:65:d5:46:36:d6:50:41:dd:0a:c3:
         b5:45:92:8b:59:c8:1c:43:4d:77:78:9b:39:23:16:f4:6c:a5:
         a7:1d:82:32:38:6f:d2:8d:d2:2c:97:3b:d7:f1:ed:18:0b:6c:
         c3:e1:45:d1:39:96:ca:fb:71:7e:71:2e:0c:0e:0b:c2:18:53:
         72:c0:cf:2f:ec:b2:f1:4c:84:ea:9e:b7:18:e5:f0:ac:57:0d:
         64:3f:ff:6c:c2:18:10:5f:0a:30:d9:3a:a2:04:90:c4:96:c4:
         c5:75:d1:13:b6:e3:53:6e:38:f0:ba:a3:42:3d:8d:6c:e8:cf:
         84:79:24:60:b9:63:88:e2:f7:59:7b:5d:4a:cb:cd:aa:bd:b3:
         04:7f:1f:2d:d3:60:de:20:c2:9f:89:0d:96:4c:c6:66:08:1e:
         64:c5:0e:17:89:b7:f1:5a:a6:90:74:b0:c7:aa:5e:a7:03:15:
         d5:f8:a4:ef:9e:b3:a5:19:f8:0c:82:b6:bc:89:10:cb:5d:8b:
         3d:f8:ec:88
-----BEGIN CERTIFICATE-----
MIIEEjCCAvqgAwIBAgIRAPMW30UuA/O8F3yZDqTlJVowDQYJKoZIhvcNAQELBQAw
YzELMAkGA1UEBhMCVVMxEzARBgNVBAgMCkNhbGlmb3JuaWExFjAUBgNVBAcMDU1v
dW50YWluIFZpZXcxEDAOBgNVBAoMB1Rlc3QgQ0ExFTATBgNVBAMMDFRlc3QgUm9v
dCBDQTAeFw0xOTExMjcyMjM2MjRaFw0yOTExMjQyMjM2MjRaMGAxCzAJBgNVBAYT
AlVTMRMwEQYDVQQIDApDYWxpZm9ybmlhMRYwFAYDVQQHDA1Nb3VudGFpbiBWaWV3
MRAwDgYDVQQKDAdUZXN0IENBMRIwEAYDVQQDDAkxMjcuMC4wLjEwggEiMA0GCSqG
SIb3DQEBAQUAA4IBDwAwggEKAoIBAQCr56DO++8VlWy39XXdRKtmLymKfGU8mfUn
v4ByKKnZu05BCLrkskcHn0KjferLmUvsuTr88H+icNbPpx1ZvJ58G4lesVcFx+ro
tsVaBFKPBt+BXlUxDhReet2Vb56/1F8clTeYz+IWQYztOpABrO/dxQRq0xmVG0pH
XUI6Dk11Vo4Zd62c526kDFCyozvdxYyi62ZuRGI8nMVDvymk5BvR88zSaRNFeA71
GGTxInxi+3/UwVR3hcdhZ1CGRx/52pF3XDrTtKYuhwJLOZOoUDY+CR9skbEBLvrC
emL5PFwl/6upBuLWWxzYqGNrMd6WgEd0XcgAvJplqmeWwzSgm/27AgMBAAGjgcMw
gcAwDAYDVR0TAQH/BAIwADAdBgNVHQ4EFgQUcpOggnU9g4Dn+n80ezDz6Hob1LEw
HwYDVR0jBBgwFoAUmyYLipipux25HxzjGkAz7Y4XiKswHQYDVR0lBBYwFAYIKwYB
BQUHAwEGCCsGAQUFBwMCMFEGA1UdEQRKMEiCBmEudGVzdIIIKi5hLnRlc3SCBmIu
dGVzdIIIKi5iLnRlc3SCBmMudGVzdIIIKi5jLnRlc3SCBmQudGVzdIIIKi5kLnRl
c3QwDQYJKoZIhvcNAQELBQADggEBAJrPaysuAHQucKHrok6zRrYD7eqUUWaim1Pw
oyqPYiS0K5toPPEP/XkjlE1t5gYq3YjQR+j2ELYVKTKDc6h+ZdVGNtZQQd0Kw7VF
kotZyBxDTXd4mzkjFvRspacdgjI4b9KN0iyXO9fx7RgLbMPhRdE5lsr7cX5xLgwO
C8IYU3LAzy/ssvFMhOqetxjl8KxXDWQ//2zCGBBfCjDZOqIEkMSWxMV10RO241Nu
OPC6o0I9jWzoz4R5JGC5Y4ji91l7XUrLzaq9swR/Hy3TYN4gwp+JDZZMxmYIHmTF
DheJt/FappB0sMeqXqcDFdX4pO+es6UZ+AyCtryJEMtdiz347Ig=
-----END CERTIFICATE-----
