-----BEGIN PRIVATE KEY-----
MIIEvQIBADANBgkqhkiG9w0BAQEFAASCBKcwggSjAgEAAoIBAQDTlB8ztLsVMnd6
2FAK6t96JVwtDdQGDTNMBU41KlKxJS4l+PPuYREZBoRsAvFRuWa/9icP8LWqy4g4
4Njnz3cMjKd0uzAU4L11mffPTFB6cem9HFjNvfIjoP1XopzKYRSw3zwxxVme0Vwa
n5OjBi4SORoL6KKGMNo1Jj/npZ6IsyC/zgdPLCGK2gFa8GrKEXfsjpsr0J88N5mT
SqVo3l+zYWQoNpxvAfLu/GoMAGFVrqR5yUthsIS88tfQMVPx5miPZMsjBpkbW0Wd
K6AsjAzoBBHFlEmDUT99yi4t9bimKjkm5b85gu5AO5OcnGt1V5YKoOIJ46/bWzjM
zHKXqnmjAgMBAAECggEAT1Cfwcpmt7OLhsnAd9dEn42R2HHuobYhHMaAYv3SsgW2
HxYMm7hXqIIA8lzIClLuadflHNynvbc/AdOIfJ4RiurPe7sQc0MswwFNHLEHGl/J
t9MAl2A1fZXEYy3aiSOLliKZdi79QcRKOtDHj72pV7uAQCadhqCZrIMCQdycabHO
c30AI3cPKdC4ProHhP9bh0cGrIE31wBJx/6aiLWV94FgiIkj46ZSRvtGd13c7cIx
soyGbl4ZuLM4K6A5t8cmfyVv5rqS07rCopNFF1Sam7voBTEpDqXoe4WbY0GCMQi7
96Q6napbgjCZUCN3vYtljmtOL3DhN+P21am+qauPQQKBgQDuGtsvmDYYJo1Ss/CN
d0YrxB4gIAA1B712HTkW5tH5bpRasAwnHaUplaDl4lE6j4uoih7OyTdgekPBuVO/
bNdKEPg0oZZuUrL7630JrWh3aq31l9669zLbfjgGqb9TV/oZmuxNTazBNTO1FTjs
48jL401diqZhNz+iw4gtMmPwBQKBgQDjeuYiUUUI90PobUpS3y9TF1LotjQ8RWXf
r6qp234zSE8UM/WlHefvzmvMU1G+M8PKyZa4VbzUVI4RBDBNKcUyRJ1HxRnfcZIh
isZEBqpbjPC0YiFxijZS+lbQJUwYllkASF30Rvss/uaSab7xLb4bKTwLmIHn7tP+
Iu+IIbr7hwKBgCNdbczF6NLxdvAftcztOEjr2iWfWyiFO8i9UmtqYSmRGQvXNhbh
OlTQ2pMKaFIwW+fui+De1hDIWCP/6MZ33gosNxFqJrPAKMFuGqZDUU7bU3c01Woj
qTQcrSmgMMCqQoVnE03wCYaw5jsxKcFVm89ctXL9UvUBhbwhGqrL3zgZAoGBAMQz
5nbG/fJDwxCf4zEjSyAxx9LsBJXPjZSnYV3r8SeuQHa+ciseZkRSGGw9mQ2ifEdW
JGeNm7bPz1Eh+b80Pd+jiryyZiRxQocnuOZHkXwxThNnaE0T1tMvFN2mrcGvO8ig
oljlOBORL7Is/wHqYEPxBtdBjRpMxhA2db9GyI3VAoGAE3QAcl8LZPQJ32TwPLb5
oCOS9DYz7PgwR6CYfTNINePN0lnt7J6XQyA10nIKYiv7j1LcJjjmEHcYDYqHamuY
cQDoHD4rZwu3/cpqtldKifopP3mYE5E5wcYVklCZfXl2JohaFt9lQxmgcsRTjLxc
RaOLpZHusNcyPfIqHZQjD/Q=
-----END PRIVATE KEY-----
Certificate:
    Data:
        Version: 3 (0x2)
        Serial Number: 4 (0x4)
    Signature Algorithm: sha256WithRSAEncryption
        Issuer: C=US, ST=California, L=Mountain View, O=Test CA, CN=Test Root CA
        Validity
            Not Before: Jun  5 17:10:46 2017 GMT
            Not After : Jun  3 17:10:46 2027 GMT
        Subject: C=US, ST=California, L=Mountain View, O=Test CA, CN=127.0.0.1
        Subject Public Key Info:
            Public Key Algorithm: rsaEncryption
                Public-Key: (2048 bit)
                Modulus:
                    00:d3:94:1f:33:b4:bb:15:32:77:7a:d8:50:0a:ea:
                    df:7a:25:5c:2d:0d:d4:06:0d:33:4c:05:4e:35:2a:
                    52:b1:25:2e:25:f8:f3:ee:61:11:19:06:84:6c:02:
                    f1:51:b9:66:bf:f6:27:0f:f0:b5:aa:cb:88:38:e0:
                    d8:e7:cf:77:0c:8c:a7:74:bb:30:14:e0:bd:75:99:
                    f7:cf:4c:50:7a:71:e9:bd:1c:58:cd:bd:f2:23:a0:
                    fd:57:a2:9c:ca:61:14:b0:df:3c:31:c5:59:9e:d1:
                    5c:1a:9f:93:a3:06:2e:12:39:1a:0b:e8:a2:86:30:
                    da:35:26:3f:e7:a5:9e:88:b3:20:bf:ce:07:4f:2c:
                    21:8a:da:01:5a:f0:6a:ca:11:77:ec:8e:9b:2b:d0:
                    9f:3c:37:99:93:4a:a5:68:de:5f:b3:61:64:28:36:
                    9c:6f:01:f2:ee:fc:6a:0c:00:61:55:ae:a4:79:c9:
                    4b:61:b0:84:bc:f2:d7:d0:31:53:f1:e6:68:8f:64:
                    cb:23:06:99:1b:5b:45:9d:2b:a0:2c:8c:0c:e8:04:
                    11:c5:94:49:83:51:3f:7d:ca:2e:2d:f5:b8:a6:2a:
                    39:26:e5:bf:39:82:ee:40:3b:93:9c:9c:6b:75:57:
                    96:0a:a0:e2:09:e3:af:db:5b:38:cc:cc:72:97:aa:
                    79:a3
                Exponent: 65537 (0x10001)
        X509v3 extensions:
            X509v3 Basic Constraints: critical
                CA:FALSE
            X509v3 Subject Key Identifier: 
                18:0C:EB:51:B9:D3:36:A9:C9:04:AF:F9:2F:14:F0:99:66:D2:76:D4
            X509v3 Authority Key Identifier: 
                keyid:9B:26:0B:8A:98:A9:BB:1D:B9:1F:1C:E3:1A:40:33:ED:8E:17:88:AB

            X509v3 Extended Key Usage: 
                TLS Web Server Authentication, TLS Web Client Authentication
            X509v3 Subject Alternative Name: 
                DNS:*.example.org
    Signature Algorithm: sha256WithRSAEncryption
         bd:72:b4:50:5d:7d:8b:b2:64:49:27:68:99:0c:01:d7:c5:91:
         15:a2:86:f1:56:69:48:5b:0a:6c:41:02:3d:11:e8:c6:4b:4c:
         97:f3:dd:d3:8c:24:f9:6d:1f:64:5a:b8:df:78:f7:e0:3f:9c:
         8d:30:7a:3b:10:15:74:f2:0f:49:ec:7c:53:8d:1f:60:c9:7d:
         0b:5d:ca:d6:d7:a3:7f:8a:3f:fa:b7:0b:c4:40:dd:55:fb:fb:
         3d:49:28:82:b9:62:5f:34:84:30:26:1d:71:3c:2b:b9:5e:e1:
         8c:2d:bf:21:bd:2d:fe:47:71:6e:54:6d:e1:d0:f6:23:58:dd:
         9e:db:05:cb:f5:5f:11:3f:e6:d0:9d:aa:46:12:56:95:f6:04:
         cc:21:5e:1e:7f:07:fc:f6:48:88:8b:2c:a3:9a:66:d9:1a:1d:
         4e:a8:bd:c3:8f:fe:d6:bf:18:c9:f9:a4:f1:31:7e:12:85:83:
         62:d6:d9:f9:27:20:b4:21:f9:7e:57:52:fa:89:c8:84:78:23:
         cf:fb:67:8a:a8:db:63:43:11:16:bf:59:c6:ba:21:9a:d8:0e:
         04:eb:d1:38:42:87:d3:a7:3d:da:83:a6:8f:66:a1:c8:5a:4c:
         ff:25:3d:3c:bf:c9:bc:d9:85:49:a3:16:d5:e3:b3:8c:77:a6:
         21:62:93:33
-----BEGIN CERTIFICATE-----
MIIDyTCCArGgAwIBAgIBBDANBgkqhkiG9w0BAQsFADBjMQswCQYDVQQGEwJVUzET
MBEGA1UECAwKQ2FsaWZvcm5pYTEWMBQGA1UEBwwNTW91bnRhaW4gVmlldzEQMA4G
A1UECgwHVGVzdCBDQTEVMBMGA1UEAwwMVGVzdCBSb290IENBMB4XDTE3MDYwNTE3
MTA0NloXDTI3MDYwMzE3MTA0NlowYDELMAkGA1UEBhMCVVMxEzARBgNVBAgMCkNh
bGlmb3JuaWExFjAUBgNVBAcMDU1vdW50YWluIFZpZXcxEDAOBgNVBAoMB1Rlc3Qg
Q0ExEjAQBgNVBAMMCTEyNy4wLjAuMTCCASIwDQYJKoZIhvcNAQEBBQADggEPADCC
AQoCggEBANOUHzO0uxUyd3rYUArq33olXC0N1AYNM0wFTjUqUrElLiX48+5hERkG
hGwC8VG5Zr/2Jw/wtarLiDjg2OfPdwyMp3S7MBTgvXWZ989MUHpx6b0cWM298iOg
/VeinMphFLDfPDHFWZ7RXBqfk6MGLhI5GgvoooYw2jUmP+elnoizIL/OB08sIYra
AVrwasoRd+yOmyvQnzw3mZNKpWjeX7NhZCg2nG8B8u78agwAYVWupHnJS2GwhLzy
19AxU/HmaI9kyyMGmRtbRZ0roCyMDOgEEcWUSYNRP33KLi31uKYqOSblvzmC7kA7
k5yca3VXlgqg4gnjr9tbOMzMcpeqeaMCAwEAAaOBijCBhzAMBgNVHRMBAf8EAjAA
MB0GA1UdDgQWBBQYDOtRudM2qckEr/kvFPCZZtJ21DAfBgNVHSMEGDAWgBSbJguK
mKm7HbkfHOMaQDPtjheIqzAdBgNVHSUEFjAUBggrBgEFBQcDAQYIKwYBBQUHAwIw
GAYDVR0RBBEwD4INKi5leGFtcGxlLm9yZzANBgkqhkiG9w0BAQsFAAOCAQEAvXK0
UF19i7JkSSdomQwB18WRFaKG8VZpSFsKbEECPRHoxktMl/Pd04wk+W0fZFq433j3
4D+cjTB6OxAVdPIPSex8U40fYMl9C13K1tejf4o/+rcLxEDdVfv7PUkogrliXzSE
MCYdcTwruV7hjC2/Ib0t/kdxblRt4dD2I1jdntsFy/VfET/m0J2qRhJWlfYEzCFe
Hn8H/PZIiIsso5pm2RodTqi9w4/+1r8Yyfmk8TF+EoWDYtbZ+ScgtCH5fldS+onI
hHgjz/tniqjbY0MRFr9ZxrohmtgOBOvROEKH06c92oOmj2ahyFpM/yU9PL/JvNmF
SaMW1eOzjHemIWKTMw==
-----END CERTIFICATE-----
