Certificate:
    Data:
        Version: 3 (0x2)
        Serial Number:
            4b:55:a8:9e:db:00:a8:b5:62:d7:5c:a3:2c:b3:70:0f
    Signature Algorithm: sha256WithRSAEncryption
        Issuer: C = US, O = Symantec Corporation, OU = Symantec Trust Network, CN = Symantec Class 3 Secure Server CA - G4
        Validity
            Not Before: Oct 28 00:00:00 2014 GMT
            Not After : Oct 27 23:59:59 2019 GMT
        Subject: C = US, ST = Wisconsin, L = Waterford, O = Runzheimer International LTD, OU = IT, CN = www.ahrn.com
        Subject Public Key Info:
            Public Key Algorithm: rsaEncryption
                Public-Key: (2048 bit)
                Modulus:
                    00:d1:30:e0:95:77:78:37:76:72:63:76:d8:7d:f7:
                    e0:ca:c8:3f:3d:43:70:bb:ed:50:8f:8e:50:16:0d:
                    28:64:8f:e6:0c:5c:eb:cd:a9:24:93:1a:51:fa:9f:
                    7f:52:da:32:7a:1d:86:7c:b7:3f:be:be:76:a3:4f:
                    4e:b9:ab:38:79:69:9a:ab:1f:77:7a:94:80:77:5f:
                    6c:c8:25:2b:b0:9d:60:0a:78:88:27:33:c5:ac:1a:
                    35:2f:a9:65:f9:c0:0e:8f:8f:e5:66:06:df:bb:60:
                    bf:67:85:2f:c1:26:57:78:ac:ce:dd:39:a9:fd:04:
                    17:f3:0b:53:bb:b4:76:fc:fb:e3:2e:21:87:fd:40:
                    4f:12:9a:43:8f:b3:15:4a:6f:bc:0c:0b:4e:94:33:
                    06:a5:2c:66:50:ff:7a:2f:6f:f7:83:83:9d:a8:52:
                    9a:36:97:ea:97:88:96:96:0b:e9:d9:c6:37:7c:e1:
                    b4:63:b7:4a:a8:2c:e6:75:fe:0f:33:dd:28:7a:5a:
                    4a:7a:c8:26:b1:cb:7d:1a:f4:b1:63:5b:c7:01:3c:
                    53:86:33:4e:b6:5a:2c:81:42:41:12:85:60:a7:38:
                    a7:7b:05:ea:b0:7b:ef:ec:f4:ba:5d:8b:63:dc:ba:
                    3d:aa:78:d8:66:9c:d1:35:b3:0d:97:a3:62:95:1f:
                    64:af
                Exponent: 65537 (0x10001)
        X509v3 extensions:
            X509v3 Subject Alternative Name: 
                DNS:www.ahrn.com
            X509v3 Basic Constraints: 
                CA:FALSE
            X509v3 Key Usage: critical
                Digital Signature, Key Encipherment
            X509v3 CRL Distribution Points: 

                Full Name:
                  URI:http://ss.symcb.com/ss.crl

            X509v3 Certificate Policies: 
                Policy: 2.16.840.1.113733.1.7.54
                  CPS: https://d.symcb.com/cps
                  User Notice:
                    Explicit Text: https://d.symcb.com/rpa

            X509v3 Extended Key Usage: 
                TLS Web Server Authentication, TLS Web Client Authentication
            X509v3 Authority Key Identifier: 
                keyid:5F:60:CF:61:90:55:DF:84:43:14:8A:60:2A:B2:F5:7A:F4:43:18:EF

            Authority Information Access: 
                OCSP - URI:http://ss.symcd.com
                CA Issuers - URI:http://ss.symcb.com/ss.crt

    Signature Algorithm: sha256WithRSAEncryption
         b0:e7:ed:25:04:03:bc:86:9a:1c:4d:93:99:c1:a0:18:6d:61:
         4d:ab:e1:a8:74:c0:34:71:99:1b:90:9a:62:88:b4:92:ca:c5:
         3a:ba:b3:a6:4f:6a:00:3f:75:9b:fe:69:d7:68:8c:26:63:a8:
         22:ee:8e:ed:3e:20:2e:54:5d:c7:d3:82:ac:18:42:28:ef:7b:
         69:f3:86:f6:55:d1:67:1b:cf:28:0c:0f:82:2b:d6:f4:07:4b:
         de:57:3d:02:3e:88:01:59:3d:7c:cd:80:68:61:e3:ac:0b:7f:
         16:4e:1e:54:9b:7d:80:26:31:eb:0c:da:f4:53:5e:bc:62:2a:
         8a:ff:6a:df:f5:b4:07:89:82:b4:67:68:68:54:b9:d5:1b:a0:
         f1:35:de:e7:18:b0:64:08:4f:93:13:88:02:8a:9f:42:c5:c3:
         67:a0:d7:aa:dd:54:84:8d:c7:5a:a5:3c:5e:d1:9a:1c:3d:36:
         45:6a:66:a3:10:ad:3e:bf:95:a2:27:8d:a6:7a:7a:6b:59:d3:
         66:79:10:05:fb:3f:0c:f6:b3:b5:85:83:e1:a4:49:02:56:db:
         5b:9d:36:ea:59:e7:b5:f4:9a:aa:59:21:ab:54:a7:fc:b7:15:
         0c:41:29:39:15:ff:83:1f:5e:d3:73:85:96:6e:a4:dc:01:bd:
         7d:21:34:3f
-----BEGIN CERTIFICATE-----
MIIE8DCCA9igAwIBAgIQS1WontsAqLVi11yjLLNwDzANBgkqhkiG9w0BAQsFADB+
MQswCQYDVQQGEwJVUzEdMBsGA1UEChMUU3ltYW50ZWMgQ29ycG9yYXRpb24xHzAd
BgNVBAsTFlN5bWFudGVjIFRydXN0IE5ldHdvcmsxLzAtBgNVBAMTJlN5bWFudGVj
IENsYXNzIDMgU2VjdXJlIFNlcnZlciBDQSAtIEc0MB4XDTE0MTAyODAwMDAwMFoX
DTE5MTAyNzIzNTk1OVowgYAxCzAJBgNVBAYTAlVTMRIwEAYDVQQIDAlXaXNjb25z
aW4xEjAQBgNVBAcMCVdhdGVyZm9yZDElMCMGA1UECgwcUnVuemhlaW1lciBJbnRl
cm5hdGlvbmFsIExURDELMAkGA1UECwwCSVQxFTATBgNVBAMMDHd3dy5haHJuLmNv
bTCCASIwDQYJKoZIhvcNAQEBBQADggEPADCCAQoCggEBANEw4JV3eDd2cmN22H33
4MrIPz1DcLvtUI+OUBYNKGSP5gxc682pJJMaUfqff1LaMnodhny3P76+dqNPTrmr
OHlpmqsfd3qUgHdfbMglK7CdYAp4iCczxawaNS+pZfnADo+P5WYG37tgv2eFL8Em
V3iszt05qf0EF/MLU7u0dvz74y4hh/1ATxKaQ4+zFUpvvAwLTpQzBqUsZlD/ei9v
94ODnahSmjaX6peIlpYL6dnGN3zhtGO3Sqgs5nX+DzPdKHpaSnrIJrHLfRr0sWNb
xwE8U4YzTrZaLIFCQRKFYKc4p3sF6rB77+z0ul2LY9y6Pap42Gac0TWzDZejYpUf
ZK8CAwEAAaOCAWUwggFhMBcGA1UdEQQQMA6CDHd3dy5haHJuLmNvbTAJBgNVHRME
AjAAMA4GA1UdDwEB/wQEAwIFoDArBgNVHR8EJDAiMCCgHqAchhpodHRwOi8vc3Mu
c3ltY2IuY29tL3NzLmNybDBlBgNVHSAEXjBcMFoGCmCGSAGG+EUBBzYwTDAjBggr
BgEFBQcCARYXaHR0cHM6Ly9kLnN5bWNiLmNvbS9jcHMwJQYIKwYBBQUHAgIwGQwX
aHR0cHM6Ly9kLnN5bWNiLmNvbS9ycGEwHQYDVR0lBBYwFAYIKwYBBQUHAwEGCCsG
AQUFBwMCMB8GA1UdIwQYMBaAFF9gz2GQVd+EQxSKYCqy9Xr0QxjvMFcGCCsGAQUF
BwEBBEswSTAfBggrBgEFBQcwAYYTaHR0cDovL3NzLnN5bWNkLmNvbTAmBggrBgEF
BQcwAoYaaHR0cDovL3NzLnN5bWNiLmNvbS9zcy5jcnQwDQYJKoZIhvcNAQELBQAD
ggEBALDn7SUEA7yGmhxNk5nBoBhtYU2r4ah0wDRxmRuQmmKItJLKxTq6s6ZPagA/
dZv+addojCZjqCLuju0+IC5UXcfTgqwYQijve2nzhvZV0WcbzygMD4Ir1vQHS95X
PQI+iAFZPXzNgGhh46wLfxZOHlSbfYAmMesM2vRTXrxiKor/at/1tAeJgrRnaGhU
udUboPE13ucYsGQIT5MTiAKKn0LFw2eg16rdVISNx1qlPF7Rmhw9NkVqZqMQrT6/
laInjaZ6emtZ02Z5EAX7Pwz2s7WFg+GkSQJW21udNupZ57X0mqpZIatUp/y3FQxB
KTkV/4MfXtNzhZZupNwBvX0hND8=
-----END CERTIFICATE-----
Certificate:
    Data:
        Version: 3 (0x2)
        Serial Number:
            13:b3:e3:02:18:03:97:66:8d:50:34:e0:e6:74:e2:8d
    Signature Algorithm: sha256WithRSAEncryption
        Issuer: C = US, O = "VeriSign, Inc.", OU = VeriSign Trust Network, OU = "(c) 2006 VeriSign, Inc. - For authorized use only", CN = VeriSign Class 3 Public Primary Certification Authority - G5
        Validity
            Not Before: Oct 31 00:00:00 2013 GMT
            Not After : Oct 30 23:59:59 2023 GMT
        Subject: C = US, O = Symantec Corporation, OU = Symantec Trust Network, CN = Symantec Class 3 Secure Server CA - G4
        Subject Public Key Info:
            Public Key Algorithm: rsaEncryption
                Public-Key: (2048 bit)
                Modulus:
                    00:b2:d8:05:ca:1c:74:2d:b5:17:56:39:c5:4a:52:
                    09:96:e8:4b:d8:0c:f1:68:9f:9a:42:28:62:c3:a5:
                    30:53:7e:55:11:82:5b:03:7a:0d:2f:e1:79:04:c9:
                    b4:96:77:19:81:01:94:59:f9:bc:f7:7a:99:27:82:
                    2d:b7:83:dd:5a:27:7f:b2:03:7a:9c:53:25:e9:48:
                    1f:46:4f:c8:9d:29:f8:be:79:56:f6:f7:fd:d9:3a:
                    68:da:8b:4b:82:33:41:12:c3:c8:3c:cc:d6:96:7a:
                    84:21:1a:22:04:03:27:17:8b:1c:68:61:93:0f:0e:
                    51:80:33:1d:b4:b5:ce:eb:7e:d0:62:ac:ee:b3:7b:
                    01:74:ef:69:35:eb:ca:d5:3d:a9:ee:97:98:ca:8d:
                    aa:44:0e:25:99:4a:15:96:a4:ce:6d:02:54:1f:2a:
                    6a:26:e2:06:3a:63:48:ac:b4:4c:d1:75:93:50:ff:
                    13:2f:d6:da:e1:c6:18:f5:9f:c9:25:5d:f3:00:3a:
                    de:26:4d:b4:29:09:cd:0f:3d:23:6f:16:4a:81:16:
                    fb:f2:83:10:c3:b8:d6:d8:55:32:3d:f1:bd:0f:bd:
                    8c:52:95:4a:16:97:7a:52:21:63:75:2f:16:f9:c4:
                    66:be:f5:b5:09:d8:ff:27:00:cd:44:7c:6f:4b:3f:
                    b0:f7
                Exponent: 65537 (0x10001)
        X509v3 extensions:
            X509v3 Basic Constraints: critical
                CA:TRUE, pathlen:0
            X509v3 CRL Distribution Points: 

                Full Name:
                  URI:http://s1.symcb.com/pca3-g5.crl

            X509v3 Key Usage: critical
                Certificate Sign, CRL Sign
            X509v3 Subject Alternative Name: 
                DirName:/CN=SymantecPKI-1-534
            X509v3 Subject Key Identifier: 
                5F:60:CF:61:90:55:DF:84:43:14:8A:60:2A:B2:F5:7A:F4:43:18:EF
            X509v3 Certificate Policies: 
                Policy: 2.23.140.1.2.2
                  CPS: http://www.symauth.com/cps
                  User Notice:
                    Explicit Text: http://www.symauth.com/rpa

            Authority Information Access: 
                OCSP - URI:http://s2.symcb.com

            X509v3 Authority Key Identifier: 
                keyid:7F:D3:65:A7:C2:DD:EC:BB:F0:30:09:F3:43:39:FA:02:AF:33:31:33

    Signature Algorithm: sha256WithRSAEncryption
         16:19:9a:85:c5:85:ea:47:56:4f:40:37:ad:34:e5:a3:2d:74:
         82:be:3a:cd:25:fe:62:70:25:bb:98:09:35:be:77:80:5b:ae:
         28:66:e7:37:34:c0:da:0f:b5:b4:2e:97:78:3e:c8:53:3f:a6:
         b1:ae:d5:a4:fd:bc:43:af:7a:20:7b:c8:15:a6:ed:5a:e5:1c:
         8c:a6:81:ef:61:a4:a8:50:76:bd:d0:e0:a2:95:99:78:5f:50:
         88:89:e6:e0:8a:db:ae:f2:e5:be:7a:7d:a0:a9:cf:48:ef:7b:
         c6:09:d0:1a:46:11:c5:f8:99:90:5e:6f:c5:91:0d:f6:9e:3f:
         78:95:fe:84:af:73:64:ec:8d:6a:d2:6e:70:08:00:cc:88:a9:
         4e:85:95:f3:31:8a:9e:10:e2:62:23:3d:0b:5c:97:96:7e:db:
         36:64:fb:c9:d6:55:44:21:77:0f:0a:64:26:e2:15:2f:96:31:
         50:eb:f5:bd:ee:1d:e3:dd:d1:50:7e:c4:86:9a:31:fe:a8:7f:
         cd:2b:bc:93:c1:2f:67:60:f0:30:59:0d:d6:f5:05:2b:55:31:
         8f:60:b0:b9:f3:1a:de:bc:8d:50:aa:12:39:87:54:38:2a:b7:
         9b:1c:1f:51:ef:9e:a0:fc:8e:fd:c4:4a:de:8a:62:82:9c:a1:
         9d:97:5c:92
-----BEGIN CERTIFICATE-----
MIIFNDCCBBygAwIBAgIQE7PjAhgDl2aNUDTg5nTijTANBgkqhkiG9w0BAQsFADCB
yjELMAkGA1UEBhMCVVMxFzAVBgNVBAoTDlZlcmlTaWduLCBJbmMuMR8wHQYDVQQL
ExZWZXJpU2lnbiBUcnVzdCBOZXR3b3JrMTowOAYDVQQLEzEoYykgMjAwNiBWZXJp
U2lnbiwgSW5jLiAtIEZvciBhdXRob3JpemVkIHVzZSBvbmx5MUUwQwYDVQQDEzxW
ZXJpU2lnbiBDbGFzcyAzIFB1YmxpYyBQcmltYXJ5IENlcnRpZmljYXRpb24gQXV0
aG9yaXR5IC0gRzUwHhcNMTMxMDMxMDAwMDAwWhcNMjMxMDMwMjM1OTU5WjB+MQsw
CQYDVQQGEwJVUzEdMBsGA1UEChMUU3ltYW50ZWMgQ29ycG9yYXRpb24xHzAdBgNV
BAsTFlN5bWFudGVjIFRydXN0IE5ldHdvcmsxLzAtBgNVBAMTJlN5bWFudGVjIENs
YXNzIDMgU2VjdXJlIFNlcnZlciBDQSAtIEc0MIIBIjANBgkqhkiG9w0BAQEFAAOC
AQ8AMIIBCgKCAQEAstgFyhx0LbUXVjnFSlIJluhL2AzxaJ+aQihiw6UwU35VEYJb
A3oNL+F5BMm0lncZgQGUWfm893qZJ4Itt4PdWid/sgN6nFMl6UgfRk/InSn4vnlW
9vf92Tpo2otLgjNBEsPIPMzWlnqEIRoiBAMnF4scaGGTDw5RgDMdtLXO637QYqzu
s3sBdO9pNevK1T2p7peYyo2qRA4lmUoVlqTObQJUHypqJuIGOmNIrLRM0XWTUP8T
L9ba4cYY9Z/JJV3zADreJk20KQnNDz0jbxZKgRb78oMQw7jW2FUyPfG9D72MUpVK
Fpd6UiFjdS8W+cRmvvW1Cdj/JwDNRHxvSz+w9wIDAQABo4IBXzCCAVswEgYDVR0T
AQH/BAgwBgEB/wIBADAwBgNVHR8EKTAnMCWgI6Ahhh9odHRwOi8vczEuc3ltY2Iu
Y29tL3BjYTMtZzUuY3JsMA4GA1UdDwEB/wQEAwIBBjApBgNVHREEIjAgpB4wHDEa
MBgGA1UEAxMRU3ltYW50ZWNQS0ktMS01MzQwHQYDVR0OBBYEFF9gz2GQVd+EQxSK
YCqy9Xr0QxjvMGcGA1UdIARgMF4wXAYGZ4EMAQICMFIwJgYIKwYBBQUHAgEWGmh0
dHA6Ly93d3cuc3ltYXV0aC5jb20vY3BzMCgGCCsGAQUFBwICMBwaGmh0dHA6Ly93
d3cuc3ltYXV0aC5jb20vcnBhMC8GCCsGAQUFBwEBBCMwITAfBggrBgEFBQcwAYYT
aHR0cDovL3MyLnN5bWNiLmNvbTAfBgNVHSMEGDAWgBR/02Wnwt3su/AwCfNDOfoC
rzMxMzANBgkqhkiG9w0BAQsFAAOCAQEAFhmahcWF6kdWT0A3rTTloy10gr46zSX+
YnAlu5gJNb53gFuuKGbnNzTA2g+1tC6XeD7IUz+msa7VpP28Q696IHvIFabtWuUc
jKaB72GkqFB2vdDgopWZeF9QiInm4IrbrvLlvnp9oKnPSO97xgnQGkYRxfiZkF5v
xZEN9p4/eJX+hK9zZOyNatJucAgAzIipToWV8zGKnhDiYiM9C1yXln7bNmT7ydZV
RCF3DwpkJuIVL5YxUOv1ve4d493RUH7Ehpox/qh/zSu8k8EvZ2DwMFkN1vUFK1Ux
j2CwufMa3ryNUKoSOYdUOCq3mxwfUe+eoPyO/cRK3opigpyhnZdckg==
-----END CERTIFICATE-----
Certificate:
    Data:
        Version: 3 (0x2)
        Serial Number:
            18:da:d1:9e:26:7d:e8:bb:4a:21:58:cd:cc:6b:3b:4a
    Signature Algorithm: sha1WithRSAEncryption
        Issuer: C = US, O = "VeriSign, Inc.", OU = VeriSign Trust Network, OU = "(c) 2006 VeriSign, Inc. - For authorized use only", CN = VeriSign Class 3 Public Primary Certification Authority - G5
        Validity
            Not Before: Nov  8 00:00:00 2006 GMT
            Not After : Jul 16 23:59:59 2036 GMT
        Subject: C = US, O = "VeriSign, Inc.", OU = VeriSign Trust Network, OU = "(c) 2006 VeriSign, Inc. - For authorized use only", CN = VeriSign Class 3 Public Primary Certification Authority - G5
        Subject Public Key Info:
            Public Key Algorithm: rsaEncryption
                Public-Key: (2048 bit)
                Modulus:
                    00:af:24:08:08:29:7a:35:9e:60:0c:aa:e7:4b:3b:
                    4e:dc:7c:bc:3c:45:1c:bb:2b:e0:fe:29:02:f9:57:
                    08:a3:64:85:15:27:f5:f1:ad:c8:31:89:5d:22:e8:
                    2a:aa:a6:42:b3:8f:f8:b9:55:b7:b1:b7:4b:b3:fe:
                    8f:7e:07:57:ec:ef:43:db:66:62:15:61:cf:60:0d:
                    a4:d8:de:f8:e0:c3:62:08:3d:54:13:eb:49:ca:59:
                    54:85:26:e5:2b:8f:1b:9f:eb:f5:a1:91:c2:33:49:
                    d8:43:63:6a:52:4b:d2:8f:e8:70:51:4d:d1:89:69:
                    7b:c7:70:f6:b3:dc:12:74:db:7b:5d:4b:56:d3:96:
                    bf:15:77:a1:b0:f4:a2:25:f2:af:1c:92:67:18:e5:
                    f4:06:04:ef:90:b9:e4:00:e4:dd:3a:b5:19:ff:02:
                    ba:f4:3c:ee:e0:8b:eb:37:8b:ec:f4:d7:ac:f2:f6:
                    f0:3d:af:dd:75:91:33:19:1d:1c:40:cb:74:24:19:
                    21:93:d9:14:fe:ac:2a:52:c7:8f:d5:04:49:e4:8d:
                    63:47:88:3c:69:83:cb:fe:47:bd:2b:7e:4f:c5:95:
                    ae:0e:9d:d4:d1:43:c0:67:73:e3:14:08:7e:e5:3f:
                    9f:73:b8:33:0a:cf:5d:3f:34:87:96:8a:ee:53:e8:
                    25:15
                Exponent: 65537 (0x10001)
        X509v3 extensions:
            X509v3 Basic Constraints: critical
                CA:TRUE
            X509v3 Key Usage: critical
                Certificate Sign, CRL Sign
            1.3.6.1.5.5.7.1.12: 
                0_.].[0Y0W0U..image/gif0!0.0...+..............k...j.H.,{..0%.#http://logo.verisign.com/vslogo.gif
            X509v3 Subject Key Identifier: 
                7F:D3:65:A7:C2:DD:EC:BB:F0:30:09:F3:43:39:FA:02:AF:33:31:33
    Signature Algorithm: sha1WithRSAEncryption
         93:24:4a:30:5f:62:cf:d8:1a:98:2f:3d:ea:dc:99:2d:bd:77:
         f6:a5:79:22:38:ec:c4:a7:a0:78:12:ad:62:0e:45:70:64:c5:
         e7:97:66:2d:98:09:7e:5f:af:d6:cc:28:65:f2:01:aa:08:1a:
         47:de:f9:f9:7c:92:5a:08:69:20:0d:d9:3e:6d:6e:3c:0d:6e:
         d8:e6:06:91:40:18:b9:f8:c1:ed:df:db:41:aa:e0:96:20:c9:
         cd:64:15:38:81:c9:94:ee:a2:84:29:0b:13:6f:8e:db:0c:dd:
         25:02:db:a4:8b:19:44:d2:41:7a:05:69:4a:58:4f:60:ca:7e:
         82:6a:0b:02:aa:25:17:39:b5:db:7f:e7:84:65:2a:95:8a:bd:
         86:de:5e:81:16:83:2d:10:cc:de:fd:a8:82:2a:6d:28:1f:0d:
         0b:c4:e5:e7:1a:26:19:e1:f4:11:6f:10:b5:95:fc:e7:42:05:
         32:db:ce:9d:51:5e:28:b6:9e:85:d3:5b:ef:a5:7d:45:40:72:
         8e:b7:0e:6b:0e:06:fb:33:35:48:71:b8:9d:27:8b:c4:65:5f:
         0d:86:76:9c:44:7a:f6:95:5c:f6:5d:32:08:33:a4:54:b6:18:
         3f:68:5c:f2:42:4a:85:38:54:83:5f:d1:e8:2c:f2:ac:11:d6:
         a8:ed:63:6a
-----BEGIN CERTIFICATE-----
MIIE0zCCA7ugAwIBAgIQGNrRniZ96LtKIVjNzGs7SjANBgkqhkiG9w0BAQUFADCB
yjELMAkGA1UEBhMCVVMxFzAVBgNVBAoTDlZlcmlTaWduLCBJbmMuMR8wHQYDVQQL
ExZWZXJpU2lnbiBUcnVzdCBOZXR3b3JrMTowOAYDVQQLEzEoYykgMjAwNiBWZXJp
U2lnbiwgSW5jLiAtIEZvciBhdXRob3JpemVkIHVzZSBvbmx5MUUwQwYDVQQDEzxW
ZXJpU2lnbiBDbGFzcyAzIFB1YmxpYyBQcmltYXJ5IENlcnRpZmljYXRpb24gQXV0
aG9yaXR5IC0gRzUwHhcNMDYxMTA4MDAwMDAwWhcNMzYwNzE2MjM1OTU5WjCByjEL
MAkGA1UEBhMCVVMxFzAVBgNVBAoTDlZlcmlTaWduLCBJbmMuMR8wHQYDVQQLExZW
ZXJpU2lnbiBUcnVzdCBOZXR3b3JrMTowOAYDVQQLEzEoYykgMjAwNiBWZXJpU2ln
biwgSW5jLiAtIEZvciBhdXRob3JpemVkIHVzZSBvbmx5MUUwQwYDVQQDEzxWZXJp
U2lnbiBDbGFzcyAzIFB1YmxpYyBQcmltYXJ5IENlcnRpZmljYXRpb24gQXV0aG9y
aXR5IC0gRzUwggEiMA0GCSqGSIb3DQEBAQUAA4IBDwAwggEKAoIBAQCvJAgIKXo1
nmAMqudLO07cfLw8RRy7K+D+KQL5VwijZIUVJ/XxrcgxiV0i6CqqpkKzj/i5Vbex
t0uz/o9+B1fs70PbZmIVYc9gDaTY3vjgw2IIPVQT60nKWVSFJuUrjxuf6/WhkcIz
SdhDY2pSS9KP6HBRTdGJaXvHcPaz3BJ023tdS1bTlr8Vd6Gw9KIl8q8ckmcY5fQG
BO+QueQA5N06tRn/Arr0PO7gi+s3i+z016zy9vA9r911kTMZHRxAy3QkGSGT2RT+
rCpSx4/VBEnkjWNHiDxpg8v+R70rfk/Fla4OndTRQ8Bnc+MUCH7lP59zuDMKz10/
NIeWiu5T6CUVAgMBAAGjgbIwga8wDwYDVR0TAQH/BAUwAwEB/zAOBgNVHQ8BAf8E
BAMCAQYwbQYIKwYBBQUHAQwEYTBfoV2gWzBZMFcwVRYJaW1hZ2UvZ2lmMCEwHzAH
BgUrDgMCGgQUj+XTGoasjY5rw8+AatRIGCx7GS4wJRYjaHR0cDovL2xvZ28udmVy
aXNpZ24uY29tL3ZzbG9nby5naWYwHQYDVR0OBBYEFH/TZafC3ey78DAJ80M5+gKv
MzEzMA0GCSqGSIb3DQEBBQUAA4IBAQCTJEowX2LP2BqYLz3q3JktvXf2pXkiOOzE
p6B4Eq1iDkVwZMXnl2YtmAl+X6/WzChl8gGqCBpH3vn5fJJaCGkgDdk+bW48DW7Y
5gaRQBi5+MHt39tBquCWIMnNZBU4gcmU7qKEKQsTb47bDN0lAtukixlE0kF6BWlK
WE9gyn6CagsCqiUXObXbf+eEZSqVir2G3l6BFoMtEMze/aiCKm0oHw0LxOXnGiYZ
4fQRbxC1lfznQgUy286dUV4otp6F01vvpX1FQHKOtw5rDgb7MzVIcbidJ4vEZV8N
hnacRHr2lVz2XTIIM6RUthg/aFzyQkqFOFSDX9HoLPKsEdao7WNq
-----END CERTIFICATE-----
