[Created by: generate-chains.py]

Certificate chain where the target certificate has an incorrect signature.

Certificate:
    Data:
        Version: 3 (0x2)
        Serial Number:
            64:12:b2:41:aa:b4:4c:d7:9a:e2:15:7a:bc:3b:e5:1c:2e:2f:6f:9a
    Signature Algorithm: sha256WithRSAEncryption
        Issuer: CN=Intermediate
        Validity
            Not Before: Mar 10 12:00:00 2018 GMT
            Not After : Jan  1 12:00:00 2021 GMT
        Subject: CN=Target
        Subject Public Key Info:
            Public Key Algorithm: rsaEncryption
                Public-Key: (2048 bit)
                Modulus:
                    00:a3:10:52:35:1d:ac:4e:a5:23:41:40:b1:1d:66:
                    30:25:bc:dd:a5:62:66:d1:74:db:5f:bd:5d:96:07:
                    08:94:c4:61:a4:e9:07:31:f9:e8:6a:52:f5:8a:3d:
                    1c:6d:00:c8:47:51:30:99:42:8b:27:11:48:e9:c6:
                    de:db:ff:7f:ee:6e:29:cf:48:77:1e:63:11:bc:2a:
                    81:fb:3a:5d:4e:d2:b8:0c:ce:68:6b:61:f2:bf:64:
                    da:aa:3f:06:74:47:77:72:08:d2:a3:c3:35:cf:e5:
                    dd:13:f7:d3:45:21:f5:9c:cf:7e:50:56:53:11:c8:
                    eb:90:f2:a2:eb:8f:9d:c1:07:c4:b8:4b:38:04:3d:
                    7f:be:73:36:3e:5f:c4:7e:37:a7:0c:88:8b:a8:63:
                    79:74:b4:2c:c6:7c:52:61:e1:03:d3:ff:4f:c5:50:
                    63:19:83:eb:f3:89:a3:91:e5:90:ab:80:43:18:3e:
                    c8:77:ac:69:97:cf:2f:5b:be:a9:59:89:99:3a:5d:
                    87:c4:4f:97:4a:60:18:ea:ea:a5:b7:1e:61:57:98:
                    50:55:91:13:34:0d:03:65:a4:f4:bb:63:e6:bb:3e:
                    9f:03:84:f7:e6:63:d0:f3:82:5b:0c:96:b1:32:f2:
                    2f:2a:55:5b:24:a6:b6:33:62:6e:ed:0b:f2:77:f8:
                    f8:f3
                Exponent: 65537 (0x10001)
        X509v3 extensions:
            X509v3 Subject Key Identifier: 
                19:59:39:C0:2B:03:0A:9B:BF:AA:A8:AB:B2:FB:AF:95:88:63:CA:6E
            X509v3 Authority Key Identifier: 
                keyid:CC:47:D8:FF:8B:67:33:FB:F5:CD:D0:A7:B6:12:A0:19:27:27:D1:57

            Authority Information Access: 
                CA Issuers - URI:http://url-for-aia/Intermediate.cer

            X509v3 CRL Distribution Points: 

                Full Name:
                  URI:http://url-for-crl/Intermediate.crl

            X509v3 Key Usage: critical
                Digital Signature, Key Encipherment
            X509v3 Extended Key Usage: 
                TLS Web Server Authentication, TLS Web Client Authentication
    Signature Algorithm: sha256WithRSAEncryption
         1e:29:08:ca:16:7f:97:c8:a7:60:67:a1:5c:e7:7d:82:19:20:
         27:2f:04:cb:75:5d:54:d1:9f:fd:fd:56:89:f9:b9:66:56:2e:
         ce:57:6b:31:ac:2b:bc:2b:37:2d:48:a5:c7:c3:e5:da:d4:2a:
         b6:20:d4:c3:df:21:84:3a:5d:8d:77:d2:24:0c:88:42:d4:f7:
         2c:b2:6e:51:99:e6:c4:ff:2a:bb:4d:7c:88:bc:55:e3:44:5b:
         7e:99:92:21:8f:d3:d9:e8:b4:6a:72:b1:85:c3:f0:81:33:c0:
         ff:a8:96:33:50:a9:ee:f6:7d:5e:f0:57:2f:f4:f0:de:6a:ad:
         6f:db:6c:61:2e:16:bf:da:cd:16:25:e3:e9:d8:71:1c:67:4d:
         fc:06:f6:94:49:d6:d7:16:c3:a9:6f:a4:2b:47:bd:9a:7f:47:
         d1:48:be:69:99:c7:33:f4:c4:61:27:54:6f:d0:ec:47:3d:c3:
         2b:86:94:cf:60:3e:d3:b9:8c:6b:79:90:7c:e6:e2:f7:c5:24:
         68:24:c1:3c:2a:f1:8b:99:50:08:e4:00:9c:cc:bc:ff:2b:78:
         b5:2f:6b:75:28:f0:fb:35:b3:96:62:0c:87:f8:a1:df:d3:17:
         b1:35:4e:60:d1:40:42:68:c8:3d:f4:da:19:0f:80:68:5e:89:
         45:bf:0a:11
-----BEGIN CERTIFICATE-----
MIIDoDCCAoigAwIBAgIUZBKyQaq0TNea4hV6vDvlHC4vb5owDQYJKoZIhvcNAQEL
BQAwFzEVMBMGA1UEAwwMSW50ZXJtZWRpYXRlMB4XDTE4MDMxMDEyMDAwMFoXDTIx
MDEwMTEyMDAwMFowETEPMA0GA1UEAwwGVGFyZ2V0MIIBIjANBgkqhkiG9w0BAQEF
AAOCAQ8AMIIBCgKCAQEAoxBSNR2sTqUjQUCxHWYwJbzdpWJm0XTbX71dlgcIlMRh
pOkHMfnoalL1ij0cbQDIR1EwmUKLJxFI6cbe2/9/7m4pz0h3HmMRvCqB+zpdTtK4
DM5oa2Hyv2Taqj8GdEd3cgjSo8M1z+XdE/fTRSH1nM9+UFZTEcjrkPKi64+dwQfE
uEs4BD1/vnM2Pl/EfjenDIiLqGN5dLQsxnxSYeED0/9PxVBjGYPr84mjkeWQq4BD
GD7Id6xpl88vW76pWYmZOl2HxE+XSmAY6uqltx5hV5hQVZETNA0DZaT0u2Pmuz6f
A4T35mPQ84JbDJaxMvIvKlVbJKa2M2Ju7Qvyd/j48wIDAQABo4HpMIHmMB0GA1Ud
DgQWBBQZWTnAKwMKm7+qqKuy+6+ViGPKbjAfBgNVHSMEGDAWgBTMR9j/i2cz+/XN
0Ke2EqAZJyfRVzA/BggrBgEFBQcBAQQzMDEwLwYIKwYBBQUHMAKGI2h0dHA6Ly91
cmwtZm9yLWFpYS9JbnRlcm1lZGlhdGUuY2VyMDQGA1UdHwQtMCswKaAnoCWGI2h0
dHA6Ly91cmwtZm9yLWNybC9JbnRlcm1lZGlhdGUuY3JsMA4GA1UdDwEB/wQEAwIF
oDAdBgNVHSUEFjAUBggrBgEFBQcDAQYIKwYBBQUHAwIwDQYJKoZIhvcNAQELBQAD
ggEBAB4pCMoWf5fIp2BnoVznfYIZICcvBMt1XVTRn/39Von5uWZWLs5XazGsK7wr
Ny1IpcfD5drUKrYg1MPfIYQ6XY130iQMiELU9yyyblGZ5sT/KrtNfIi8VeNEW36Z
kiGP09notGpysYXD8IEzwP+oljNQqe72fV7wVy/08N5qrW/bbGEuFr/azRYl4+nY
cRxnTfwG9pRJ1tcWw6lvpCtHvZp/R9FIvmmZxzP0xGEnVG/Q7Ec9wyuGlM9gPtO5
jGt5kHzm4vfFJGgkwTwq8YuZUAjkAJzMvP8reLUva3Uo8Ps1s5ZiDIf4od/TF7E1
TmDRQEJoyD302hkPgGheiUW/ChE=
-----END CERTIFICATE-----

Certificate:
    Data:
        Version: 3 (0x2)
        Serial Number:
            6a:9f:ff:3a:b6:b8:fe:7d:22:0c:6a:3b:9d:e9:cc:59:3d:d5:60:ed
    Signature Algorithm: sha256WithRSAEncryption
        Issuer: CN=Root
        Validity
            Not Before: Mar 10 12:00:00 2018 GMT
            Not After : Jan  1 12:00:00 2021 GMT
        Subject: CN=Intermediate
        Subject Public Key Info:
            Public Key Algorithm: rsaEncryption
                Public-Key: (2048 bit)
                Modulus:
                    00:e8:a7:ff:7c:21:83:d4:bd:ed:f4:09:73:79:69:
                    0c:ec:79:18:79:54:2e:a6:87:f3:7b:65:e8:73:6a:
                    a5:af:fd:00:6b:c9:ed:86:50:18:f0:4c:d9:12:17:
                    3a:23:ae:7a:49:3d:71:7c:6e:da:4f:7b:ed:55:73:
                    e8:71:5c:72:13:84:8f:83:aa:30:4f:0a:bc:38:51:
                    75:47:67:c3:6c:5e:e8:af:96:07:4a:0c:f7:5d:c1:
                    82:ea:02:e2:c3:da:57:68:2c:03:1a:a0:d9:51:05:
                    ef:ec:67:cc:fd:c4:09:b4:f7:2f:c7:5a:df:84:7f:
                    15:60:32:9d:17:4e:4b:3c:15:48:a7:42:a1:f5:d4:
                    04:82:bb:cc:18:3a:ab:07:d1:66:82:9b:0d:b0:ef:
                    d8:47:18:71:78:e6:07:47:97:29:24:0c:7a:12:ab:
                    2f:4b:14:ec:35:7a:d2:a3:2a:16:0c:0b:91:5a:e2:
                    f2:64:93:85:1d:e2:27:7e:7e:cd:eb:5f:83:d7:07:
                    0c:06:b8:8f:44:91:0c:37:d8:86:65:23:1a:fe:8f:
                    69:3e:bb:20:bb:ef:1b:18:1b:fd:2f:bf:5b:d3:be:
                    da:2d:9f:9a:57:6b:4b:73:3f:34:04:99:5d:a1:73:
                    b5:08:d1:bb:9a:5c:88:a0:f8:65:1c:e7:7f:f3:95:
                    d0:fd
                Exponent: 65537 (0x10001)
        X509v3 extensions:
            X509v3 Subject Key Identifier: 
                1E:51:BA:4C:14:B3:B7:2B:E2:AE:4C:1C:35:21:7C:DB:92:18:AB:53
            X509v3 Authority Key Identifier: 
                keyid:5B:22:4E:B0:32:77:9B:92:26:9B:3B:E9:76:31:CE:FB:43:87:A3:2A

            Authority Information Access: 
                CA Issuers - URI:http://url-for-aia/Root.cer

            X509v3 CRL Distribution Points: 

                Full Name:
                  URI:http://url-for-crl/Root.crl

            X509v3 Key Usage: critical
                Certificate Sign, CRL Sign
            X509v3 Basic Constraints: critical
                CA:TRUE
    Signature Algorithm: sha256WithRSAEncryption
         d1:e0:9b:06:eb:bc:ce:09:32:23:d4:3f:ba:a1:51:d4:29:a6:
         c3:6d:c9:7d:78:97:27:08:44:f0:d5:ca:55:0e:ee:1a:9e:08:
         04:6a:bf:b8:5c:77:8e:8e:2b:90:94:ae:5c:9b:58:33:72:98:
         64:92:05:ef:9f:e7:6b:a3:48:47:53:0a:6b:b0:14:b8:16:5d:
         7f:9d:70:1d:8b:25:15:d2:ff:db:b5:81:0e:94:d6:1a:ad:e7:
         f0:1b:37:e4:cd:71:24:43:74:21:ba:1e:f8:ae:d0:f7:10:42:
         60:44:f1:60:0d:d2:5f:d0:61:32:3a:e1:df:91:84:01:25:77:
         4f:ce:d6:37:e1:0e:44:60:27:15:a6:47:c8:50:99:39:af:a1:
         8e:ea:12:82:01:f8:ac:b1:5a:f6:b3:3f:84:7c:b5:60:4d:bb:
         24:e0:c6:fe:7d:10:5c:ef:b0:09:85:9e:85:83:c0:60:68:0d:
         db:f3:e8:e7:f4:b0:0d:a7:f4:59:27:47:7b:81:bf:a9:2e:60:
         61:3c:fd:26:63:6b:bb:0d:f5:17:e7:34:94:e9:df:cf:4b:6e:
         2e:b1:42:83:6d:a2:f5:ba:09:ab:02:ea:d6:94:d2:ba:6b:d7:
         d1:69:2c:25:90:9f:a1:f5:b5:a3:d5:07:db:28:51:5f:b5:5f:
         19:6b:6f:be
-----BEGIN CERTIFICATE-----
MIIDgDCCAmigAwIBAgIUap//Ora4/n0iDGo7nenMWT3VYO0wDQYJKoZIhvcNAQEL
BQAwDzENMAsGA1UEAwwEUm9vdDAeFw0xODAzMTAxMjAwMDBaFw0yMTAxMDExMjAw
MDBaMBcxFTATBgNVBAMMDEludGVybWVkaWF0ZTCCASIwDQYJKoZIhvcNAQEBBQAD
ggEPADCCAQoCggEBAOin/3whg9S97fQJc3lpDOx5GHlULqaH83tl6HNqpa/9AGvJ
7YZQGPBM2RIXOiOuekk9cXxu2k977VVz6HFcchOEj4OqME8KvDhRdUdnw2xe6K+W
B0oM913BguoC4sPaV2gsAxqg2VEF7+xnzP3ECbT3L8da34R/FWAynRdOSzwVSKdC
ofXUBIK7zBg6qwfRZoKbDbDv2EcYcXjmB0eXKSQMehKrL0sU7DV60qMqFgwLkVri
8mSThR3iJ35+zetfg9cHDAa4j0SRDDfYhmUjGv6PaT67ILvvGxgb/S+/W9O+2i2f
mldrS3M/NASZXaFztQjRu5pciKD4ZRznf/OV0P0CAwEAAaOByzCByDAdBgNVHQ4E
FgQUHlG6TBSztyvirkwcNSF825IYq1MwHwYDVR0jBBgwFoAUWyJOsDJ3m5Immzvp
djHO+0OHoyowNwYIKwYBBQUHAQEEKzApMCcGCCsGAQUFBzAChhtodHRwOi8vdXJs
LWZvci1haWEvUm9vdC5jZXIwLAYDVR0fBCUwIzAhoB+gHYYbaHR0cDovL3VybC1m
b3ItY3JsL1Jvb3QuY3JsMA4GA1UdDwEB/wQEAwIBBjAPBgNVHRMBAf8EBTADAQH/
MA0GCSqGSIb3DQEBCwUAA4IBAQDR4JsG67zOCTIj1D+6oVHUKabDbcl9eJcnCETw
1cpVDu4anggEar+4XHeOjiuQlK5cm1gzcphkkgXvn+dro0hHUwprsBS4Fl1/nXAd
iyUV0v/btYEOlNYarefwGzfkzXEkQ3Qhuh74rtD3EEJgRPFgDdJf0GEyOuHfkYQB
JXdPztY34Q5EYCcVpkfIUJk5r6GO6hKCAfissVr2sz+EfLVgTbsk4Mb+fRBc77AJ
hZ6Fg8BgaA3b8+jn9LANp/RZJ0d7gb+pLmBhPP0mY2u7DfUX5zSU6d/PS24usUKD
baL1ugmrAurWlNK6a9fRaSwlkJ+h9bWj1QfbKFFftV8Za2++
-----END CERTIFICATE-----

Certificate:
    Data:
        Version: 3 (0x2)
        Serial Number:
            6a:9f:ff:3a:b6:b8:fe:7d:22:0c:6a:3b:9d:e9:cc:59:3d:d5:60:eb
    Signature Algorithm: sha256WithRSAEncryption
        Issuer: CN=Root
        Validity
            Not Before: Mar 10 12:00:00 2018 GMT
            Not After : Jan  1 12:00:00 2021 GMT
        Subject: CN=Root
        Subject Public Key Info:
            Public Key Algorithm: rsaEncryption
                Public-Key: (2048 bit)
                Modulus:
                    00:df:f9:b3:49:5f:c8:1f:a6:a5:bc:9e:5d:08:17:
                    7e:a5:87:b6:d2:53:a6:c2:ce:73:29:cb:f4:35:07:
                    26:c5:b0:ef:87:ca:a0:64:db:7f:e4:2c:05:da:81:
                    8e:98:b8:80:d2:f1:c3:e5:d6:6c:1a:ac:90:8f:f0:
                    4d:43:fd:09:f4:eb:17:fa:c4:cb:da:2a:56:7e:b6:
                    d2:ce:6d:5f:d5:ec:01:67:af:02:3a:d6:18:a2:61:
                    43:f6:ff:45:10:c4:8e:c1:15:1b:a0:88:77:45:82:
                    39:10:f8:d7:2c:26:13:df:20:62:0f:9a:5d:69:d1:
                    ae:4e:c2:28:30:0c:dd:d5:6e:8e:23:d0:45:f3:4f:
                    2c:9a:f6:f7:d4:fd:b8:6e:28:32:74:57:94:5d:f8:
                    3f:51:ef:11:21:09:27:3c:05:46:86:78:63:f6:c5:
                    0d:7c:28:e5:b7:1a:66:f4:91:59:f2:91:16:a2:7b:
                    0a:34:e7:30:78:72:73:10:dc:b7:60:cd:d3:ea:8b:
                    09:0e:7c:9c:01:f9:f5:d8:ce:35:86:8f:60:e4:00:
                    38:98:81:ac:36:1a:25:7e:c6:59:bd:79:53:5b:83:
                    f0:72:50:78:a2:3f:53:45:fc:64:56:40:ed:64:5d:
                    7d:df:62:4f:a0:01:25:19:59:9f:84:e6:c7:21:04:
                    b8:2f
                Exponent: 65537 (0x10001)
        X509v3 extensions:
            X509v3 Subject Key Identifier: 
                5B:22:4E:B0:32:77:9B:92:26:9B:3B:E9:76:31:CE:FB:43:87:A3:2A
            X509v3 Authority Key Identifier: 
                keyid:5B:22:4E:B0:32:77:9B:92:26:9B:3B:E9:76:31:CE:FB:43:87:A3:2A

            Authority Information Access: 
                CA Issuers - URI:http://url-for-aia/Root.cer

            X509v3 CRL Distribution Points: 

                Full Name:
                  URI:http://url-for-crl/Root.crl

            X509v3 Key Usage: critical
                Certificate Sign, CRL Sign
            X509v3 Basic Constraints: critical
                CA:TRUE
    Signature Algorithm: sha256WithRSAEncryption
         ac:40:7a:e2:4b:e4:8f:da:74:68:81:5b:9b:74:95:d4:6c:fc:
         c4:68:2b:a2:38:41:c8:c4:f7:e7:88:91:e7:1c:e2:fb:46:74:
         0a:ec:10:b4:24:8b:30:8d:65:ef:98:72:05:cd:b1:77:80:90:
         2b:2a:ae:53:a9:15:67:91:2e:d7:fe:d8:9f:0d:f7:1f:1f:7c:
         6b:c7:0d:4c:58:f9:4c:89:26:d1:1d:dd:a2:2b:1b:87:ef:b7:
         18:42:d4:5d:54:4a:f1:08:bb:37:3b:24:d3:cd:b4:36:d5:6e:
         0c:71:d6:57:dc:f5:b2:1d:f9:be:3b:a5:72:55:fa:65:b9:2e:
         72:7b:ec:26:10:ba:72:67:3b:1e:c9:f4:c6:e2:12:09:0b:6e:
         4f:b6:26:ff:b5:59:45:0c:3f:55:1e:82:83:c4:20:00:3c:ab:
         5f:ac:ba:10:0a:a8:eb:ab:cb:8f:8e:48:8a:68:30:38:46:4a:
         d8:84:c2:79:be:a8:27:51:e5:ad:b8:f6:2b:4c:87:7f:d7:cb:
         0d:c9:02:0e:84:cd:da:cf:21:20:50:38:93:d6:cb:41:fd:a7:
         4f:c0:c3:f0:d1:01:ad:c1:66:4e:91:0f:2b:fa:36:dd:4f:b9:
         0e:b7:02:cd:73:46:58:8d:29:95:0d:a2:96:0f:d6:b2:47:1c:
         a1:a2:e8:72
-----BEGIN CERTIFICATE-----
MIIDeDCCAmCgAwIBAgIUap//Ora4/n0iDGo7nenMWT3VYOswDQYJKoZIhvcNAQEL
BQAwDzENMAsGA1UEAwwEUm9vdDAeFw0xODAzMTAxMjAwMDBaFw0yMTAxMDExMjAw
MDBaMA8xDTALBgNVBAMMBFJvb3QwggEiMA0GCSqGSIb3DQEBAQUAA4IBDwAwggEK
AoIBAQDf+bNJX8gfpqW8nl0IF36lh7bSU6bCznMpy/Q1BybFsO+HyqBk23/kLAXa
gY6YuIDS8cPl1mwarJCP8E1D/Qn06xf6xMvaKlZ+ttLObV/V7AFnrwI61hiiYUP2
/0UQxI7BFRugiHdFgjkQ+NcsJhPfIGIPml1p0a5OwigwDN3Vbo4j0EXzTyya9vfU
/bhuKDJ0V5Rd+D9R7xEhCSc8BUaGeGP2xQ18KOW3Gmb0kVnykRaiewo05zB4cnMQ
3LdgzdPqiwkOfJwB+fXYzjWGj2DkADiYgaw2GiV+xlm9eVNbg/ByUHiiP1NF/GRW
QO1kXX3fYk+gASUZWZ+E5schBLgvAgMBAAGjgcswgcgwHQYDVR0OBBYEFFsiTrAy
d5uSJps76XYxzvtDh6MqMB8GA1UdIwQYMBaAFFsiTrAyd5uSJps76XYxzvtDh6Mq
MDcGCCsGAQUFBwEBBCswKTAnBggrBgEFBQcwAoYbaHR0cDovL3VybC1mb3ItYWlh
L1Jvb3QuY2VyMCwGA1UdHwQlMCMwIaAfoB2GG2h0dHA6Ly91cmwtZm9yLWNybC9S
b290LmNybDAOBgNVHQ8BAf8EBAMCAQYwDwYDVR0TAQH/BAUwAwEB/zANBgkqhkiG
9w0BAQsFAAOCAQEArEB64kvkj9p0aIFbm3SV1Gz8xGgrojhByMT354iR5xzi+0Z0
CuwQtCSLMI1l75hyBc2xd4CQKyquU6kVZ5Eu1/7Ynw33Hx98a8cNTFj5TIkm0R3d
oisbh++3GELUXVRK8Qi7Nzsk0820NtVuDHHWV9z1sh35vjulclX6ZbkucnvsJhC6
cmc7Hsn0xuISCQtuT7Ym/7VZRQw/VR6Cg8QgADyrX6y6EAqo66vLj45IimgwOEZK
2ITCeb6oJ1Hlrbj2K0yHf9fLDckCDoTN2s8hIFA4k9bLQf2nT8DD8NEBrcFmTpEP
K/o23U+5DrcCzXNGWI0plQ2ilg/WskccoaLocg==
-----END CERTIFICATE-----
