Certificate:
    Data:
        Version: 3 (0x2)
        Serial Number:
            16:8a:5f:b1:01:c8:f4:45:bd:aa:8c:4e:f9:0c:db:e6:68:45:46:73
    Signature Algorithm: sha256WithRSAEncryption
        Issuer: CN=Root
        Validity
            Not Before: Mar 10 12:00:00 2018 GMT
            Not After : Jan  1 12:00:00 2021 GMT
        Subject: O=O2, O=O1
        Subject Public Key Info:
            Public Key Algorithm: rsaEncryption
                Public-Key: (2048 bit)
                Modulus:
                    00:d5:ac:80:14:b9:d2:78:ad:43:c8:51:69:3e:98:
                    7f:bd:a8:57:a3:65:28:19:6d:44:e5:6a:5d:f7:c2:
                    31:ed:4e:66:a9:f1:d2:9d:36:b6:b9:98:3f:d8:54:
                    d2:e9:77:3a:fb:9f:d5:c9:f9:c9:df:5e:b7:da:34:
                    42:f6:cb:e3:66:e0:b7:5a:82:9b:77:20:0f:b1:17:
                    1e:2a:70:62:d2:67:9b:a0:54:f2:1b:a4:9f:06:b7:
                    bb:af:5a:6f:55:b1:7e:f8:20:cb:ed:e4:55:d8:18:
                    cb:4f:0e:c3:c4:5d:13:fc:fd:d7:b1:1c:c5:58:81:
                    cf:e9:56:78:67:78:aa:fe:06:29:9e:34:3e:4b:fe:
                    7e:ec:22:16:15:d6:2b:c3:6e:17:23:42:1b:28:2e:
                    21:13:31:8b:8a:33:23:a2:67:f6:23:bc:f2:68:9b:
                    71:92:92:7f:23:09:53:96:67:3c:fe:c2:81:88:9f:
                    00:55:93:4d:b3:e7:02:01:13:48:4b:34:12:45:6e:
                    48:6a:88:21:33:ff:5a:03:49:56:a2:69:64:97:a4:
                    53:0e:90:73:84:c6:b8:28:b0:5b:c0:67:85:fd:9a:
                    25:f2:cf:0e:79:24:78:20:80:f0:2c:ae:46:8e:c5:
                    cf:29:be:7f:f5:7d:73:6d:aa:0b:10:59:4f:d6:46:
                    f1:bf
                Exponent: 65537 (0x10001)
        X509v3 extensions:
            X509v3 Subject Key Identifier: 
                9D:44:AA:2B:9B:4C:66:4C:20:C5:32:B2:EA:08:13:13:69:17:49:B1
            X509v3 Authority Key Identifier: 
                keyid:FF:8B:FC:A5:69:36:2F:62:3B:D4:1B:ED:58:2F:E9:77:3D:29:81:83

            Authority Information Access: 
                CA Issuers - URI:http://url-for-aia/Root.cer

            X509v3 CRL Distribution Points: 

                Full Name:
                  URI:http://url-for-crl/Root.crl

            X509v3 Key Usage: critical
                Certificate Sign, CRL Sign
            X509v3 Basic Constraints: critical
                CA:TRUE
    Signature Algorithm: sha256WithRSAEncryption
         24:97:52:64:f4:a0:0b:a5:48:62:ee:fa:b7:44:f5:a9:36:21:
         0e:89:77:35:49:a4:cd:9b:eb:33:9b:9f:93:75:1b:65:f6:72:
         d0:04:de:4b:74:7f:ca:29:3b:a7:4e:d7:8c:31:c3:b3:e8:f9:
         2c:25:17:83:09:99:24:33:b3:62:78:56:fd:ff:f5:d5:e5:2f:
         72:4b:2e:2a:7c:cc:74:06:18:27:c8:1c:78:c4:6d:4a:71:d1:
         89:41:aa:64:a8:61:96:da:a3:9e:11:2e:0e:f4:e1:7d:a7:18:
         3f:38:5b:77:e2:47:e7:1c:ad:e7:d1:9d:66:91:c6:8d:7c:71:
         f4:f8:04:44:e3:74:d5:e8:d2:09:4f:79:f9:bf:18:a9:c0:22:
         da:93:b7:8e:69:22:6d:53:05:01:5c:b4:14:7a:a4:fb:48:e8:
         23:73:c8:14:a4:91:72:06:b7:3f:c1:31:ff:8c:e2:aa:c0:93:
         61:37:49:67:96:55:83:55:8f:68:a1:2b:4d:23:34:54:59:a1:
         da:31:35:35:ac:f2:9b:4c:8f:f8:be:c8:f5:bb:e9:ec:fe:c6:
         dc:d0:b9:d0:18:e5:82:c0:d5:68:96:3d:e5:68:4f:c5:f0:5e:
         61:e0:a0:d1:ff:51:0d:f4:aa:a1:af:95:db:46:e6:83:8e:54:
         e7:40:a9:29
-----BEGIN CERTIFICATE-----
MIIDgzCCAmugAwIBAgIUFopfsQHI9EW9qoxO+Qzb5mhFRnMwDQYJKoZIhvcNAQEL
BQAwDzENMAsGA1UEAwwEUm9vdDAeFw0xODAzMTAxMjAwMDBaFw0yMTAxMDExMjAw
MDBaMBoxCzAJBgNVBAoMAk8yMQswCQYDVQQKDAJPMTCCASIwDQYJKoZIhvcNAQEB
BQADggEPADCCAQoCggEBANWsgBS50nitQ8hRaT6Yf72oV6NlKBltROVqXffCMe1O
Zqnx0p02trmYP9hU0ul3Ovuf1cn5yd9et9o0QvbL42bgt1qCm3cgD7EXHipwYtJn
m6BU8huknwa3u69ab1Wxfvggy+3kVdgYy08Ow8RdE/z917EcxViBz+lWeGd4qv4G
KZ40Pkv+fuwiFhXWK8NuFyNCGyguIRMxi4ozI6Jn9iO88mibcZKSfyMJU5ZnPP7C
gYifAFWTTbPnAgETSEs0EkVuSGqIITP/WgNJVqJpZJekUw6Qc4TGuCiwW8Bnhf2a
JfLPDnkkeCCA8CyuRo7Fzym+f/V9c22qCxBZT9ZG8b8CAwEAAaOByzCByDAdBgNV
HQ4EFgQUnUSqK5tMZkwgxTKy6ggTE2kXSbEwHwYDVR0jBBgwFoAU/4v8pWk2L2I7
1BvtWC/pdz0pgYMwNwYIKwYBBQUHAQEEKzApMCcGCCsGAQUFBzAChhtodHRwOi8v
dXJsLWZvci1haWEvUm9vdC5jZXIwLAYDVR0fBCUwIzAhoB+gHYYbaHR0cDovL3Vy
bC1mb3ItY3JsL1Jvb3QuY3JsMA4GA1UdDwEB/wQEAwIBBjAPBgNVHRMBAf8EBTAD
AQH/MA0GCSqGSIb3DQEBCwUAA4IBAQAkl1Jk9KALpUhi7vq3RPWpNiEOiXc1SaTN
m+szm5+TdRtl9nLQBN5LdH/KKTunTteMMcOz6PksJReDCZkkM7NieFb9//XV5S9y
Sy4qfMx0BhgnyBx4xG1KcdGJQapkqGGW2qOeES4O9OF9pxg/OFt34kfnHK3n0Z1m
kcaNfHH0+ARE43TV6NIJT3n5vxipwCLak7eOaSJtUwUBXLQUeqT7SOgjc8gUpJFy
Brc/wTH/jOKqwJNhN0lnllWDVY9ooStNIzRUWaHaMTU1rPKbTI/4vsj1u+ns/sbc
0LnQGOWCwNVolj3laE/F8F5h4KDR/1EN9Kqhr5XbRuaDjlTnQKkp
-----END CERTIFICATE-----
