Certificate:
    Data:
        Version: 3 (0x2)
        Serial Number:
            16:8a:5f:b1:01:c8:f4:45:bd:aa:8c:4e:f9:0c:db:e6:68:45:46:75
    Signature Algorithm: sha256WithRSAEncryption
        Issuer: CN=Root
        Validity
            Not Before: Mar 10 12:00:00 2018 GMT
            Not After : Jan  1 12:00:00 2021 GMT
        Subject: O=\x00O\x001
        Subject Public Key Info:
            Public Key Algorithm: rsaEncryption
                Public-Key: (2048 bit)
                Modulus:
                    00:d5:ac:80:14:b9:d2:78:ad:43:c8:51:69:3e:98:
                    7f:bd:a8:57:a3:65:28:19:6d:44:e5:6a:5d:f7:c2:
                    31:ed:4e:66:a9:f1:d2:9d:36:b6:b9:98:3f:d8:54:
                    d2:e9:77:3a:fb:9f:d5:c9:f9:c9:df:5e:b7:da:34:
                    42:f6:cb:e3:66:e0:b7:5a:82:9b:77:20:0f:b1:17:
                    1e:2a:70:62:d2:67:9b:a0:54:f2:1b:a4:9f:06:b7:
                    bb:af:5a:6f:55:b1:7e:f8:20:cb:ed:e4:55:d8:18:
                    cb:4f:0e:c3:c4:5d:13:fc:fd:d7:b1:1c:c5:58:81:
                    cf:e9:56:78:67:78:aa:fe:06:29:9e:34:3e:4b:fe:
                    7e:ec:22:16:15:d6:2b:c3:6e:17:23:42:1b:28:2e:
                    21:13:31:8b:8a:33:23:a2:67:f6:23:bc:f2:68:9b:
                    71:92:92:7f:23:09:53:96:67:3c:fe:c2:81:88:9f:
                    00:55:93:4d:b3:e7:02:01:13:48:4b:34:12:45:6e:
                    48:6a:88:21:33:ff:5a:03:49:56:a2:69:64:97:a4:
                    53:0e:90:73:84:c6:b8:28:b0:5b:c0:67:85:fd:9a:
                    25:f2:cf:0e:79:24:78:20:80:f0:2c:ae:46:8e:c5:
                    cf:29:be:7f:f5:7d:73:6d:aa:0b:10:59:4f:d6:46:
                    f1:bf
                Exponent: 65537 (0x10001)
        X509v3 extensions:
            X509v3 Subject Key Identifier: 
                9D:44:AA:2B:9B:4C:66:4C:20:C5:32:B2:EA:08:13:13:69:17:49:B1
            X509v3 Authority Key Identifier: 
                keyid:FF:8B:FC:A5:69:36:2F:62:3B:D4:1B:ED:58:2F:E9:77:3D:29:81:83

            Authority Information Access: 
                CA Issuers - URI:http://url-for-aia/Root.cer

            X509v3 CRL Distribution Points: 

                Full Name:
                  URI:http://url-for-crl/Root.crl

            X509v3 Key Usage: critical
                Certificate Sign, CRL Sign
            X509v3 Basic Constraints: critical
                CA:TRUE
    Signature Algorithm: sha256WithRSAEncryption
         3d:87:69:07:ec:59:26:d6:b8:c0:dc:83:7f:0b:c1:56:68:d6:
         2e:ec:87:3a:10:5c:0b:6d:ad:49:6d:06:d6:09:5b:c6:a8:6a:
         75:4e:a0:26:98:81:09:1b:e1:33:d1:f9:bd:4f:85:72:db:58:
         4e:08:cc:39:31:01:63:28:51:0a:58:de:77:4e:3b:c6:61:de:
         a6:5f:af:58:3b:2c:18:8c:f6:e9:51:9a:50:74:7d:f0:3c:4a:
         60:44:0c:56:51:80:fd:e9:7c:d2:40:eb:e0:c8:08:77:f1:11:
         90:ae:40:c5:71:57:a2:70:98:f4:35:07:d2:94:b1:7a:c0:a0:
         6d:0a:cb:87:5a:ad:65:32:50:88:12:83:24:5f:2a:68:05:8a:
         87:02:b9:cf:ed:52:d9:be:d5:43:97:39:69:e0:0d:13:3c:f3:
         86:fe:da:51:46:d5:92:b3:ea:da:eb:75:ad:e9:71:ae:6d:66:
         2d:71:52:07:49:df:d4:ea:6e:64:81:92:2b:65:ce:70:58:93:
         dc:e1:14:ab:5d:b8:35:36:eb:14:64:19:d8:11:8d:a7:01:9d:
         6b:e5:19:f5:a6:af:f4:ae:05:9e:6b:6d:30:e1:ea:81:db:48:
         87:e2:5b:55:23:5d:c1:1f:b4:86:ec:0a:e4:1d:08:e4:e6:25:
         08:9c:30:aa
-----BEGIN CERTIFICATE-----
MIIDeDCCAmCgAwIBAgIUFopfsQHI9EW9qoxO+Qzb5mhFRnUwDQYJKoZIhvcNAQEL
BQAwDzENMAsGA1UEAwwEUm9vdDAeFw0xODAzMTAxMjAwMDBaFw0yMTAxMDExMjAw
MDBaMA8xDTALBgNVBAoeBABPADEwggEiMA0GCSqGSIb3DQEBAQUAA4IBDwAwggEK
AoIBAQDVrIAUudJ4rUPIUWk+mH+9qFejZSgZbUTlal33wjHtTmap8dKdNra5mD/Y
VNLpdzr7n9XJ+cnfXrfaNEL2y+Nm4Ldagpt3IA+xFx4qcGLSZ5ugVPIbpJ8Gt7uv
Wm9VsX74IMvt5FXYGMtPDsPEXRP8/dexHMVYgc/pVnhneKr+BimeND5L/n7sIhYV
1ivDbhcjQhsoLiETMYuKMyOiZ/YjvPJom3GSkn8jCVOWZzz+woGInwBVk02z5wIB
E0hLNBJFbkhqiCEz/1oDSVaiaWSXpFMOkHOExrgosFvAZ4X9miXyzw55JHgggPAs
rkaOxc8pvn/1fXNtqgsQWU/WRvG/AgMBAAGjgcswgcgwHQYDVR0OBBYEFJ1Eqiub
TGZMIMUysuoIExNpF0mxMB8GA1UdIwQYMBaAFP+L/KVpNi9iO9Qb7Vgv6Xc9KYGD
MDcGCCsGAQUFBwEBBCswKTAnBggrBgEFBQcwAoYbaHR0cDovL3VybC1mb3ItYWlh
L1Jvb3QuY2VyMCwGA1UdHwQlMCMwIaAfoB2GG2h0dHA6Ly91cmwtZm9yLWNybC9S
b290LmNybDAOBgNVHQ8BAf8EBAMCAQYwDwYDVR0TAQH/BAUwAwEB/zANBgkqhkiG
9w0BAQsFAAOCAQEAPYdpB+xZJta4wNyDfwvBVmjWLuyHOhBcC22tSW0G1glbxqhq
dU6gJpiBCRvhM9H5vU+FcttYTgjMOTEBYyhRCljed047xmHepl+vWDssGIz26VGa
UHR98DxKYEQMVlGA/el80kDr4MgId/ERkK5AxXFXonCY9DUH0pSxesCgbQrLh1qt
ZTJQiBKDJF8qaAWKhwK5z+1S2b7VQ5c5aeANEzzzhv7aUUbVkrPq2ut1relxrm1m
LXFSB0nf1OpuZIGSK2XOcFiT3OEUq124NTbrFGQZ2BGNpwGda+UZ9aav9K4Fnmtt
MOHqgdtIh+JbVSNdwR+0huwK5B0I5OYlCJwwqg==
-----END CERTIFICATE-----
