Certificate:
    Data:
        Version: 3 (0x2)
        Serial Number:
            16:8a:5f:b1:01:c8:f4:45:bd:aa:8c:4e:f9:0c:db:e6:68:45:46:76
    Signature Algorithm: sha256WithRSAEncryption
        Issuer: CN=Root
        Validity
            Not Before: Mar 10 12:00:00 2018 GMT
            Not After : Jan  1 12:00:00 2021 GMT
        Subject: O=O1, O=O2
        Subject Public Key Info:
            Public Key Algorithm: rsaEncryption
                Public-Key: (2048 bit)
                Modulus:
                    00:d5:ac:80:14:b9:d2:78:ad:43:c8:51:69:3e:98:
                    7f:bd:a8:57:a3:65:28:19:6d:44:e5:6a:5d:f7:c2:
                    31:ed:4e:66:a9:f1:d2:9d:36:b6:b9:98:3f:d8:54:
                    d2:e9:77:3a:fb:9f:d5:c9:f9:c9:df:5e:b7:da:34:
                    42:f6:cb:e3:66:e0:b7:5a:82:9b:77:20:0f:b1:17:
                    1e:2a:70:62:d2:67:9b:a0:54:f2:1b:a4:9f:06:b7:
                    bb:af:5a:6f:55:b1:7e:f8:20:cb:ed:e4:55:d8:18:
                    cb:4f:0e:c3:c4:5d:13:fc:fd:d7:b1:1c:c5:58:81:
                    cf:e9:56:78:67:78:aa:fe:06:29:9e:34:3e:4b:fe:
                    7e:ec:22:16:15:d6:2b:c3:6e:17:23:42:1b:28:2e:
                    21:13:31:8b:8a:33:23:a2:67:f6:23:bc:f2:68:9b:
                    71:92:92:7f:23:09:53:96:67:3c:fe:c2:81:88:9f:
                    00:55:93:4d:b3:e7:02:01:13:48:4b:34:12:45:6e:
                    48:6a:88:21:33:ff:5a:03:49:56:a2:69:64:97:a4:
                    53:0e:90:73:84:c6:b8:28:b0:5b:c0:67:85:fd:9a:
                    25:f2:cf:0e:79:24:78:20:80:f0:2c:ae:46:8e:c5:
                    cf:29:be:7f:f5:7d:73:6d:aa:0b:10:59:4f:d6:46:
                    f1:bf
                Exponent: 65537 (0x10001)
        X509v3 extensions:
            X509v3 Subject Key Identifier: 
                9D:44:AA:2B:9B:4C:66:4C:20:C5:32:B2:EA:08:13:13:69:17:49:B1
            X509v3 Authority Key Identifier: 
                keyid:FF:8B:FC:A5:69:36:2F:62:3B:D4:1B:ED:58:2F:E9:77:3D:29:81:83

            Authority Information Access: 
                CA Issuers - URI:http://url-for-aia/Root.cer

            X509v3 CRL Distribution Points: 

                Full Name:
                  URI:http://url-for-crl/Root.crl

            X509v3 Key Usage: critical
                Certificate Sign, CRL Sign
            X509v3 Basic Constraints: critical
                CA:TRUE
    Signature Algorithm: sha256WithRSAEncryption
         bb:8f:c9:14:ad:02:be:2a:84:8a:c8:f3:e9:17:6b:cc:47:d6:
         35:ea:5c:71:b1:30:f1:73:0c:d7:f1:c4:11:fd:15:8f:93:44:
         fa:a8:5d:c8:b8:cb:e1:48:fe:c6:c5:a4:cc:31:3c:89:12:e7:
         b9:93:6d:a7:e7:7d:fd:14:50:0b:1e:e8:af:23:76:92:df:a6:
         23:ba:48:bd:64:ad:84:93:5f:fd:24:a1:1c:cf:1e:65:3c:da:
         86:d6:54:94:cc:be:f5:84:97:b1:23:55:56:7b:e0:a4:f5:87:
         9a:60:06:ca:ff:fd:81:05:d0:2f:f7:57:b2:26:22:3c:eb:ea:
         3f:71:fe:12:95:e7:5f:5b:18:68:3c:22:9a:9e:24:51:58:9e:
         d6:69:99:8e:d5:20:be:3f:fd:f3:59:c2:2a:a6:d3:22:4d:aa:
         4d:42:29:0a:9d:c4:d4:51:ee:92:ae:c8:af:0a:42:ca:80:12:
         28:3b:9a:f2:2d:41:1b:c4:d6:88:0a:cd:3c:ac:2f:d7:f0:e7:
         5b:c8:cb:92:1e:77:54:6d:08:60:09:fa:de:8b:25:bd:70:d7:
         a5:e1:d5:b9:4e:94:63:03:ba:c7:a6:da:15:28:1f:de:56:d9:
         ff:95:82:c8:fe:ea:2d:29:d7:0b:18:e0:cb:11:95:eb:58:6e:
         d1:10:63:b7
-----BEGIN CERTIFICATE-----
MIIDgTCCAmmgAwIBAgIUFopfsQHI9EW9qoxO+Qzb5mhFRnYwDQYJKoZIhvcNAQEL
BQAwDzENMAsGA1UEAwwEUm9vdDAeFw0xODAzMTAxMjAwMDBaFw0yMTAxMDExMjAw
MDBaMBgxFjAJBgNVBAoMAk8xMAkGA1UECgwCTzIwggEiMA0GCSqGSIb3DQEBAQUA
A4IBDwAwggEKAoIBAQDVrIAUudJ4rUPIUWk+mH+9qFejZSgZbUTlal33wjHtTmap
8dKdNra5mD/YVNLpdzr7n9XJ+cnfXrfaNEL2y+Nm4Ldagpt3IA+xFx4qcGLSZ5ug
VPIbpJ8Gt7uvWm9VsX74IMvt5FXYGMtPDsPEXRP8/dexHMVYgc/pVnhneKr+Bime
ND5L/n7sIhYV1ivDbhcjQhsoLiETMYuKMyOiZ/YjvPJom3GSkn8jCVOWZzz+woGI
nwBVk02z5wIBE0hLNBJFbkhqiCEz/1oDSVaiaWSXpFMOkHOExrgosFvAZ4X9miXy
zw55JHgggPAsrkaOxc8pvn/1fXNtqgsQWU/WRvG/AgMBAAGjgcswgcgwHQYDVR0O
BBYEFJ1EqiubTGZMIMUysuoIExNpF0mxMB8GA1UdIwQYMBaAFP+L/KVpNi9iO9Qb
7Vgv6Xc9KYGDMDcGCCsGAQUFBwEBBCswKTAnBggrBgEFBQcwAoYbaHR0cDovL3Vy
bC1mb3ItYWlhL1Jvb3QuY2VyMCwGA1UdHwQlMCMwIaAfoB2GG2h0dHA6Ly91cmwt
Zm9yLWNybC9Sb290LmNybDAOBgNVHQ8BAf8EBAMCAQYwDwYDVR0TAQH/BAUwAwEB
/zANBgkqhkiG9w0BAQsFAAOCAQEAu4/JFK0CviqEisjz6RdrzEfWNepccbEw8XMM
1/HEEf0Vj5NE+qhdyLjL4Uj+xsWkzDE8iRLnuZNtp+d9/RRQCx7oryN2kt+mI7pI
vWSthJNf/SShHM8eZTzahtZUlMy+9YSXsSNVVnvgpPWHmmAGyv/9gQXQL/dXsiYi
POvqP3H+EpXnX1sYaDwimp4kUVie1mmZjtUgvj/981nCKqbTIk2qTUIpCp3E1FHu
kq7IrwpCyoASKDua8i1BG8TWiArNPKwv1/DnW8jLkh53VG0IYAn63oslvXDXpeHV
uU6UYwO6x6baFSgf3lbZ/5WCyP7qLSnXCxjgyxGV61hu0RBjtw==
-----END CERTIFICATE-----
