Certificate:
    Data:
        Version: 3 (0x2)
        Serial Number:
            16:8a:5f:b1:01:c8:f4:45:bd:aa:8c:4e:f9:0c:db:e6:68:45:46:72
    Signature Algorithm: sha256WithRSAEncryption
        Issuer: CN=Root
        Validity
            Not Before: Mar 10 12:00:00 2018 GMT
            Not After : Jan  1 12:00:00 2021 GMT
        Subject: O=O1, O=O2
        Subject Public Key Info:
            Public Key Algorithm: rsaEncryption
                Public-Key: (2048 bit)
                Modulus:
                    00:d5:ac:80:14:b9:d2:78:ad:43:c8:51:69:3e:98:
                    7f:bd:a8:57:a3:65:28:19:6d:44:e5:6a:5d:f7:c2:
                    31:ed:4e:66:a9:f1:d2:9d:36:b6:b9:98:3f:d8:54:
                    d2:e9:77:3a:fb:9f:d5:c9:f9:c9:df:5e:b7:da:34:
                    42:f6:cb:e3:66:e0:b7:5a:82:9b:77:20:0f:b1:17:
                    1e:2a:70:62:d2:67:9b:a0:54:f2:1b:a4:9f:06:b7:
                    bb:af:5a:6f:55:b1:7e:f8:20:cb:ed:e4:55:d8:18:
                    cb:4f:0e:c3:c4:5d:13:fc:fd:d7:b1:1c:c5:58:81:
                    cf:e9:56:78:67:78:aa:fe:06:29:9e:34:3e:4b:fe:
                    7e:ec:22:16:15:d6:2b:c3:6e:17:23:42:1b:28:2e:
                    21:13:31:8b:8a:33:23:a2:67:f6:23:bc:f2:68:9b:
                    71:92:92:7f:23:09:53:96:67:3c:fe:c2:81:88:9f:
                    00:55:93:4d:b3:e7:02:01:13:48:4b:34:12:45:6e:
                    48:6a:88:21:33:ff:5a:03:49:56:a2:69:64:97:a4:
                    53:0e:90:73:84:c6:b8:28:b0:5b:c0:67:85:fd:9a:
                    25:f2:cf:0e:79:24:78:20:80:f0:2c:ae:46:8e:c5:
                    cf:29:be:7f:f5:7d:73:6d:aa:0b:10:59:4f:d6:46:
                    f1:bf
                Exponent: 65537 (0x10001)
        X509v3 extensions:
            X509v3 Subject Key Identifier: 
                9D:44:AA:2B:9B:4C:66:4C:20:C5:32:B2:EA:08:13:13:69:17:49:B1
            X509v3 Authority Key Identifier: 
                keyid:FF:8B:FC:A5:69:36:2F:62:3B:D4:1B:ED:58:2F:E9:77:3D:29:81:83

            Authority Information Access: 
                CA Issuers - URI:http://url-for-aia/Root.cer

            X509v3 CRL Distribution Points: 

                Full Name:
                  URI:http://url-for-crl/Root.crl

            X509v3 Key Usage: critical
                Certificate Sign, CRL Sign
            X509v3 Basic Constraints: critical
                CA:TRUE
    Signature Algorithm: sha256WithRSAEncryption
         87:2b:1d:b0:c0:6e:7b:a2:a7:4b:b2:6b:cd:0d:82:3e:fe:da:
         06:e0:a8:b9:54:be:6b:f9:b9:bc:fb:8c:6d:f1:b5:b1:c7:a3:
         d8:d0:d7:3f:7f:f1:f0:45:a3:a8:ae:44:38:ca:5c:19:f2:85:
         e0:05:2c:c5:68:cf:4e:20:bd:8b:59:12:68:58:03:4e:8a:cd:
         a9:be:c9:83:c3:23:c4:34:b3:63:93:5d:d1:ab:ae:b1:3b:f6:
         b6:68:a4:45:5a:27:e4:db:06:f3:9a:46:35:fe:f3:cd:2b:2d:
         23:b9:75:fe:37:b2:5b:28:2c:3a:49:c8:97:a1:7a:d4:16:4e:
         fb:d3:e0:62:a8:5c:13:11:93:dd:c3:72:54:ef:67:fa:27:22:
         ad:ba:e5:5c:00:8a:14:ad:c1:1f:6f:90:1c:e4:bf:c3:45:45:
         c6:71:95:f5:1e:f2:8a:2f:69:4e:85:e6:81:91:1a:d6:cd:69:
         5c:f7:51:b3:99:be:f4:1a:79:17:0c:70:ab:15:d8:c5:a0:3f:
         12:90:51:ef:17:e5:9f:77:f0:89:5f:0f:ae:46:5e:94:f7:e1:
         c7:08:f0:a7:86:70:44:aa:94:4c:50:0a:0f:2e:42:b0:02:70:
         1d:b1:51:d9:d1:17:6c:c8:7f:a3:3d:7e:95:79:cd:2e:d9:f6:
         9c:42:2f:d9
-----BEGIN CERTIFICATE-----
MIIDgzCCAmugAwIBAgIUFopfsQHI9EW9qoxO+Qzb5mhFRnIwDQYJKoZIhvcNAQEL
BQAwDzENMAsGA1UEAwwEUm9vdDAeFw0xODAzMTAxMjAwMDBaFw0yMTAxMDExMjAw
MDBaMBoxCzAJBgNVBAoMAk8xMQswCQYDVQQKDAJPMjCCASIwDQYJKoZIhvcNAQEB
BQADggEPADCCAQoCggEBANWsgBS50nitQ8hRaT6Yf72oV6NlKBltROVqXffCMe1O
Zqnx0p02trmYP9hU0ul3Ovuf1cn5yd9et9o0QvbL42bgt1qCm3cgD7EXHipwYtJn
m6BU8huknwa3u69ab1Wxfvggy+3kVdgYy08Ow8RdE/z917EcxViBz+lWeGd4qv4G
KZ40Pkv+fuwiFhXWK8NuFyNCGyguIRMxi4ozI6Jn9iO88mibcZKSfyMJU5ZnPP7C
gYifAFWTTbPnAgETSEs0EkVuSGqIITP/WgNJVqJpZJekUw6Qc4TGuCiwW8Bnhf2a
JfLPDnkkeCCA8CyuRo7Fzym+f/V9c22qCxBZT9ZG8b8CAwEAAaOByzCByDAdBgNV
HQ4EFgQUnUSqK5tMZkwgxTKy6ggTE2kXSbEwHwYDVR0jBBgwFoAU/4v8pWk2L2I7
1BvtWC/pdz0pgYMwNwYIKwYBBQUHAQEEKzApMCcGCCsGAQUFBzAChhtodHRwOi8v
dXJsLWZvci1haWEvUm9vdC5jZXIwLAYDVR0fBCUwIzAhoB+gHYYbaHR0cDovL3Vy
bC1mb3ItY3JsL1Jvb3QuY3JsMA4GA1UdDwEB/wQEAwIBBjAPBgNVHRMBAf8EBTAD
AQH/MA0GCSqGSIb3DQEBCwUAA4IBAQCHKx2wwG57oqdLsmvNDYI+/toG4Ki5VL5r
+bm8+4xt8bWxx6PY0Nc/f/HwRaOorkQ4ylwZ8oXgBSzFaM9OIL2LWRJoWANOis2p
vsmDwyPENLNjk13Rq66xO/a2aKRFWifk2wbzmkY1/vPNKy0juXX+N7JbKCw6SciX
oXrUFk770+BiqFwTEZPdw3JU72f6JyKtuuVcAIoUrcEfb5Ac5L/DRUXGcZX1HvKK
L2lOheaBkRrWzWlc91Gzmb70GnkXDHCrFdjFoD8SkFHvF+Wfd/CJXw+uRl6U9+HH
CPCnhnBEqpRMUAoPLkKwAnAdsVHZ0RdsyH+jPX6Vec0u2facQi/Z
-----END CERTIFICATE-----
