Certificate:
    Data:
        Version: 3 (0x2)
        Serial Number:
            16:8a:5f:b1:01:c8:f4:45:bd:aa:8c:4e:f9:0c:db:e6:68:45:46:77
    Signature Algorithm: sha256WithRSAEncryption
        Issuer: CN=Root
        Validity
            Not Before: Mar 10 12:00:00 2018 GMT
            Not After : Jan  1 12:00:00 2021 GMT
        Subject: CN=O1
        Subject Public Key Info:
            Public Key Algorithm: rsaEncryption
                Public-Key: (2048 bit)
                Modulus:
                    00:d5:ac:80:14:b9:d2:78:ad:43:c8:51:69:3e:98:
                    7f:bd:a8:57:a3:65:28:19:6d:44:e5:6a:5d:f7:c2:
                    31:ed:4e:66:a9:f1:d2:9d:36:b6:b9:98:3f:d8:54:
                    d2:e9:77:3a:fb:9f:d5:c9:f9:c9:df:5e:b7:da:34:
                    42:f6:cb:e3:66:e0:b7:5a:82:9b:77:20:0f:b1:17:
                    1e:2a:70:62:d2:67:9b:a0:54:f2:1b:a4:9f:06:b7:
                    bb:af:5a:6f:55:b1:7e:f8:20:cb:ed:e4:55:d8:18:
                    cb:4f:0e:c3:c4:5d:13:fc:fd:d7:b1:1c:c5:58:81:
                    cf:e9:56:78:67:78:aa:fe:06:29:9e:34:3e:4b:fe:
                    7e:ec:22:16:15:d6:2b:c3:6e:17:23:42:1b:28:2e:
                    21:13:31:8b:8a:33:23:a2:67:f6:23:bc:f2:68:9b:
                    71:92:92:7f:23:09:53:96:67:3c:fe:c2:81:88:9f:
                    00:55:93:4d:b3:e7:02:01:13:48:4b:34:12:45:6e:
                    48:6a:88:21:33:ff:5a:03:49:56:a2:69:64:97:a4:
                    53:0e:90:73:84:c6:b8:28:b0:5b:c0:67:85:fd:9a:
                    25:f2:cf:0e:79:24:78:20:80:f0:2c:ae:46:8e:c5:
                    cf:29:be:7f:f5:7d:73:6d:aa:0b:10:59:4f:d6:46:
                    f1:bf
                Exponent: 65537 (0x10001)
        X509v3 extensions:
            X509v3 Subject Key Identifier: 
                9D:44:AA:2B:9B:4C:66:4C:20:C5:32:B2:EA:08:13:13:69:17:49:B1
            X509v3 Authority Key Identifier: 
                keyid:FF:8B:FC:A5:69:36:2F:62:3B:D4:1B:ED:58:2F:E9:77:3D:29:81:83

            Authority Information Access: 
                CA Issuers - URI:http://url-for-aia/Root.cer

            X509v3 CRL Distribution Points: 

                Full Name:
                  URI:http://url-for-crl/Root.crl

            X509v3 Key Usage: critical
                Certificate Sign, CRL Sign
            X509v3 Basic Constraints: critical
                CA:TRUE
    Signature Algorithm: sha256WithRSAEncryption
         4f:64:36:ed:50:90:21:1f:40:3b:96:1f:3e:36:7f:3b:0c:9e:
         95:25:f7:35:e7:f8:4f:e0:63:a4:ba:bb:00:69:6e:a6:9c:46:
         9c:06:df:1c:80:58:92:2f:da:a5:a2:74:0d:59:79:0e:17:86:
         71:c6:bc:be:b5:af:39:ad:04:65:08:0d:81:25:56:ed:a1:6f:
         3c:80:9f:7f:9b:fd:d1:47:50:c8:33:16:0f:a2:34:ce:ca:c2:
         b2:ab:ce:20:a4:b8:05:8b:59:9b:58:f1:2a:4e:a6:37:9c:ce:
         2f:8d:da:0c:13:87:12:53:35:ed:8e:47:10:a0:45:09:b1:22:
         d3:0c:98:77:c1:31:82:78:2a:19:66:fc:2d:8e:d6:f8:15:4c:
         89:73:8f:15:8d:3e:a7:db:e8:11:f1:cb:74:23:ac:8d:f0:43:
         96:99:d6:8b:48:05:04:f3:4c:8e:b6:f6:19:0b:50:40:5c:f4:
         31:fc:61:01:a8:2a:af:df:e6:2a:38:4b:34:6a:6d:21:94:be:
         18:16:a7:f7:8e:ee:64:63:e4:79:45:51:5d:48:1b:60:a8:63:
         23:15:b0:a0:67:48:a8:7d:19:d0:21:86:1d:ca:fc:d3:25:15:
         be:52:be:38:fd:b0:90:0a:55:ac:32:d9:e4:d9:b0:c6:51:af:
         73:fc:0b:b4
-----BEGIN CERTIFICATE-----
MIIDdjCCAl6gAwIBAgIUFopfsQHI9EW9qoxO+Qzb5mhFRncwDQYJKoZIhvcNAQEL
BQAwDzENMAsGA1UEAwwEUm9vdDAeFw0xODAzMTAxMjAwMDBaFw0yMTAxMDExMjAw
MDBaMA0xCzAJBgNVBAMMAk8xMIIBIjANBgkqhkiG9w0BAQEFAAOCAQ8AMIIBCgKC
AQEA1ayAFLnSeK1DyFFpPph/vahXo2UoGW1E5Wpd98Ix7U5mqfHSnTa2uZg/2FTS
6Xc6+5/VyfnJ31632jRC9svjZuC3WoKbdyAPsRceKnBi0meboFTyG6SfBre7r1pv
VbF++CDL7eRV2BjLTw7DxF0T/P3XsRzFWIHP6VZ4Z3iq/gYpnjQ+S/5+7CIWFdYr
w24XI0IbKC4hEzGLijMjomf2I7zyaJtxkpJ/IwlTlmc8/sKBiJ8AVZNNs+cCARNI
SzQSRW5IaoghM/9aA0lWomlkl6RTDpBzhMa4KLBbwGeF/Zol8s8OeSR4IIDwLK5G
jsXPKb5/9X1zbaoLEFlP1kbxvwIDAQABo4HLMIHIMB0GA1UdDgQWBBSdRKorm0xm
TCDFMrLqCBMTaRdJsTAfBgNVHSMEGDAWgBT/i/ylaTYvYjvUG+1YL+l3PSmBgzA3
BggrBgEFBQcBAQQrMCkwJwYIKwYBBQUHMAKGG2h0dHA6Ly91cmwtZm9yLWFpYS9S
b290LmNlcjAsBgNVHR8EJTAjMCGgH6AdhhtodHRwOi8vdXJsLWZvci1jcmwvUm9v
dC5jcmwwDgYDVR0PAQH/BAQDAgEGMA8GA1UdEwEB/wQFMAMBAf8wDQYJKoZIhvcN
AQELBQADggEBAE9kNu1QkCEfQDuWHz42fzsMnpUl9zXn+E/gY6S6uwBpbqacRpwG
3xyAWJIv2qWidA1ZeQ4XhnHGvL61rzmtBGUIDYElVu2hbzyAn3+b/dFHUMgzFg+i
NM7KwrKrziCkuAWLWZtY8SpOpjeczi+N2gwThxJTNe2ORxCgRQmxItMMmHfBMYJ4
Khlm/C2O1vgVTIlzjxWNPqfb6BHxy3QjrI3wQ5aZ1otIBQTzTI629hkLUEBc9DH8
YQGoKq/f5io4SzRqbSGUvhgWp/eO7mRj5HlFUV1IG2CoYyMVsKBnSKh9GdAhhh3K
/NMlFb5Svjj9sJAKVawy2eTZsMZRr3P8C7Q=
-----END CERTIFICATE-----
