Certificate:
    Data:
        Version: 3 (0x2)
        Serial Number:
            16:8a:5f:b1:01:c8:f4:45:bd:aa:8c:4e:f9:0c:db:e6:68:45:46:74
    Signature Algorithm: sha256WithRSAEncryption
        Issuer: CN=Root
        Validity
            Not Before: Mar 10 12:00:00 2018 GMT
            Not After : Jan  1 12:00:00 2021 GMT
        Subject: O=O3
        Subject Public Key Info:
            Public Key Algorithm: rsaEncryption
                Public-Key: (2048 bit)
                Modulus:
                    00:d5:ac:80:14:b9:d2:78:ad:43:c8:51:69:3e:98:
                    7f:bd:a8:57:a3:65:28:19:6d:44:e5:6a:5d:f7:c2:
                    31:ed:4e:66:a9:f1:d2:9d:36:b6:b9:98:3f:d8:54:
                    d2:e9:77:3a:fb:9f:d5:c9:f9:c9:df:5e:b7:da:34:
                    42:f6:cb:e3:66:e0:b7:5a:82:9b:77:20:0f:b1:17:
                    1e:2a:70:62:d2:67:9b:a0:54:f2:1b:a4:9f:06:b7:
                    bb:af:5a:6f:55:b1:7e:f8:20:cb:ed:e4:55:d8:18:
                    cb:4f:0e:c3:c4:5d:13:fc:fd:d7:b1:1c:c5:58:81:
                    cf:e9:56:78:67:78:aa:fe:06:29:9e:34:3e:4b:fe:
                    7e:ec:22:16:15:d6:2b:c3:6e:17:23:42:1b:28:2e:
                    21:13:31:8b:8a:33:23:a2:67:f6:23:bc:f2:68:9b:
                    71:92:92:7f:23:09:53:96:67:3c:fe:c2:81:88:9f:
                    00:55:93:4d:b3:e7:02:01:13:48:4b:34:12:45:6e:
                    48:6a:88:21:33:ff:5a:03:49:56:a2:69:64:97:a4:
                    53:0e:90:73:84:c6:b8:28:b0:5b:c0:67:85:fd:9a:
                    25:f2:cf:0e:79:24:78:20:80:f0:2c:ae:46:8e:c5:
                    cf:29:be:7f:f5:7d:73:6d:aa:0b:10:59:4f:d6:46:
                    f1:bf
                Exponent: 65537 (0x10001)
        X509v3 extensions:
            X509v3 Subject Key Identifier: 
                9D:44:AA:2B:9B:4C:66:4C:20:C5:32:B2:EA:08:13:13:69:17:49:B1
            X509v3 Authority Key Identifier: 
                keyid:FF:8B:FC:A5:69:36:2F:62:3B:D4:1B:ED:58:2F:E9:77:3D:29:81:83

            Authority Information Access: 
                CA Issuers - URI:http://url-for-aia/Root.cer

            X509v3 CRL Distribution Points: 

                Full Name:
                  URI:http://url-for-crl/Root.crl

            X509v3 Key Usage: critical
                Certificate Sign, CRL Sign
            X509v3 Basic Constraints: critical
                CA:TRUE
    Signature Algorithm: sha256WithRSAEncryption
         af:33:bf:46:90:ed:05:ba:e8:66:86:2d:90:44:a6:9b:b1:8b:
         c9:d0:b5:52:53:62:92:d4:72:60:20:b5:df:66:b4:93:7f:04:
         1c:48:29:96:c2:b6:c4:dc:4b:e5:82:b5:4e:76:85:a4:7c:ed:
         fb:09:b9:a5:08:e4:4a:4d:1c:60:9a:f0:d4:08:4b:f6:b3:fd:
         45:42:3b:e4:fb:8b:f8:7a:fc:e4:81:7a:07:69:1d:78:6f:49:
         5e:8e:fc:85:1d:3b:b6:ca:85:a5:d1:f4:76:5a:42:f5:05:91:
         43:da:01:2b:dd:d7:bd:bc:e1:b7:86:4d:ce:0f:23:1a:14:9d:
         5e:47:ab:36:fa:36:75:2c:6e:72:3b:37:82:5c:39:81:47:9f:
         08:3b:47:79:ce:84:1a:b6:75:9b:5f:94:b8:12:32:4d:fb:98:
         4a:f4:93:54:ee:15:d6:e7:ad:b6:de:cb:bb:83:ec:94:b5:18:
         a5:c8:9c:1a:46:79:8c:22:5f:ac:e8:88:32:1b:bb:28:5d:4b:
         61:09:c1:ad:fc:89:7e:0e:f3:4a:4f:75:55:39:1d:aa:fe:0e:
         9f:ec:36:b1:15:18:be:94:b1:b2:a5:c4:92:a6:49:7e:91:54:
         3a:aa:11:8a:fd:1a:3e:57:f2:d2:2a:e2:a1:85:56:6c:6a:1c:
         a5:ab:e2:3c
-----BEGIN CERTIFICATE-----
MIIDdjCCAl6gAwIBAgIUFopfsQHI9EW9qoxO+Qzb5mhFRnQwDQYJKoZIhvcNAQEL
BQAwDzENMAsGA1UEAwwEUm9vdDAeFw0xODAzMTAxMjAwMDBaFw0yMTAxMDExMjAw
MDBaMA0xCzAJBgNVBAoMAk8zMIIBIjANBgkqhkiG9w0BAQEFAAOCAQ8AMIIBCgKC
AQEA1ayAFLnSeK1DyFFpPph/vahXo2UoGW1E5Wpd98Ix7U5mqfHSnTa2uZg/2FTS
6Xc6+5/VyfnJ31632jRC9svjZuC3WoKbdyAPsRceKnBi0meboFTyG6SfBre7r1pv
VbF++CDL7eRV2BjLTw7DxF0T/P3XsRzFWIHP6VZ4Z3iq/gYpnjQ+S/5+7CIWFdYr
w24XI0IbKC4hEzGLijMjomf2I7zyaJtxkpJ/IwlTlmc8/sKBiJ8AVZNNs+cCARNI
SzQSRW5IaoghM/9aA0lWomlkl6RTDpBzhMa4KLBbwGeF/Zol8s8OeSR4IIDwLK5G
jsXPKb5/9X1zbaoLEFlP1kbxvwIDAQABo4HLMIHIMB0GA1UdDgQWBBSdRKorm0xm
TCDFMrLqCBMTaRdJsTAfBgNVHSMEGDAWgBT/i/ylaTYvYjvUG+1YL+l3PSmBgzA3
BggrBgEFBQcBAQQrMCkwJwYIKwYBBQUHMAKGG2h0dHA6Ly91cmwtZm9yLWFpYS9S
b290LmNlcjAsBgNVHR8EJTAjMCGgH6AdhhtodHRwOi8vdXJsLWZvci1jcmwvUm9v
dC5jcmwwDgYDVR0PAQH/BAQDAgEGMA8GA1UdEwEB/wQFMAMBAf8wDQYJKoZIhvcN
AQELBQADggEBAK8zv0aQ7QW66GaGLZBEppuxi8nQtVJTYpLUcmAgtd9mtJN/BBxI
KZbCtsTcS+WCtU52haR87fsJuaUI5EpNHGCa8NQIS/az/UVCO+T7i/h6/OSBegdp
HXhvSV6O/IUdO7bKhaXR9HZaQvUFkUPaASvd17284beGTc4PIxoUnV5Hqzb6NnUs
bnI7N4JcOYFHnwg7R3nOhBq2dZtflLgSMk37mEr0k1TuFdbnrbbey7uD7JS1GKXI
nBpGeYwiX6zoiDIbuyhdS2EJwa38iX4O80pPdVU5Har+Dp/sNrEVGL6UsbKlxJKm
SX6RVDqqEYr9Gj5X8tIq4qGFVmxqHKWr4jw=
-----END CERTIFICATE-----
