Certificate:
    Data:
        Version: 3 (0x2)
        Serial Number:
            16:8a:5f:b1:01:c8:f4:45:bd:aa:8c:4e:f9:0c:db:e6:68:45:46:7e
    Signature Algorithm: sha256WithRSAEncryption
        Issuer: CN=Root
        Validity
            Not Before: Mar 10 12:00:00 2018 GMT
            Not After : Jan  1 12:00:00 2021 GMT
        Subject: CN=O1
        Subject Public Key Info:
            Public Key Algorithm: rsaEncryption
                Public-Key: (2048 bit)
                Modulus:
                    00:ef:91:eb:bb:0f:0d:aa:35:93:6d:ed:c4:67:bd:
                    0f:d3:5e:d0:da:8c:7a:83:30:e5:92:af:fa:2a:84:
                    66:97:f1:2d:93:96:40:49:b2:6a:b8:c3:8c:ea:21:
                    8b:c5:6a:d9:91:e9:05:6c:e2:2e:48:56:84:33:ef:
                    a4:1f:e2:32:ec:d1:9a:61:56:e4:66:1f:f5:ef:51:
                    09:a1:85:e6:cf:d5:ce:2e:64:a1:02:a9:bf:50:7e:
                    a0:ac:fc:6a:71:6a:61:4b:08:03:34:a6:5c:0a:29:
                    03:a7:23:4c:1e:90:15:ae:cb:97:ad:47:1b:18:8a:
                    c4:71:3b:a6:f4:34:ff:d4:a2:54:67:c2:ed:67:85:
                    29:e8:de:4a:41:d2:49:57:e9:18:43:ec:d9:17:47:
                    f4:71:68:fe:5c:ac:8f:55:12:dd:80:60:8f:b6:e6:
                    da:34:fa:fb:52:57:17:ad:49:26:76:5a:f0:c0:7a:
                    0a:a3:05:ca:74:68:fa:99:77:ca:59:98:28:0b:2b:
                    76:1c:51:0e:1c:d1:d3:4b:06:5e:03:f7:b6:d6:3c:
                    a0:bc:73:ec:e0:75:ae:04:3f:af:24:57:6a:ad:7e:
                    75:65:98:73:8d:9c:14:86:17:d0:27:5f:eb:3b:8d:
                    f3:28:9f:49:e4:2a:18:fb:a5:52:4e:97:46:d1:95:
                    6f:97
                Exponent: 65537 (0x10001)
        X509v3 extensions:
            X509v3 Subject Key Identifier: 
                54:7C:D9:94:2E:53:89:05:22:9C:6D:7C:CB:79:32:C4:33:1D:89:67
            X509v3 Authority Key Identifier: 
                keyid:FF:8B:FC:A5:69:36:2F:62:3B:D4:1B:ED:58:2F:E9:77:3D:29:81:83

            Authority Information Access: 
                CA Issuers - URI:http://url-for-aia/Root.cer

            X509v3 CRL Distribution Points: 

                Full Name:
                  URI:http://url-for-crl/Root.crl

            X509v3 Key Usage: critical
                Digital Signature, Key Encipherment
            X509v3 Extended Key Usage: 
                TLS Web Server Authentication, TLS Web Client Authentication
    Signature Algorithm: sha256WithRSAEncryption
         c3:50:94:8d:16:0b:dc:f9:3c:76:8e:82:99:c9:ce:87:a2:c6:
         29:8d:e1:33:64:44:6a:c4:77:85:c7:40:ad:44:cb:44:bc:34:
         8c:92:5f:90:e5:ca:c9:60:5f:44:c6:b9:f6:d4:06:3f:27:b8:
         02:7e:70:84:ab:2a:e0:37:de:cc:db:03:e2:60:92:93:b6:c0:
         f7:89:bc:aa:f3:ec:2c:20:db:17:0b:35:3e:93:c8:81:fe:c1:
         7a:d2:d7:13:2b:f0:28:5d:e4:0c:26:ac:02:9d:25:84:b5:a4:
         78:a5:50:70:a9:b6:78:b3:ac:5a:57:2a:c0:4e:a6:86:f1:72:
         cf:c2:66:25:11:a6:9a:1d:1a:84:73:22:f3:44:fb:83:cf:23:
         9a:0a:62:6f:80:9a:7e:39:d8:7e:7d:18:4c:4c:82:53:c1:c4:
         44:36:16:25:68:4c:f6:f4:c1:3e:e5:17:b9:f8:fa:3b:c5:90:
         0f:be:f0:03:a6:ba:04:29:12:e0:05:f7:b1:d6:7b:83:9f:42:
         23:c4:13:93:a2:17:c8:c9:aa:24:2b:4c:61:24:4c:d6:a4:c5:
         c9:92:92:2f:c6:cf:83:99:8b:7d:d7:51:62:f3:fe:4c:d5:98:
         24:4d:70:0a:f0:c4:cb:4f:6a:77:23:f9:75:a3:af:29:f8:34:
         cd:61:f3:8c
-----BEGIN CERTIFICATE-----
MIIDhDCCAmygAwIBAgIUFopfsQHI9EW9qoxO+Qzb5mhFRn4wDQYJKoZIhvcNAQEL
BQAwDzENMAsGA1UEAwwEUm9vdDAeFw0xODAzMTAxMjAwMDBaFw0yMTAxMDExMjAw
MDBaMA0xCzAJBgNVBAMMAk8xMIIBIjANBgkqhkiG9w0BAQEFAAOCAQ8AMIIBCgKC
AQEA75Hruw8NqjWTbe3EZ70P017Q2ox6gzDlkq/6KoRml/Etk5ZASbJquMOM6iGL
xWrZkekFbOIuSFaEM++kH+Iy7NGaYVbkZh/171EJoYXmz9XOLmShAqm/UH6grPxq
cWphSwgDNKZcCikDpyNMHpAVrsuXrUcbGIrEcTum9DT/1KJUZ8LtZ4Up6N5KQdJJ
V+kYQ+zZF0f0cWj+XKyPVRLdgGCPtubaNPr7UlcXrUkmdlrwwHoKowXKdGj6mXfK
WZgoCyt2HFEOHNHTSwZeA/e21jygvHPs4HWuBD+vJFdqrX51ZZhzjZwUhhfQJ1/r
O43zKJ9J5CoY+6VSTpdG0ZVvlwIDAQABo4HZMIHWMB0GA1UdDgQWBBRUfNmULlOJ
BSKcbXzLeTLEMx2JZzAfBgNVHSMEGDAWgBT/i/ylaTYvYjvUG+1YL+l3PSmBgzA3
BggrBgEFBQcBAQQrMCkwJwYIKwYBBQUHMAKGG2h0dHA6Ly91cmwtZm9yLWFpYS9S
b290LmNlcjAsBgNVHR8EJTAjMCGgH6AdhhtodHRwOi8vdXJsLWZvci1jcmwvUm9v
dC5jcmwwDgYDVR0PAQH/BAQDAgWgMB0GA1UdJQQWMBQGCCsGAQUFBwMBBggrBgEF
BQcDAjANBgkqhkiG9w0BAQsFAAOCAQEAw1CUjRYL3Pk8do6CmcnOh6LGKY3hM2RE
asR3hcdArUTLRLw0jJJfkOXKyWBfRMa59tQGPye4An5whKsq4DfezNsD4mCSk7bA
94m8qvPsLCDbFws1PpPIgf7BetLXEyvwKF3kDCasAp0lhLWkeKVQcKm2eLOsWlcq
wE6mhvFyz8JmJRGmmh0ahHMi80T7g88jmgpib4CafjnYfn0YTEyCU8HERDYWJWhM
9vTBPuUXufj6O8WQD77wA6a6BCkS4AX3sdZ7g59CI8QTk6IXyMmqJCtMYSRM1qTF
yZKSL8bPg5mLfddRYvP+TNWYJE1wCvDEy09qdyP5daOvKfg0zWHzjA==
-----END CERTIFICATE-----
