Certificate:
    Data:
        Version: 3 (0x2)
        Serial Number:
            16:8a:5f:b1:01:c8:f4:45:bd:aa:8c:4e:f9:0c:db:e6:68:45:46:79
    Signature Algorithm: sha256WithRSAEncryption
        Issuer: CN=Root
        Validity
            Not Before: Mar 10 12:00:00 2018 GMT
            Not After : Jan  1 12:00:00 2021 GMT
        Subject: CN=\x00N\x00C\x002
        Subject Public Key Info:
            Public Key Algorithm: rsaEncryption
                Public-Key: (2048 bit)
                Modulus:
                    00:d5:ac:80:14:b9:d2:78:ad:43:c8:51:69:3e:98:
                    7f:bd:a8:57:a3:65:28:19:6d:44:e5:6a:5d:f7:c2:
                    31:ed:4e:66:a9:f1:d2:9d:36:b6:b9:98:3f:d8:54:
                    d2:e9:77:3a:fb:9f:d5:c9:f9:c9:df:5e:b7:da:34:
                    42:f6:cb:e3:66:e0:b7:5a:82:9b:77:20:0f:b1:17:
                    1e:2a:70:62:d2:67:9b:a0:54:f2:1b:a4:9f:06:b7:
                    bb:af:5a:6f:55:b1:7e:f8:20:cb:ed:e4:55:d8:18:
                    cb:4f:0e:c3:c4:5d:13:fc:fd:d7:b1:1c:c5:58:81:
                    cf:e9:56:78:67:78:aa:fe:06:29:9e:34:3e:4b:fe:
                    7e:ec:22:16:15:d6:2b:c3:6e:17:23:42:1b:28:2e:
                    21:13:31:8b:8a:33:23:a2:67:f6:23:bc:f2:68:9b:
                    71:92:92:7f:23:09:53:96:67:3c:fe:c2:81:88:9f:
                    00:55:93:4d:b3:e7:02:01:13:48:4b:34:12:45:6e:
                    48:6a:88:21:33:ff:5a:03:49:56:a2:69:64:97:a4:
                    53:0e:90:73:84:c6:b8:28:b0:5b:c0:67:85:fd:9a:
                    25:f2:cf:0e:79:24:78:20:80:f0:2c:ae:46:8e:c5:
                    cf:29:be:7f:f5:7d:73:6d:aa:0b:10:59:4f:d6:46:
                    f1:bf
                Exponent: 65537 (0x10001)
        X509v3 extensions:
            X509v3 Subject Key Identifier: 
                9D:44:AA:2B:9B:4C:66:4C:20:C5:32:B2:EA:08:13:13:69:17:49:B1
            X509v3 Authority Key Identifier: 
                keyid:FF:8B:FC:A5:69:36:2F:62:3B:D4:1B:ED:58:2F:E9:77:3D:29:81:83

            Authority Information Access: 
                CA Issuers - URI:http://url-for-aia/Root.cer

            X509v3 CRL Distribution Points: 

                Full Name:
                  URI:http://url-for-crl/Root.crl

            X509v3 Key Usage: critical
                Certificate Sign, CRL Sign
            X509v3 Basic Constraints: critical
                CA:TRUE
    Signature Algorithm: sha256WithRSAEncryption
         17:4d:18:fc:61:dc:82:42:27:b8:ff:fb:28:ff:25:88:bf:ce:
         13:81:07:ef:3f:f8:65:a9:c7:53:ef:93:4b:b5:10:db:aa:3d:
         a9:fe:c6:ca:94:7b:9c:7b:50:a3:7e:0c:6e:d7:da:d2:5e:9a:
         7e:aa:2c:b7:49:20:f7:4f:14:4c:2f:c4:36:94:3d:87:be:a5:
         4f:74:65:89:c1:e5:3d:ea:4d:bd:26:ef:ed:6e:87:7a:7b:f9:
         89:a8:74:01:ee:f2:ff:54:9d:cb:7c:05:90:06:a7:cb:ab:99:
         44:87:2e:7b:b4:a1:fa:2e:1f:b9:80:21:00:2c:fb:2d:62:24:
         e1:c3:24:94:58:8d:5a:ae:24:32:d4:77:6f:ab:13:3e:93:28:
         02:5b:05:98:b7:9e:95:69:6d:b2:d5:e3:b7:d2:39:e5:0b:8a:
         56:ad:0b:36:04:1e:3f:74:f5:55:d8:1a:1c:78:00:bb:83:8a:
         f9:8e:15:ef:35:b9:a9:61:69:ae:c9:f6:4e:60:6a:7a:f8:57:
         32:67:ce:e4:1d:ee:81:5e:a3:78:e0:4f:b2:61:2b:09:37:2a:
         21:4a:71:d6:d1:c2:85:f0:ac:2c:8b:7a:c0:eb:b1:40:5c:3f:
         c2:96:7b:b8:94:1d:b5:2d:1d:72:c4:a3:8a:db:56:38:74:1e:
         b7:c7:8a:60
-----BEGIN CERTIFICATE-----
MIIDejCCAmKgAwIBAgIUFopfsQHI9EW9qoxO+Qzb5mhFRnkwDQYJKoZIhvcNAQEL
BQAwDzENMAsGA1UEAwwEUm9vdDAeFw0xODAzMTAxMjAwMDBaFw0yMTAxMDExMjAw
MDBaMBExDzANBgNVBAMeBgBOAEMAMjCCASIwDQYJKoZIhvcNAQEBBQADggEPADCC
AQoCggEBANWsgBS50nitQ8hRaT6Yf72oV6NlKBltROVqXffCMe1OZqnx0p02trmY
P9hU0ul3Ovuf1cn5yd9et9o0QvbL42bgt1qCm3cgD7EXHipwYtJnm6BU8huknwa3
u69ab1Wxfvggy+3kVdgYy08Ow8RdE/z917EcxViBz+lWeGd4qv4GKZ40Pkv+fuwi
FhXWK8NuFyNCGyguIRMxi4ozI6Jn9iO88mibcZKSfyMJU5ZnPP7CgYifAFWTTbPn
AgETSEs0EkVuSGqIITP/WgNJVqJpZJekUw6Qc4TGuCiwW8Bnhf2aJfLPDnkkeCCA
8CyuRo7Fzym+f/V9c22qCxBZT9ZG8b8CAwEAAaOByzCByDAdBgNVHQ4EFgQUnUSq
K5tMZkwgxTKy6ggTE2kXSbEwHwYDVR0jBBgwFoAU/4v8pWk2L2I71BvtWC/pdz0p
gYMwNwYIKwYBBQUHAQEEKzApMCcGCCsGAQUFBzAChhtodHRwOi8vdXJsLWZvci1h
aWEvUm9vdC5jZXIwLAYDVR0fBCUwIzAhoB+gHYYbaHR0cDovL3VybC1mb3ItY3Js
L1Jvb3QuY3JsMA4GA1UdDwEB/wQEAwIBBjAPBgNVHRMBAf8EBTADAQH/MA0GCSqG
SIb3DQEBCwUAA4IBAQAXTRj8YdyCQie4//so/yWIv84TgQfvP/hlqcdT75NLtRDb
qj2p/sbKlHuce1Cjfgxu19rSXpp+qiy3SSD3TxRML8Q2lD2HvqVPdGWJweU96k29
Ju/tbod6e/mJqHQB7vL/VJ3LfAWQBqfLq5lEhy57tKH6Lh+5gCEALPstYiThwySU
WI1ariQy1HdvqxM+kygCWwWYt56VaW2y1eO30jnlC4pWrQs2BB4/dPVV2BoceAC7
g4r5jhXvNbmpYWmuyfZOYGp6+FcyZ87kHe6BXqN44E+yYSsJNyohSnHW0cKF8Kws
i3rA67FAXD/Clnu4lB21LR1yxKOK21Y4dB63x4pg
-----END CERTIFICATE-----
