Certificate:
    Data:
        Version: 3 (0x2)
        Serial Number:
            16:8a:5f:b1:01:c8:f4:45:bd:aa:8c:4e:f9:0c:db:e6:68:45:46:7d
    Signature Algorithm: sha256WithRSAEncryption
        Issuer: CN=Root
        Validity
            Not Before: Mar 10 12:00:00 2018 GMT
            Not After : Jan  1 12:00:00 2021 GMT
        Subject: CN=NC6
        Subject Public Key Info:
            Public Key Algorithm: rsaEncryption
                Public-Key: (2048 bit)
                Modulus:
                    00:d5:ac:80:14:b9:d2:78:ad:43:c8:51:69:3e:98:
                    7f:bd:a8:57:a3:65:28:19:6d:44:e5:6a:5d:f7:c2:
                    31:ed:4e:66:a9:f1:d2:9d:36:b6:b9:98:3f:d8:54:
                    d2:e9:77:3a:fb:9f:d5:c9:f9:c9:df:5e:b7:da:34:
                    42:f6:cb:e3:66:e0:b7:5a:82:9b:77:20:0f:b1:17:
                    1e:2a:70:62:d2:67:9b:a0:54:f2:1b:a4:9f:06:b7:
                    bb:af:5a:6f:55:b1:7e:f8:20:cb:ed:e4:55:d8:18:
                    cb:4f:0e:c3:c4:5d:13:fc:fd:d7:b1:1c:c5:58:81:
                    cf:e9:56:78:67:78:aa:fe:06:29:9e:34:3e:4b:fe:
                    7e:ec:22:16:15:d6:2b:c3:6e:17:23:42:1b:28:2e:
                    21:13:31:8b:8a:33:23:a2:67:f6:23:bc:f2:68:9b:
                    71:92:92:7f:23:09:53:96:67:3c:fe:c2:81:88:9f:
                    00:55:93:4d:b3:e7:02:01:13:48:4b:34:12:45:6e:
                    48:6a:88:21:33:ff:5a:03:49:56:a2:69:64:97:a4:
                    53:0e:90:73:84:c6:b8:28:b0:5b:c0:67:85:fd:9a:
                    25:f2:cf:0e:79:24:78:20:80:f0:2c:ae:46:8e:c5:
                    cf:29:be:7f:f5:7d:73:6d:aa:0b:10:59:4f:d6:46:
                    f1:bf
                Exponent: 65537 (0x10001)
        X509v3 extensions:
            X509v3 Subject Key Identifier: 
                9D:44:AA:2B:9B:4C:66:4C:20:C5:32:B2:EA:08:13:13:69:17:49:B1
            X509v3 Authority Key Identifier: 
                keyid:FF:8B:FC:A5:69:36:2F:62:3B:D4:1B:ED:58:2F:E9:77:3D:29:81:83

            Authority Information Access: 
                CA Issuers - URI:http://url-for-aia/Root.cer

            X509v3 CRL Distribution Points: 

                Full Name:
                  URI:http://url-for-crl/Root.crl

            X509v3 Key Usage: critical
                Certificate Sign, CRL Sign
            X509v3 Basic Constraints: critical
                CA:TRUE
            X509v3 Name Constraints: critical
                Permitted:
                  DirName:O = O2
                  DirName:O = O1
                  DirName:O = O3

    Signature Algorithm: sha256WithRSAEncryption
         1e:53:f0:09:0d:e9:b3:07:30:3b:df:9d:81:85:81:2d:9f:98:
         97:65:eb:b3:79:4a:f5:cb:6c:ca:63:e8:7f:40:90:47:1c:31:
         64:13:0f:ca:b0:9d:36:ef:31:eb:05:db:91:ea:a0:28:51:dd:
         16:87:6a:10:ac:01:2f:cb:8c:d1:88:47:b3:b7:9f:56:00:fc:
         25:82:21:d1:c5:79:37:c8:53:41:60:60:f6:95:35:30:c8:c8:
         2d:94:91:f1:9d:43:a5:0d:e2:48:bd:46:68:8a:d6:23:c2:56:
         11:74:a0:d9:90:7e:c3:a9:5e:2a:af:b5:d2:87:ba:24:8e:d3:
         31:39:74:8c:ea:dc:d3:e9:91:26:4f:22:66:db:11:ae:e2:8b:
         d4:fa:39:fc:87:8c:2b:2d:46:57:1f:04:1d:e3:d2:98:a8:2d:
         52:1a:a9:cd:41:39:c6:c1:d4:b2:e6:c6:3c:15:ca:bc:95:5d:
         8a:5f:e6:96:dc:aa:4b:f9:38:33:ac:ac:02:f1:d4:67:a9:4e:
         a3:b7:9f:39:e5:51:12:e1:99:fd:36:23:c4:4a:4a:d0:64:cf:
         88:b4:bf:0f:71:6e:cd:d4:a9:c0:f5:d9:5d:b6:ed:b4:29:3c:
         d4:45:33:4d:05:8b:e0:3b:e7:c1:57:b5:d3:7c:0e:23:55:a6:
         90:b5:a9:2d
-----BEGIN CERTIFICATE-----
MIIDwjCCAqqgAwIBAgIUFopfsQHI9EW9qoxO+Qzb5mhFRn0wDQYJKoZIhvcNAQEL
BQAwDzENMAsGA1UEAwwEUm9vdDAeFw0xODAzMTAxMjAwMDBaFw0yMTAxMDExMjAw
MDBaMA4xDDAKBgNVBAMMA05DNjCCASIwDQYJKoZIhvcNAQEBBQADggEPADCCAQoC
ggEBANWsgBS50nitQ8hRaT6Yf72oV6NlKBltROVqXffCMe1OZqnx0p02trmYP9hU
0ul3Ovuf1cn5yd9et9o0QvbL42bgt1qCm3cgD7EXHipwYtJnm6BU8huknwa3u69a
b1Wxfvggy+3kVdgYy08Ow8RdE/z917EcxViBz+lWeGd4qv4GKZ40Pkv+fuwiFhXW
K8NuFyNCGyguIRMxi4ozI6Jn9iO88mibcZKSfyMJU5ZnPP7CgYifAFWTTbPnAgET
SEs0EkVuSGqIITP/WgNJVqJpZJekUw6Qc4TGuCiwW8Bnhf2aJfLPDnkkeCCA8Cyu
Ro7Fzym+f/V9c22qCxBZT9ZG8b8CAwEAAaOCARUwggERMB0GA1UdDgQWBBSdRKor
m0xmTCDFMrLqCBMTaRdJsTAfBgNVHSMEGDAWgBT/i/ylaTYvYjvUG+1YL+l3PSmB
gzA3BggrBgEFBQcBAQQrMCkwJwYIKwYBBQUHMAKGG2h0dHA6Ly91cmwtZm9yLWFp
YS9Sb290LmNlcjAsBgNVHR8EJTAjMCGgH6AdhhtodHRwOi8vdXJsLWZvci1jcmwv
Um9vdC5jcmwwDgYDVR0PAQH/BAQDAgEGMA8GA1UdEwEB/wQFMAMBAf8wRwYDVR0e
AQH/BD0wO6A5MBGkDzANMQswCQYDVQQKDAJPMjARpA8wDTELMAkGA1UECgwCTzEw
EaQPMA0xCzAJBgNVBAoMAk8zMA0GCSqGSIb3DQEBCwUAA4IBAQAeU/AJDemzBzA7
352BhYEtn5iXZeuzeUr1y2zKY+h/QJBHHDFkEw/KsJ027zHrBduR6qAoUd0Wh2oQ
rAEvy4zRiEezt59WAPwlgiHRxXk3yFNBYGD2lTUwyMgtlJHxnUOlDeJIvUZoitYj
wlYRdKDZkH7DqV4qr7XSh7okjtMxOXSM6tzT6ZEmTyJm2xGu4ovU+jn8h4wrLUZX
HwQd49KYqC1SGqnNQTnGwdSy5sY8Fcq8lV2KX+aW3KpL+TgzrKwC8dRnqU6jt585
5VES4Zn9NiPESkrQZM+ItL8PcW7N1KnA9dldtu20KTzURTNNBYvgO+fBV7XTfA4j
VaaQtakt
-----END CERTIFICATE-----
