Certificate:
    Data:
        Version: 3 (0x2)
        Serial Number:
            16:8a:5f:b1:01:c8:f4:45:bd:aa:8c:4e:f9:0c:db:e6:68:45:46:71
    Signature Algorithm: sha256WithRSAEncryption
        Issuer: CN=Root
        Validity
            Not Before: Mar 10 12:00:00 2018 GMT
            Not After : Jan  1 12:00:00 2021 GMT
        Subject: CN=Root
        Subject Public Key Info:
            Public Key Algorithm: rsaEncryption
                Public-Key: (2048 bit)
                Modulus:
                    00:d6:58:29:fc:69:44:34:39:a5:91:06:35:ac:de:
                    31:2a:f7:6f:f0:1a:c7:21:6e:83:cb:d2:5d:06:c1:
                    9f:52:4d:ee:46:07:35:10:28:b5:5c:68:29:87:22:
                    8e:c6:f7:7d:ed:89:05:28:9c:d1:6a:80:c6:44:fb:
                    5c:bc:09:0c:37:f1:25:b7:3c:f9:01:84:72:03:dd:
                    3b:02:5a:cb:5f:65:00:27:8c:ec:25:8b:2b:b0:8b:
                    9b:60:3f:b6:b9:ba:53:68:88:3c:30:46:32:fa:d9:
                    a9:ce:aa:55:b5:ca:3e:51:e7:98:5e:d1:1b:0c:75:
                    d1:a0:7e:1f:44:ff:b4:62:c4:b4:d3:d9:5d:6d:71:
                    b2:c1:0a:59:b4:fc:60:74:4f:a3:df:64:7d:66:5e:
                    4b:2a:9e:4e:e0:16:c5:aa:a3:0c:b9:60:a3:38:70:
                    93:cc:ce:43:4b:6e:2b:60:b5:1f:c1:ff:ee:85:be:
                    62:db:63:47:87:e1:3e:a2:4b:57:d6:ce:6e:f8:ce:
                    7d:d3:8f:db:e1:2d:0a:57:39:0f:dd:6e:dd:4c:8a:
                    05:7b:c9:97:e4:9e:0a:ff:99:c2:41:29:7a:06:b9:
                    3c:f1:02:fe:3b:85:b5:ef:4a:ae:85:8c:75:66:62:
                    72:0f:37:b4:aa:80:d5:21:43:70:04:e4:3e:00:f4:
                    af:39
                Exponent: 65537 (0x10001)
        X509v3 extensions:
            X509v3 Subject Key Identifier: 
                FF:8B:FC:A5:69:36:2F:62:3B:D4:1B:ED:58:2F:E9:77:3D:29:81:83
            X509v3 Authority Key Identifier: 
                keyid:FF:8B:FC:A5:69:36:2F:62:3B:D4:1B:ED:58:2F:E9:77:3D:29:81:83

            Authority Information Access: 
                CA Issuers - URI:http://url-for-aia/Root.cer

            X509v3 CRL Distribution Points: 

                Full Name:
                  URI:http://url-for-crl/Root.crl

            X509v3 Key Usage: critical
                Certificate Sign, CRL Sign
            X509v3 Basic Constraints: critical
                CA:TRUE
    Signature Algorithm: sha256WithRSAEncryption
         88:2f:16:f0:61:2e:d1:6a:07:02:ef:3a:9b:41:3e:bb:9c:6d:
         3e:fe:ce:5d:86:28:84:42:05:43:49:4d:ce:5c:13:42:e6:8d:
         39:84:67:cc:99:f6:a1:e1:4a:e8:27:4d:c7:09:df:5e:88:a0:
         0a:f4:8a:34:22:58:39:27:a2:d1:15:d2:84:ba:64:14:f8:88:
         d0:ba:ed:07:dc:d4:84:89:8d:4a:7f:65:7a:d4:fc:72:b9:9e:
         85:77:fb:e4:b5:b2:86:b2:f2:f3:08:dc:bc:c6:e8:09:71:d2:
         f1:ae:3e:5a:2f:9c:bb:e0:d0:e0:55:1b:91:84:03:dc:88:46:
         be:ba:7c:7f:25:6c:80:b2:bf:88:ea:96:a8:10:6d:05:62:8b:
         a9:94:6b:cd:18:f7:0a:19:d6:ba:5e:85:b4:2c:08:39:be:bc:
         1f:d6:8a:d4:a8:35:7b:0f:c0:de:02:78:68:cc:ec:3a:3f:fe:
         57:b4:87:17:04:6c:67:6d:56:39:39:da:27:6a:2b:17:2c:55:
         26:67:21:40:13:5a:8e:92:02:89:4f:89:69:5f:87:44:ad:e3:
         17:71:8e:78:77:8a:4b:aa:0d:d2:d1:0b:b2:4b:45:3c:e4:8e:
         95:ff:5e:da:b8:c4:0d:96:f6:d9:46:04:2d:45:16:d7:49:79:
         b0:19:0c:b8
-----BEGIN CERTIFICATE-----
MIIDeDCCAmCgAwIBAgIUFopfsQHI9EW9qoxO+Qzb5mhFRnEwDQYJKoZIhvcNAQEL
BQAwDzENMAsGA1UEAwwEUm9vdDAeFw0xODAzMTAxMjAwMDBaFw0yMTAxMDExMjAw
MDBaMA8xDTALBgNVBAMMBFJvb3QwggEiMA0GCSqGSIb3DQEBAQUAA4IBDwAwggEK
AoIBAQDWWCn8aUQ0OaWRBjWs3jEq92/wGschboPL0l0GwZ9STe5GBzUQKLVcaCmH
Io7G933tiQUonNFqgMZE+1y8CQw38SW3PPkBhHID3TsCWstfZQAnjOwliyuwi5tg
P7a5ulNoiDwwRjL62anOqlW1yj5R55he0RsMddGgfh9E/7RixLTT2V1tcbLBClm0
/GB0T6PfZH1mXksqnk7gFsWqowy5YKM4cJPMzkNLbitgtR/B/+6FvmLbY0eH4T6i
S1fWzm74zn3Tj9vhLQpXOQ/dbt1MigV7yZfkngr/mcJBKXoGuTzxAv47hbXvSq6F
jHVmYnIPN7SqgNUhQ3AE5D4A9K85AgMBAAGjgcswgcgwHQYDVR0OBBYEFP+L/KVp
Ni9iO9Qb7Vgv6Xc9KYGDMB8GA1UdIwQYMBaAFP+L/KVpNi9iO9Qb7Vgv6Xc9KYGD
MDcGCCsGAQUFBwEBBCswKTAnBggrBgEFBQcwAoYbaHR0cDovL3VybC1mb3ItYWlh
L1Jvb3QuY2VyMCwGA1UdHwQlMCMwIaAfoB2GG2h0dHA6Ly91cmwtZm9yLWNybC9S
b290LmNybDAOBgNVHQ8BAf8EBAMCAQYwDwYDVR0TAQH/BAUwAwEB/zANBgkqhkiG
9w0BAQsFAAOCAQEAiC8W8GEu0WoHAu86m0E+u5xtPv7OXYYohEIFQ0lNzlwTQuaN
OYRnzJn2oeFK6CdNxwnfXoigCvSKNCJYOSei0RXShLpkFPiI0LrtB9zUhImNSn9l
etT8crmehXf75LWyhrLy8wjcvMboCXHS8a4+Wi+cu+DQ4FUbkYQD3IhGvrp8fyVs
gLK/iOqWqBBtBWKLqZRrzRj3ChnWul6FtCwIOb68H9aK1Kg1ew/A3gJ4aMzsOj/+
V7SHFwRsZ21WOTnaJ2orFyxVJmchQBNajpICiU+JaV+HRK3jF3GOeHeKS6oN0tEL
sktFPOSOlf9e2rjEDZb22UYELUUW10l5sBkMuA==
-----END CERTIFICATE-----
