Certificate:
    Data:
        Version: 3 (0x2)
        Serial Number:
            79:c6:70:41:b4:62:32:04:39:4d:d0:42:fb:6e:96:80
    Signature Algorithm: ecdsa-with-SHA384
        Issuer: C=US, O=VeriSign, Inc., OU=VeriSign Trust Network, OU=(c) 2007 VeriSign, Inc. - For authorized use only, CN=VeriSign Class 3 Public Primary Certification Authority - G4
        Validity
            Not Before: Nov  6 00:00:00 2017 GMT
            Not After : Nov  5 23:59:59 2022 GMT
        Subject: C=US, O=DigiCert Inc, OU=www.digicert.com, CN=DigiCert Transition ECC Root
        Subject Public Key Info:
            Public Key Algorithm: id-ecPublicKey
                Public-Key: (256 bit)
                pub: 
                    04:5a:ff:46:dc:c9:ae:bd:2c:e7:1c:56:97:e4:fa:
                    eb:d5:c6:ff:75:53:23:5e:c6:b0:7d:ac:ac:57:3a:
                    9f:94:50:07:0d:f1:f3:4d:51:0d:7d:fd:88:41:82:
                    3f:1c:7f:fb:c3:1e:fa:f6:eb:d4:37:ff:fe:18:9d:
                    01:83:2a:80:3a
                ASN1 OID: prime256v1
        X509v3 extensions:
            X509v3 Subject Key Identifier: 
                CF:37:24:66:74:19:7E:7F:A3:64:E4:BD:99:36:34:8B:7D:FB:42:BE
            X509v3 Basic Constraints: critical
                CA:TRUE
            X509v3 Certificate Policies: 
                Policy: X509v3 Any Policy
                  CPS: https://d.symcb.com/cps
                  User Notice:
                    Explicit Text: https://d.symcb.com/rpa

            X509v3 CRL Distribution Points: 

                Full Name:
                  URI:http://s.symcb.com/pca3-g4.crl

            X509v3 Key Usage: critical
                Digital Signature, Certificate Sign, CRL Sign
            Authority Information Access: 
                OCSP - URI:http://s.symcd.com

            X509v3 Authority Key Identifier: 
                keyid:B3:16:91:FD:EE:A6:6E:E4:B5:2E:49:8F:87:78:81:80:EC:E5:B1:B5

    Signature Algorithm: ecdsa-with-SHA384
         30:64:02:30:58:17:b0:44:e7:e3:c4:09:ba:de:bd:db:84:d9:
         ca:b1:71:fb:68:5d:56:7a:68:d8:3a:ce:e3:a0:af:02:5e:80:
         7b:60:f0:97:de:0d:13:26:35:50:fe:ba:84:bd:d9:1b:02:30:
         08:2c:18:cf:8f:72:e1:b5:dc:2a:91:76:09:00:bf:80:3a:f0:
         79:4b:29:7f:89:c2:db:b6:4d:26:c6:6d:94:14:a6:40:78:9a:
         ac:ab:af:96:52:63:f9:51:31:52:f6:f8
-----BEGIN CERTIFICATE-----
MIIDdzCCAv6gAwIBAgIQecZwQbRiMgQ5TdBC+26WgDAKBggqhkjOPQQDAzCByjEL
MAkGA1UEBhMCVVMxFzAVBgNVBAoTDlZlcmlTaWduLCBJbmMuMR8wHQYDVQQLExZW
ZXJpU2lnbiBUcnVzdCBOZXR3b3JrMTowOAYDVQQLEzEoYykgMjAwNyBWZXJpU2ln
biwgSW5jLiAtIEZvciBhdXRob3JpemVkIHVzZSBvbmx5MUUwQwYDVQQDEzxWZXJp
U2lnbiBDbGFzcyAzIFB1YmxpYyBQcmltYXJ5IENlcnRpZmljYXRpb24gQXV0aG9y
aXR5IC0gRzQwHhcNMTcxMTA2MDAwMDAwWhcNMjIxMTA1MjM1OTU5WjBmMQswCQYD
VQQGEwJVUzEVMBMGA1UEChMMRGlnaUNlcnQgSW5jMRkwFwYDVQQLExB3d3cuZGln
aWNlcnQuY29tMSUwIwYDVQQDExxEaWdpQ2VydCBUcmFuc2l0aW9uIEVDQyBSb290
MFkwEwYHKoZIzj0CAQYIKoZIzj0DAQcDQgAEWv9G3MmuvSznHFaX5Prr1cb/dVMj
XsawfaysVzqflFAHDfHzTVENff2IQYI/HH/7wx769uvUN//+GJ0BgyqAOqOCAScw
ggEjMB0GA1UdDgQWBBTPNyRmdBl+f6Nk5L2ZNjSLfftCvjAPBgNVHRMBAf8EBTAD
AQH/MF8GA1UdIARYMFYwVAYEVR0gADBMMCMGCCsGAQUFBwIBFhdodHRwczovL2Qu
c3ltY2IuY29tL2NwczAlBggrBgEFBQcCAjAZDBdodHRwczovL2Quc3ltY2IuY29t
L3JwYTAvBgNVHR8EKDAmMCSgIqAghh5odHRwOi8vcy5zeW1jYi5jb20vcGNhMy1n
NC5jcmwwDgYDVR0PAQH/BAQDAgGGMC4GCCsGAQUFBwEBBCIwIDAeBggrBgEFBQcw
AYYSaHR0cDovL3Muc3ltY2QuY29tMB8GA1UdIwQYMBaAFLMWkf3upm7ktS5Jj4d4
gYDs5bG1MAoGCCqGSM49BAMDA2cAMGQCMFgXsETn48QJut6924TZyrFx+2hdVnpo
2DrO46CvAl6Ae2Dwl94NEyY1UP66hL3ZGwIwCCwYz49y4bXcKpF2CQC/gDrweUsp
f4nC27ZNJsZtlBSmQHiarKuvllJj+VExUvb4
-----END CERTIFICATE-----
