Certificate:
    Data:
        Version: 3 (0x2)
        Serial Number:
            78:ae:a4:31:c1:5c:eb:75:7b:0d:8a:61:0a:74:8e:67
    Signature Algorithm: sha256WithRSAEncryption
        Issuer: C=US, O=VeriSign, Inc., OU=VeriSign Trust Network, OU=(c) 2006 VeriSign, Inc. - For authorized use only, CN=VeriSign Class 3 Public Primary Certification Authority - G5
        Validity
            Not Before: Nov  6 00:00:00 2017 GMT
            Not After : Nov  5 23:59:59 2022 GMT
        Subject: C=US, O=DigiCert Inc, OU=www.digicert.com, CN=DigiCert Transition RSA Root
        Subject Public Key Info:
            Public Key Algorithm: rsaEncryption
                Public-Key: (2048 bit)
                Modulus:
                    00:b0:3e:d8:46:63:32:df:49:1f:61:6d:ae:df:c9:
                    7f:2b:b1:63:a1:a7:e6:46:35:34:0e:d4:a5:3d:12:
                    af:04:6a:d5:f8:ba:a7:65:93:ec:66:c5:ca:eb:68:
                    01:24:69:1f:af:b0:a3:59:af:3c:5b:39:44:29:60:
                    6e:8b:41:98:49:21:d8:18:13:d3:41:55:fe:aa:22:
                    7e:a7:51:4a:a6:d0:23:5f:73:84:a2:9c:b4:cb:17:
                    d0:65:24:87:e9:80:cb:b7:3c:a1:10:f5:97:b5:0d:
                    9d:ec:f7:ba:5b:a3:0b:65:eb:12:75:a9:46:74:0d:
                    80:d7:08:13:93:21:57:c6:38:3d:a8:4b:3b:0b:6f:
                    18:e5:b3:4c:f7:c2:cd:18:f9:58:2d:03:33:1b:fc:
                    16:dd:90:4e:c2:1f:37:9c:d6:7b:61:96:f1:c5:26:
                    87:52:e3:e2:a4:f8:15:e5:4c:22:e9:09:2b:95:d1:
                    93:f9:3a:39:76:74:2a:0b:80:be:be:0e:d3:10:0b:
                    e2:e1:48:a6:24:05:69:3d:17:fd:c7:37:21:b2:b0:
                    e3:77:47:39:87:01:e0:4e:db:23:e8:f9:39:9f:36:
                    46:66:23:1e:c7:22:51:44:3f:33:c5:f5:76:a9:f8:
                    06:b0:79:cc:ee:41:dc:71:8e:0d:50:8e:b0:3c:48:
                    ab:f5
                Exponent: 65537 (0x10001)
        X509v3 extensions:
            X509v3 Subject Key Identifier: 
                90:47:8A:1B:84:D3:A0:DF:A4:24:D6:19:B4:17:F5:21:A3:B2:9B:A8
            X509v3 Basic Constraints: critical
                CA:TRUE
            X509v3 Certificate Policies: 
                Policy: X509v3 Any Policy
                  CPS: https://d.symcb.com/cps
                  User Notice:
                    Explicit Text: https://d.symcb.com/rpa

            X509v3 CRL Distribution Points: 

                Full Name:
                  URI:http://s.symcb.com/pca3-g5.crl

            X509v3 Key Usage: critical
                Digital Signature, Certificate Sign, CRL Sign
            Authority Information Access: 
                OCSP - URI:http://s.symcd.com

            X509v3 Authority Key Identifier: 
                keyid:7F:D3:65:A7:C2:DD:EC:BB:F0:30:09:F3:43:39:FA:02:AF:33:31:33

    Signature Algorithm: sha256WithRSAEncryption
         89:c4:a9:58:d9:16:5d:80:c5:9d:b0:ec:c5:56:48:5a:51:29:
         5a:01:89:94:56:cd:cd:2a:b9:b0:16:b7:4b:ea:17:69:f0:7c:
         4c:28:fe:73:85:4f:3c:f9:85:83:99:11:43:f7:5a:e0:a2:f8:
         43:8c:9a:2c:e3:83:f8:05:50:99:dc:f0:e7:ef:36:3b:36:48:
         ff:5d:a3:18:d0:cb:c1:41:68:18:f1:f6:8f:0c:97:1c:4c:2a:
         69:17:dc:3f:24:20:5a:e4:26:61:c8:fe:e5:92:10:bf:4d:9e:
         ec:f2:6e:ca:67:1e:46:b8:e3:f8:b0:69:e7:51:cf:26:cf:05:
         91:cf:1d:b7:c6:3a:89:41:78:2b:6e:eb:13:7a:4b:9d:da:88:
         0e:bd:53:08:8d:38:4d:17:5c:65:c9:42:d3:9b:35:36:e2:7e:
         60:df:e6:c3:24:e3:d0:fc:8b:36:1e:5a:38:bc:d4:c7:8c:3b:
         07:35:64:22:46:de:66:8a:34:5b:50:c5:42:95:68:dd:0c:84:
         be:2c:e4:e4:2e:42:00:60:f9:1e:d7:0d:3d:40:a6:f0:3b:5d:
         9b:17:07:b7:f2:30:47:e4:8b:06:d7:a2:06:37:2b:3c:a2:a9:
         82:e8:0d:a3:e3:1b:4c:e5:91:43:fe:3d:78:b9:03:8a:e0:d6:
         c1:05:a8:2c
-----BEGIN CERTIFICATE-----
MIIE5DCCA8ygAwIBAgIQeK6kMcFc63V7DYphCnSOZzANBgkqhkiG9w0BAQsFADCB
yjELMAkGA1UEBhMCVVMxFzAVBgNVBAoTDlZlcmlTaWduLCBJbmMuMR8wHQYDVQQL
ExZWZXJpU2lnbiBUcnVzdCBOZXR3b3JrMTowOAYDVQQLEzEoYykgMjAwNiBWZXJp
U2lnbiwgSW5jLiAtIEZvciBhdXRob3JpemVkIHVzZSBvbmx5MUUwQwYDVQQDEzxW
ZXJpU2lnbiBDbGFzcyAzIFB1YmxpYyBQcmltYXJ5IENlcnRpZmljYXRpb24gQXV0
aG9yaXR5IC0gRzUwHhcNMTcxMTA2MDAwMDAwWhcNMjIxMTA1MjM1OTU5WjBmMQsw
CQYDVQQGEwJVUzEVMBMGA1UEChMMRGlnaUNlcnQgSW5jMRkwFwYDVQQLExB3d3cu
ZGlnaWNlcnQuY29tMSUwIwYDVQQDExxEaWdpQ2VydCBUcmFuc2l0aW9uIFJTQSBS
b290MIIBIjANBgkqhkiG9w0BAQEFAAOCAQ8AMIIBCgKCAQEAsD7YRmMy30kfYW2u
38l/K7FjoafmRjU0DtSlPRKvBGrV+LqnZZPsZsXK62gBJGkfr7CjWa88WzlEKWBu
i0GYSSHYGBPTQVX+qiJ+p1FKptAjX3OEopy0yxfQZSSH6YDLtzyhEPWXtQ2d7Pe6
W6MLZesSdalGdA2A1wgTkyFXxjg9qEs7C28Y5bNM98LNGPlYLQMzG/wW3ZBOwh83
nNZ7YZbxxSaHUuPipPgV5Uwi6QkrldGT+To5dnQqC4C+vg7TEAvi4UimJAVpPRf9
xzchsrDjd0c5hwHgTtsj6Pk5nzZGZiMexyJRRD8zxfV2qfgGsHnM7kHccY4NUI6w
PEir9QIDAQABo4IBJzCCASMwHQYDVR0OBBYEFJBHihuE06DfpCTWGbQX9SGjspuo
MA8GA1UdEwEB/wQFMAMBAf8wXwYDVR0gBFgwVjBUBgRVHSAAMEwwIwYIKwYBBQUH
AgEWF2h0dHBzOi8vZC5zeW1jYi5jb20vY3BzMCUGCCsGAQUFBwICMBkMF2h0dHBz
Oi8vZC5zeW1jYi5jb20vcnBhMC8GA1UdHwQoMCYwJKAioCCGHmh0dHA6Ly9zLnN5
bWNiLmNvbS9wY2EzLWc1LmNybDAOBgNVHQ8BAf8EBAMCAYYwLgYIKwYBBQUHAQEE
IjAgMB4GCCsGAQUFBzABhhJodHRwOi8vcy5zeW1jZC5jb20wHwYDVR0jBBgwFoAU
f9Nlp8Ld7LvwMAnzQzn6Aq8zMTMwDQYJKoZIhvcNAQELBQADggEBAInEqVjZFl2A
xZ2w7MVWSFpRKVoBiZRWzc0qubAWt0vqF2nwfEwo/nOFTzz5hYOZEUP3WuCi+EOM
mizjg/gFUJnc8OfvNjs2SP9doxjQy8FBaBjx9o8MlxxMKmkX3D8kIFrkJmHI/uWS
EL9NnuzybspnHka44/iwaedRzybPBZHPHbfGOolBeCtu6xN6S53aiA69UwiNOE0X
XGXJQtObNTbifmDf5sMk49D8izYeWji81MeMOwc1ZCJG3maKNFtQxUKVaN0MhL4s
5OQuQgBg+R7XDT1ApvA7XZsXB7fyMEfkiwbXogY3KzyiqYLoDaPjG0zlkUP+PXi5
A4rg1sEFqCw=
-----END CERTIFICATE-----
