[Created by: generate-chains.py]

Certificate chain where the intermediate used MD5 to sign the target
certificate.

Certificate:
    Data:
        Version: 3 (0x2)
        Serial Number:
            2f:d9:89:cf:ff:cd:53:9f:5d:75:66:a5:53:93:03:4c:a0:64:cf:c3
    Signature Algorithm: md5WithRSAEncryption
        Issuer: CN=Intermediate
        Validity
            Not Before: Mar 10 12:00:00 2018 GMT
            Not After : Jan  1 12:00:00 2021 GMT
        Subject: CN=Target
        Subject Public Key Info:
            Public Key Algorithm: rsaEncryption
                Public-Key: (2048 bit)
                Modulus:
                    00:a7:b8:bc:92:74:b1:bc:8f:5b:d5:3c:81:a6:8f:
                    d2:bf:7e:b8:f6:cd:49:5b:fd:18:ee:07:5c:32:cf:
                    f1:7f:51:06:98:53:91:16:4e:c0:2c:34:16:b8:12:
                    9d:10:5d:72:42:ec:00:e9:6b:4a:fb:17:bf:3a:35:
                    f9:a7:f5:50:df:80:bf:d9:6a:3d:74:93:4b:ce:13:
                    5f:57:3c:a1:60:55:10:e9:32:0f:84:ce:c2:d7:51:
                    be:16:b1:54:3f:86:5b:9e:9c:ec:5e:10:87:10:08:
                    ac:78:ee:da:97:5a:af:52:84:de:8d:2d:e4:91:30:
                    09:a1:e7:2b:8b:8b:b8:70:a0:43:0f:db:15:48:a5:
                    c2:94:af:f9:82:e4:86:57:d3:1c:e8:0c:71:11:06:
                    fe:f5:5e:ad:a6:26:d3:51:0b:f2:f0:5c:99:05:fe:
                    51:a1:d7:4a:e6:7f:f3:54:eb:82:07:f9:3a:83:bb:
                    c4:b5:41:07:df:76:95:9a:ed:04:34:4a:1f:bd:91:
                    19:78:6b:e0:24:4c:cc:ad:21:80:61:20:03:96:1c:
                    e8:d8:ca:e9:bc:ee:5f:93:eb:f8:48:ee:93:01:eb:
                    c3:a4:83:6b:3d:03:0e:fa:a7:aa:22:4d:66:40:8b:
                    ff:e4:9e:39:4f:b1:13:1f:ee:cd:70:21:10:26:96:
                    9b:03
                Exponent: 65537 (0x10001)
        X509v3 extensions:
            X509v3 Subject Key Identifier: 
                BF:EB:3A:84:42:B2:07:20:64:80:5F:29:BC:F8:61:4A:F6:05:54:0D
            X509v3 Authority Key Identifier: 
                keyid:EE:50:7B:40:71:90:A0:CE:F2:A3:28:0D:EC:1C:F2:D9:7E:A8:F3:0E

            Authority Information Access: 
                CA Issuers - URI:http://url-for-aia/Intermediate.cer

            X509v3 CRL Distribution Points: 

                Full Name:
                  URI:http://url-for-crl/Intermediate.crl

            X509v3 Key Usage: critical
                Digital Signature, Key Encipherment
            X509v3 Extended Key Usage: 
                TLS Web Server Authentication, TLS Web Client Authentication
    Signature Algorithm: md5WithRSAEncryption
         64:d8:73:f6:3d:5c:4f:de:25:4d:52:85:85:56:40:1c:e3:68:
         5d:05:1a:f8:19:b8:c5:ac:d0:1e:82:af:7d:f2:48:9e:48:fd:
         28:bd:d6:76:27:e9:a5:ea:bf:55:1a:da:9b:6b:21:32:c6:65:
         74:6a:aa:ea:09:7a:fc:19:f1:34:50:f5:94:f4:e2:81:95:ce:
         fb:68:62:b0:5f:c6:15:ba:9a:e9:ea:6a:bc:42:e1:76:17:a4:
         ba:3a:b9:5b:d7:58:30:64:21:df:43:84:23:17:20:dc:dd:d1:
         da:6b:76:4c:58:cf:c0:7e:74:5b:97:82:73:d3:e5:07:82:58:
         4c:0c:2e:b4:cf:82:03:9a:76:1a:0b:e5:67:92:be:8c:cc:e4:
         d4:03:a9:41:fa:aa:af:55:f8:5a:fc:53:34:0b:f8:b6:be:61:
         a7:22:75:3c:5b:9b:74:e9:8c:0c:f2:34:73:8c:ac:c3:ad:13:
         16:1c:8e:fb:63:05:b4:88:2b:07:18:37:93:8e:bd:a1:cb:19:
         18:fe:7d:4f:3e:11:3b:9f:b0:0b:b2:1b:9b:bc:b2:0a:14:c8:
         40:cd:03:f3:60:88:e7:93:02:e2:62:18:5e:63:0f:6c:ef:99:
         ad:55:04:f3:d9:42:41:28:d7:e3:98:e5:fa:76:06:68:6c:ea:
         e9:10:ac:50
-----BEGIN CERTIFICATE-----
MIIDoDCCAoigAwIBAgIUL9mJz//NU59ddWalU5MDTKBkz8MwDQYJKoZIhvcNAQEE
BQAwFzEVMBMGA1UEAwwMSW50ZXJtZWRpYXRlMB4XDTE4MDMxMDEyMDAwMFoXDTIx
MDEwMTEyMDAwMFowETEPMA0GA1UEAwwGVGFyZ2V0MIIBIjANBgkqhkiG9w0BAQEF
AAOCAQ8AMIIBCgKCAQEAp7i8knSxvI9b1TyBpo/Sv3649s1JW/0Y7gdcMs/xf1EG
mFORFk7ALDQWuBKdEF1yQuwA6WtK+xe/OjX5p/VQ34C/2Wo9dJNLzhNfVzyhYFUQ
6TIPhM7C11G+FrFUP4ZbnpzsXhCHEAiseO7al1qvUoTejS3kkTAJoecri4u4cKBD
D9sVSKXClK/5guSGV9Mc6AxxEQb+9V6tpibTUQvy8FyZBf5RoddK5n/zVOuCB/k6
g7vEtUEH33aVmu0ENEofvZEZeGvgJEzMrSGAYSADlhzo2MrpvO5fk+v4SO6TAevD
pINrPQMO+qeqIk1mQIv/5J45T7ETH+7NcCEQJpabAwIDAQABo4HpMIHmMB0GA1Ud
DgQWBBS/6zqEQrIHIGSAXym8+GFK9gVUDTAfBgNVHSMEGDAWgBTuUHtAcZCgzvKj
KA3sHPLZfqjzDjA/BggrBgEFBQcBAQQzMDEwLwYIKwYBBQUHMAKGI2h0dHA6Ly91
cmwtZm9yLWFpYS9JbnRlcm1lZGlhdGUuY2VyMDQGA1UdHwQtMCswKaAnoCWGI2h0
dHA6Ly91cmwtZm9yLWNybC9JbnRlcm1lZGlhdGUuY3JsMA4GA1UdDwEB/wQEAwIF
oDAdBgNVHSUEFjAUBggrBgEFBQcDAQYIKwYBBQUHAwIwDQYJKoZIhvcNAQEEBQAD
ggEBAGTYc/Y9XE/eJU1ShYVWQBzjaF0FGvgZuMWs0B6Cr33ySJ5I/Si91nYn6aXq
v1Ua2ptrITLGZXRqquoJevwZ8TRQ9ZT04oGVzvtoYrBfxhW6munqarxC4XYXpLo6
uVvXWDBkId9DhCMXINzd0dprdkxYz8B+dFuXgnPT5QeCWEwMLrTPggOadhoL5WeS
vozM5NQDqUH6qq9V+Fr8UzQL+La+YacidTxbm3TpjAzyNHOMrMOtExYcjvtjBbSI
KwcYN5OOvaHLGRj+fU8+ETufsAuyG5u8sgoUyEDNA/NgiOeTAuJiGF5jD2zvma1V
BPPZQkEo1+OY5fp2Bmhs6ukQrFA=
-----END CERTIFICATE-----

Certificate:
    Data:
        Version: 3 (0x2)
        Serial Number:
            6e:60:d8:eb:62:e8:49:d5:85:e5:1c:23:ef:72:aa:9e:40:48:b4:9b
    Signature Algorithm: sha256WithRSAEncryption
        Issuer: CN=Root
        Validity
            Not Before: Mar 10 12:00:00 2018 GMT
            Not After : Jan  1 12:00:00 2021 GMT
        Subject: CN=Intermediate
        Subject Public Key Info:
            Public Key Algorithm: rsaEncryption
                Public-Key: (2048 bit)
                Modulus:
                    00:d9:cf:a3:72:11:43:a1:d1:78:59:5e:27:cb:ee:
                    f6:2e:52:4e:9d:79:d1:c4:1e:bd:bb:e9:d4:cb:5e:
                    95:9f:ba:0c:7c:aa:b3:1b:97:57:82:a9:6c:f1:e6:
                    89:4b:37:fc:68:8c:93:2b:c8:35:58:e4:f5:6a:c9:
                    9d:cc:a3:3f:25:98:a3:6f:81:6c:97:67:30:b8:7a:
                    ab:47:42:6a:7c:93:a1:c9:1d:3e:b9:02:fb:1c:71:
                    40:2d:9a:a3:46:35:5c:4e:db:a9:2d:9a:09:d6:d1:
                    9d:7c:99:93:a9:fd:25:98:90:ba:84:a7:74:bf:4f:
                    9a:8e:5b:a2:2e:6b:5d:23:c4:77:42:77:0b:8a:f4:
                    e1:55:21:66:18:43:a7:a6:08:41:99:42:cc:f3:1c:
                    90:93:21:12:5d:67:1d:af:fd:f0:f6:c1:ce:26:83:
                    85:02:6e:dc:ca:9a:d4:81:55:19:9c:57:a0:56:17:
                    4c:a7:1a:7b:f0:89:cf:9a:fd:27:56:9b:b6:24:00:
                    a4:8a:1b:82:5a:39:fc:3a:d1:e9:ae:03:0d:aa:8d:
                    95:c4:31:50:18:b5:0b:c5:4f:95:85:00:1d:de:e4:
                    d4:1f:fa:c3:90:12:47:d4:60:75:ca:5a:1b:37:22:
                    5a:21:14:21:89:8a:07:1b:10:5d:9f:35:b5:50:3f:
                    d2:29
                Exponent: 65537 (0x10001)
        X509v3 extensions:
            X509v3 Subject Key Identifier: 
                EE:50:7B:40:71:90:A0:CE:F2:A3:28:0D:EC:1C:F2:D9:7E:A8:F3:0E
            X509v3 Authority Key Identifier: 
                keyid:92:8E:AB:BC:5A:AD:A6:C8:EA:A3:7B:A6:23:5B:F4:4F:B0:FA:60:FA

            Authority Information Access: 
                CA Issuers - URI:http://url-for-aia/Root.cer

            X509v3 CRL Distribution Points: 

                Full Name:
                  URI:http://url-for-crl/Root.crl

            X509v3 Key Usage: critical
                Certificate Sign, CRL Sign
            X509v3 Basic Constraints: critical
                CA:TRUE
    Signature Algorithm: sha256WithRSAEncryption
         93:52:71:ce:06:a9:81:a4:a0:58:6c:50:55:e8:1a:0e:0b:40:
         35:67:58:a2:bc:20:f5:41:36:96:d1:ec:00:09:d3:6a:89:a7:
         7b:cb:3b:29:08:5c:4a:2f:d7:d5:16:3a:27:ac:48:4f:ed:61:
         ae:da:b2:46:97:7e:9c:16:8a:01:34:ce:03:0d:2a:6a:69:e0:
         01:db:3a:45:be:3d:55:7f:f7:b5:b2:f8:32:4c:04:07:6a:9a:
         99:29:87:49:2e:6d:e3:bc:fb:20:46:f1:6d:86:cc:c2:c7:e1:
         3d:01:55:5c:00:ef:cb:26:0d:fa:13:21:74:46:c3:56:1a:42:
         41:04:92:ee:be:2a:84:0e:b3:da:b1:6b:6a:99:4e:4d:0e:09:
         02:9d:a5:f0:82:0f:d3:ce:b8:f4:2b:02:a1:5c:01:7b:89:4c:
         48:e1:a4:f3:86:e4:1e:fb:7e:b4:0c:64:41:9f:8d:31:78:e4:
         61:80:5f:3e:5f:e9:4f:60:21:f3:9e:2e:27:b0:bc:1c:ab:73:
         72:94:5e:86:45:b2:79:27:13:22:64:f7:36:d4:d9:4b:ab:6a:
         d1:ea:5a:a6:46:16:fc:64:48:97:30:57:32:cc:98:ad:23:9e:
         72:94:9d:11:db:d5:36:07:7e:89:69:29:03:bb:59:e4:85:38:
         84:45:73:96
-----BEGIN CERTIFICATE-----
MIIDgDCCAmigAwIBAgIUbmDY62LoSdWF5Rwj73KqnkBItJswDQYJKoZIhvcNAQEL
BQAwDzENMAsGA1UEAwwEUm9vdDAeFw0xODAzMTAxMjAwMDBaFw0yMTAxMDExMjAw
MDBaMBcxFTATBgNVBAMMDEludGVybWVkaWF0ZTCCASIwDQYJKoZIhvcNAQEBBQAD
ggEPADCCAQoCggEBANnPo3IRQ6HReFleJ8vu9i5STp150cQevbvp1MtelZ+6DHyq
sxuXV4KpbPHmiUs3/GiMkyvINVjk9WrJncyjPyWYo2+BbJdnMLh6q0dCanyTockd
PrkC+xxxQC2ao0Y1XE7bqS2aCdbRnXyZk6n9JZiQuoSndL9Pmo5boi5rXSPEd0J3
C4r04VUhZhhDp6YIQZlCzPMckJMhEl1nHa/98PbBziaDhQJu3Mqa1IFVGZxXoFYX
TKcae/CJz5r9J1abtiQApIobglo5/DrR6a4DDaqNlcQxUBi1C8VPlYUAHd7k1B/6
w5ASR9RgdcpaGzciWiEUIYmKBxsQXZ81tVA/0ikCAwEAAaOByzCByDAdBgNVHQ4E
FgQU7lB7QHGQoM7yoygN7Bzy2X6o8w4wHwYDVR0jBBgwFoAUko6rvFqtpsjqo3um
I1v0T7D6YPowNwYIKwYBBQUHAQEEKzApMCcGCCsGAQUFBzAChhtodHRwOi8vdXJs
LWZvci1haWEvUm9vdC5jZXIwLAYDVR0fBCUwIzAhoB+gHYYbaHR0cDovL3VybC1m
b3ItY3JsL1Jvb3QuY3JsMA4GA1UdDwEB/wQEAwIBBjAPBgNVHRMBAf8EBTADAQH/
MA0GCSqGSIb3DQEBCwUAA4IBAQCTUnHOBqmBpKBYbFBV6BoOC0A1Z1iivCD1QTaW
0ewACdNqiad7yzspCFxKL9fVFjonrEhP7WGu2rJGl36cFooBNM4DDSpqaeAB2zpF
vj1Vf/e1svgyTAQHapqZKYdJLm3jvPsgRvFthszCx+E9AVVcAO/LJg36EyF0RsNW
GkJBBJLuviqEDrPasWtqmU5NDgkCnaXwgg/Tzrj0KwKhXAF7iUxI4aTzhuQe+360
DGRBn40xeORhgF8+X+lPYCHzni4nsLwcq3NylF6GRbJ5JxMiZPc21NlLq2rR6lqm
Rhb8ZEiXMFcyzJitI55ylJ0R29U2B36JaSkDu1nkhTiERXOW
-----END CERTIFICATE-----

Certificate:
    Data:
        Version: 3 (0x2)
        Serial Number:
            6e:60:d8:eb:62:e8:49:d5:85:e5:1c:23:ef:72:aa:9e:40:48:b4:9a
    Signature Algorithm: sha256WithRSAEncryption
        Issuer: CN=Root
        Validity
            Not Before: Mar 10 12:00:00 2018 GMT
            Not After : Jan  1 12:00:00 2021 GMT
        Subject: CN=Root
        Subject Public Key Info:
            Public Key Algorithm: rsaEncryption
                Public-Key: (2048 bit)
                Modulus:
                    00:f6:22:a8:ce:1d:94:88:97:b9:e7:e7:ab:56:da:
                    1c:7c:06:27:7b:06:ac:a5:75:b0:b8:8b:44:d9:8f:
                    07:38:8f:c8:15:46:49:46:c7:33:07:74:fa:4c:30:
                    a7:e6:48:eb:5c:03:14:0b:da:f9:66:be:0b:f4:04:
                    e2:d6:d8:79:cf:3c:0c:1d:61:27:4e:8e:0e:21:4f:
                    b6:2b:e0:bf:dd:67:0d:31:7b:38:36:8c:89:f0:50:
                    2c:35:f0:a6:1f:46:85:f2:78:59:2e:e0:f0:a3:a5:
                    d7:d5:25:a9:6e:d3:6e:6f:80:57:64:a0:c0:d3:75:
                    94:62:72:99:1f:a3:df:6e:b9:e3:39:6b:d3:94:83:
                    db:99:91:fa:d3:98:e2:c0:e3:66:71:1c:ff:ee:40:
                    14:75:eb:47:79:21:01:b5:60:86:81:1e:40:c7:e6:
                    b8:48:95:2c:07:50:49:40:65:9f:c4:91:6c:00:ee:
                    cc:98:1e:c5:d2:ef:fe:09:74:f2:b8:d9:91:48:01:
                    48:27:d9:50:b5:4f:44:e8:f3:fa:03:12:08:a5:fa:
                    b9:55:b1:45:59:76:87:c9:d4:c4:d7:65:ad:b4:c5:
                    82:79:ea:f0:b7:5c:75:18:4d:33:4c:bc:f6:05:e8:
                    22:30:6b:5b:d8:2a:14:2a:6a:11:7c:48:6a:7c:0e:
                    e7:e9
                Exponent: 65537 (0x10001)
        X509v3 extensions:
            X509v3 Subject Key Identifier: 
                92:8E:AB:BC:5A:AD:A6:C8:EA:A3:7B:A6:23:5B:F4:4F:B0:FA:60:FA
            X509v3 Authority Key Identifier: 
                keyid:92:8E:AB:BC:5A:AD:A6:C8:EA:A3:7B:A6:23:5B:F4:4F:B0:FA:60:FA

            Authority Information Access: 
                CA Issuers - URI:http://url-for-aia/Root.cer

            X509v3 CRL Distribution Points: 

                Full Name:
                  URI:http://url-for-crl/Root.crl

            X509v3 Key Usage: critical
                Certificate Sign, CRL Sign
            X509v3 Basic Constraints: critical
                CA:TRUE
    Signature Algorithm: sha256WithRSAEncryption
         db:b0:10:d2:e3:aa:f0:b7:23:48:bd:72:a3:86:4c:6d:d1:a8:
         70:45:9a:3a:eb:a9:a8:1b:eb:d2:18:9f:c7:5c:05:1d:fb:e9:
         dc:cc:45:bc:e1:9b:46:ca:c6:f7:96:f9:3d:46:84:69:33:81:
         a7:4e:2f:14:77:e5:ab:4a:b7:38:c4:42:41:01:38:72:e1:2e:
         48:11:ea:4b:e2:38:73:33:80:68:49:61:51:7a:6f:79:8d:25:
         9d:9e:66:92:98:c2:3c:f0:a0:98:0a:7b:9d:e4:b7:f9:12:de:
         8a:ba:ff:7a:28:3e:27:25:85:60:fd:11:17:9f:8c:52:0e:0f:
         89:0f:d9:e4:f0:74:5f:f5:d8:bb:1a:70:a2:c7:36:be:ea:b8:
         7a:8f:18:8d:91:f1:39:ca:b8:4f:97:80:3c:09:5d:e4:76:50:
         ef:97:88:70:0c:da:f9:be:19:94:a3:23:99:65:f9:3a:2e:75:
         50:7b:6e:6f:dc:54:8c:01:6f:20:85:c1:e7:7d:bb:81:ce:0e:
         c9:f8:69:e4:07:90:4e:1e:8a:d1:8c:b0:12:8f:f4:bb:e9:0b:
         48:69:fb:a6:e8:1d:a6:28:a0:6b:01:0e:40:94:67:e7:6d:b2:
         96:f2:6f:e7:61:a8:d3:f7:b7:b0:4f:3b:c5:eb:23:75:94:59:
         88:04:7c:69
-----BEGIN CERTIFICATE-----
MIIDeDCCAmCgAwIBAgIUbmDY62LoSdWF5Rwj73KqnkBItJowDQYJKoZIhvcNAQEL
BQAwDzENMAsGA1UEAwwEUm9vdDAeFw0xODAzMTAxMjAwMDBaFw0yMTAxMDExMjAw
MDBaMA8xDTALBgNVBAMMBFJvb3QwggEiMA0GCSqGSIb3DQEBAQUAA4IBDwAwggEK
AoIBAQD2IqjOHZSIl7nn56tW2hx8Bid7BqyldbC4i0TZjwc4j8gVRklGxzMHdPpM
MKfmSOtcAxQL2vlmvgv0BOLW2HnPPAwdYSdOjg4hT7Yr4L/dZw0xezg2jInwUCw1
8KYfRoXyeFku4PCjpdfVJalu025vgFdkoMDTdZRicpkfo99uueM5a9OUg9uZkfrT
mOLA42ZxHP/uQBR160d5IQG1YIaBHkDH5rhIlSwHUElAZZ/EkWwA7syYHsXS7/4J
dPK42ZFIAUgn2VC1T0To8/oDEgil+rlVsUVZdofJ1MTXZa20xYJ56vC3XHUYTTNM
vPYF6CIwa1vYKhQqahF8SGp8DufpAgMBAAGjgcswgcgwHQYDVR0OBBYEFJKOq7xa
rabI6qN7piNb9E+w+mD6MB8GA1UdIwQYMBaAFJKOq7xarabI6qN7piNb9E+w+mD6
MDcGCCsGAQUFBwEBBCswKTAnBggrBgEFBQcwAoYbaHR0cDovL3VybC1mb3ItYWlh
L1Jvb3QuY2VyMCwGA1UdHwQlMCMwIaAfoB2GG2h0dHA6Ly91cmwtZm9yLWNybC9S
b290LmNybDAOBgNVHQ8BAf8EBAMCAQYwDwYDVR0TAQH/BAUwAwEB/zANBgkqhkiG
9w0BAQsFAAOCAQEA27AQ0uOq8LcjSL1yo4ZMbdGocEWaOuupqBvr0hifx1wFHfvp
3MxFvOGbRsrG95b5PUaEaTOBp04vFHflq0q3OMRCQQE4cuEuSBHqS+I4czOAaElh
UXpveY0lnZ5mkpjCPPCgmAp7neS3+RLeirr/eig+JyWFYP0RF5+MUg4PiQ/Z5PB0
X/XYuxpwosc2vuq4eo8YjZHxOcq4T5eAPAld5HZQ75eIcAza+b4ZlKMjmWX5Oi51
UHtub9xUjAFvIIXB5327gc4Oyfhp5AeQTh6K0YywEo/0u+kLSGn7pugdpiigawEO
QJRn522ylvJv52Go0/e3sE87xesjdZRZiAR8aQ==
-----END CERTIFICATE-----
