Certificate:
    Data:
        Version: 3 (0x2)
        Serial Number:
            08:91:9e:e2:76:8f:8c:21:ec:72:d8:6c:45:76:fb:8c
        Signature Algorithm: sha256WithRSAEncryption
        Issuer: C = US, O = DigiCert Inc, CN = DigiCert SHA2 Secure Server CA
        Validity
            Not Before: Dec 16 00:00:00 2019 GMT
            Not After : Dec 20 12:00:00 2021 GMT
        Subject: C = US, ST = California, L = Walnut Creek, O = Lucas Garron Torres, CN = known-interception.badssl.com
        Subject Public Key Info:
            Public Key Algorithm: rsaEncryption
                RSA Public-Key: (2048 bit)
                Modulus:
                    00:c7:8f:2d:12:d9:25:d6:57:dd:e3:64:40:67:0c:
                    cb:0a:d4:21:69:57:93:ca:53:57:d1:b2:f7:61:87:
                    a5:73:ac:15:39:2a:bc:38:00:0c:bf:d4:84:45:cc:
                    c2:9f:67:81:62:89:e5:74:0e:c4:00:30:18:ef:de:
                    e9:5b:b0:53:3e:2f:f3:c1:33:a6:ca:05:5d:eb:63:
                    6d:b4:ea:19:e0:c2:60:34:08:90:48:ec:1a:6f:39:
                    3f:0f:5b:0c:6d:1d:6f:a8:ba:4a:13:e0:a0:59:f6:
                    b9:54:7d:6f:66:7e:72:85:09:64:62:17:f1:a9:47:
                    05:56:97:7f:ec:3b:d9:1d:48:cb:2d:17:a2:83:d5:
                    4d:d8:01:7c:ba:8a:09:d0:3c:96:fc:14:49:18:b8:
                    d3:f2:e6:e1:67:6b:d5:e3:43:a9:eb:28:ba:25:86:
                    d1:24:90:fe:33:f0:cc:2e:7a:8f:d4:14:f7:fe:b1:
                    e5:7d:35:1d:59:ba:08:cf:77:10:a4:8f:a5:f0:91:
                    9e:1f:cd:7f:32:34:fc:ff:bc:1a:35:6b:af:c7:d8:
                    4e:17:a1:df:a1:a3:e4:5b:4b:9f:6e:d5:33:e8:99:
                    ec:db:47:70:f5:a7:99:cb:71:1d:64:3e:17:b8:2c:
                    2c:68:69:ea:d9:3f:79:b5:a9:ee:eb:10:97:6e:97:
                    ae:eb
                Exponent: 65537 (0x10001)
        X509v3 extensions:
            X509v3 Authority Key Identifier: 
                keyid:0F:80:61:1C:82:31:61:D5:2F:28:E7:8D:46:38:B4:2C:E1:C6:D9:E2

            X509v3 Subject Key Identifier: 
                65:16:4E:26:8D:41:4F:B4:D6:33:61:17:51:AE:7E:09:DF:6C:C8:2C
            X509v3 Subject Alternative Name: 
                DNS:known-interception.badssl.com, DNS:www.known-interception.badssl.com
            X509v3 Key Usage: critical
                Digital Signature, Key Encipherment
            X509v3 Extended Key Usage: 
                TLS Web Server Authentication, TLS Web Client Authentication
            X509v3 CRL Distribution Points: 

                Full Name:
                  URI:http://crl3.digicert.com/ssca-sha2-g6.crl

                Full Name:
                  URI:http://crl4.digicert.com/ssca-sha2-g6.crl

            X509v3 Certificate Policies: 
                Policy: 2.16.840.1.114412.1.1
                  CPS: https://www.digicert.com/CPS
                Policy: 2.23.140.1.2.3

            Authority Information Access: 
                OCSP - URI:http://ocsp.digicert.com
                CA Issuers - URI:http://cacerts.digicert.com/DigiCertSHA2SecureServerCA.crt

            X509v3 Basic Constraints: critical
                CA:FALSE
            CT Precertificate SCTs: 
                Signed Certificate Timestamp:
                    Version   : v1 (0x0)
                    Log ID    : A4:B9:09:90:B4:18:58:14:87:BB:13:A2:CC:67:70:0A:
                                3C:35:98:04:F9:1B:DF:B8:E3:77:CD:0E:C8:0D:DC:10
                    Timestamp : Dec 16 19:25:03.735 2019 GMT
                    Extensions: none
                    Signature : ecdsa-with-SHA256
                                30:46:02:21:00:BF:58:DF:CB:40:35:C7:EB:56:A3:3D:
                                33:A7:15:99:78:92:16:00:51:73:BF:E4:83:29:3A:95:
                                9A:4E:70:E2:B5:02:21:00:CC:CD:B2:E9:28:B1:E1:84:
                                59:77:99:FD:28:75:59:06:48:21:E7:16:18:7A:40:78:
                                5A:C2:4A:97:BE:83:82:BC
                Signed Certificate Timestamp:
                    Version   : v1 (0x0)
                    Log ID    : 44:94:65:2E:B0:EE:CE:AF:C4:40:07:D8:A8:FE:28:C0:
                                DA:E6:82:BE:D8:CB:31:B5:3F:D3:33:96:B5:B6:81:A8
                    Timestamp : Dec 16 19:25:03.808 2019 GMT
                    Extensions: none
                    Signature : ecdsa-with-SHA256
                                30:45:02:20:22:7C:CB:BA:4B:E1:C4:0F:93:0C:69:8F:
                                E5:06:A3:04:FA:D2:3F:F4:24:1C:DF:29:AC:7B:E2:51:
                                06:35:B2:FC:02:21:00:D4:75:B0:0F:88:B0:2A:0B:CA:
                                89:B9:B9:09:CE:85:92:CD:13:B9:18:86:ED:DE:9A:37:
                                58:A2:44:10:3B:67:87
                Signed Certificate Timestamp:
                    Version   : v1 (0x0)
                    Log ID    : BB:D9:DF:BC:1F:8A:71:B5:93:94:23:97:AA:92:7B:47:
                                38:57:95:0A:AB:52:E8:1A:90:96:64:36:8E:1E:D1:85
                    Timestamp : Dec 16 19:25:03.896 2019 GMT
                    Extensions: none
                    Signature : ecdsa-with-SHA256
                                30:46:02:21:00:CB:60:EE:F3:90:EF:DB:D8:39:0F:58:
                                3D:DE:42:F2:F6:D4:68:E3:CB:7C:59:55:DC:35:C4:76:
                                6A:E4:D9:D4:9F:02:21:00:A1:83:D6:3F:22:5B:DD:7C:
                                BC:17:18:F8:D2:FC:BF:A5:77:1C:1E:B9:8A:7C:E2:4C:
                                14:B9:C8:27:35:99:23:96
    Signature Algorithm: sha256WithRSAEncryption
         bb:e4:97:22:2e:43:11:dd:42:56:5f:d9:d4:0d:c9:c9:7c:c6:
         47:5b:a8:6b:17:94:b3:ae:b3:63:d6:6b:68:17:87:b5:78:49:
         68:a0:13:13:39:76:93:34:b9:29:46:a1:7e:8c:17:e1:e1:27:
         0a:46:8e:1e:fd:e2:56:06:18:86:9a:ab:e1:e1:03:eb:ef:c3:
         a4:3f:e3:2c:7a:9a:c7:95:5e:85:84:a5:1e:52:63:f1:4e:4a:
         79:45:93:d3:92:6d:f6:9d:be:a6:20:31:bb:90:2e:71:a4:27:
         66:44:f8:24:51:b1:03:69:2c:b3:4c:ec:69:10:c1:84:92:9b:
         2a:89:4e:13:29:10:97:dd:59:35:40:25:b0:87:a4:56:aa:87:
         f4:1a:c5:2b:53:53:7b:cb:47:d4:59:64:e1:11:37:86:71:c8:
         18:78:84:66:86:51:a5:d8:3c:b8:9a:10:d0:d4:98:29:40:6a:
         8b:8e:3d:c6:a3:9b:09:93:19:fc:87:76:45:98:d2:c7:c8:b7:
         a5:3f:f2:2e:c5:15:59:0e:fe:17:36:40:7a:35:5a:a7:2d:f5:
         c0:b5:80:95:3a:3c:a7:54:46:8a:a0:67:e9:69:35:b2:3c:9a:
         51:ef:58:a6:ff:6d:7e:61:17:a4:d8:1f:42:88:90:0d:5a:91:
         3e:6c:90:98
-----BEGIN CERTIFICATE-----
MIIG4zCCBcugAwIBAgIQCJGe4naPjCHscthsRXb7jDANBgkqhkiG9w0BAQsFADBN
MQswCQYDVQQGEwJVUzEVMBMGA1UEChMMRGlnaUNlcnQgSW5jMScwJQYDVQQDEx5E
aWdpQ2VydCBTSEEyIFNlY3VyZSBTZXJ2ZXIgQ0EwHhcNMTkxMjE2MDAwMDAwWhcN
MjExMjIwMTIwMDAwWjB/MQswCQYDVQQGEwJVUzETMBEGA1UECBMKQ2FsaWZvcm5p
YTEVMBMGA1UEBxMMV2FsbnV0IENyZWVrMRwwGgYDVQQKExNMdWNhcyBHYXJyb24g
VG9ycmVzMSYwJAYDVQQDEx1rbm93bi1pbnRlcmNlcHRpb24uYmFkc3NsLmNvbTCC
ASIwDQYJKoZIhvcNAQEBBQADggEPADCCAQoCggEBAMePLRLZJdZX3eNkQGcMywrU
IWlXk8pTV9Gy92GHpXOsFTkqvDgADL/UhEXMwp9ngWKJ5XQOxAAwGO/e6VuwUz4v
88EzpsoFXetjbbTqGeDCYDQIkEjsGm85Pw9bDG0db6i6ShPgoFn2uVR9b2Z+coUJ
ZGIX8alHBVaXf+w72R1Iyy0XooPVTdgBfLqKCdA8lvwUSRi40/Lm4Wdr1eNDqeso
uiWG0SSQ/jPwzC56j9QU9/6x5X01HVm6CM93EKSPpfCRnh/NfzI0/P+8GjVrr8fY
Theh36Gj5FtLn27VM+iZ7NtHcPWnmctxHWQ+F7gsLGhp6tk/ebWp7usQl26XrusC
AwEAAaOCA4swggOHMB8GA1UdIwQYMBaAFA+AYRyCMWHVLyjnjUY4tCzhxtniMB0G
A1UdDgQWBBRlFk4mjUFPtNYzYRdRrn4J32zILDBLBgNVHREERDBCgh1rbm93bi1p
bnRlcmNlcHRpb24uYmFkc3NsLmNvbYIhd3d3Lmtub3duLWludGVyY2VwdGlvbi5i
YWRzc2wuY29tMA4GA1UdDwEB/wQEAwIFoDAdBgNVHSUEFjAUBggrBgEFBQcDAQYI
KwYBBQUHAwIwawYDVR0fBGQwYjAvoC2gK4YpaHR0cDovL2NybDMuZGlnaWNlcnQu
Y29tL3NzY2Etc2hhMi1nNi5jcmwwL6AtoCuGKWh0dHA6Ly9jcmw0LmRpZ2ljZXJ0
LmNvbS9zc2NhLXNoYTItZzYuY3JsMEwGA1UdIARFMEMwNwYJYIZIAYb9bAEBMCow
KAYIKwYBBQUHAgEWHGh0dHBzOi8vd3d3LmRpZ2ljZXJ0LmNvbS9DUFMwCAYGZ4EM
AQIDMHwGCCsGAQUFBwEBBHAwbjAkBggrBgEFBQcwAYYYaHR0cDovL29jc3AuZGln
aWNlcnQuY29tMEYGCCsGAQUFBzAChjpodHRwOi8vY2FjZXJ0cy5kaWdpY2VydC5j
b20vRGlnaUNlcnRTSEEyU2VjdXJlU2VydmVyQ0EuY3J0MAwGA1UdEwEB/wQCMAAw
ggGABgorBgEEAdZ5AgQCBIIBcASCAWwBagB3AKS5CZC0GFgUh7sTosxncAo8NZgE
+RvfuON3zQ7IDdwQAAABbxArzXcAAAQDAEgwRgIhAL9Y38tANcfrVqM9M6cVmXiS
FgBRc7/kgyk6lZpOcOK1AiEAzM2y6Six4YRZd5n9KHVZBkgh5xYYekB4WsJKl76D
grwAdgBElGUusO7Or8RAB9io/ijA2uaCvtjLMbU/0zOWtbaBqAAAAW8QK83AAAAE
AwBHMEUCICJ8y7pL4cQPkwxpj+UGowT60j/0JBzfKax74lEGNbL8AiEA1HWwD4iw
KgvKibm5Cc6Fks0TuRiG7d6aN1iiRBA7Z4cAdwC72d+8H4pxtZOUI5eqkntHOFeV
CqtS6BqQlmQ2jh7RhQAAAW8QK84YAAAEAwBIMEYCIQDLYO7zkO/b2DkPWD3eQvL2
1Gjjy3xZVdw1xHZq5NnUnwIhAKGD1j8iW918vBcY+NL8v6V3HB65inziTBS5yCc1
mSOWMA0GCSqGSIb3DQEBCwUAA4IBAQC75JciLkMR3UJWX9nUDcnJfMZHW6hrF5Sz
rrNj1mtoF4e1eElooBMTOXaTNLkpRqF+jBfh4ScKRo4e/eJWBhiGmqvh4QPr78Ok
P+MseprHlV6FhKUeUmPxTkp5RZPTkm32nb6mIDG7kC5xpCdmRPgkUbEDaSyzTOxp
EMGEkpsqiU4TKRCX3Vk1QCWwh6RWqof0GsUrU1N7y0fUWWThETeGccgYeIRmhlGl
2Dy4mhDQ1JgpQGqLjj3Go5sJkxn8h3ZFmNLHyLelP/IuxRVZDv4XNkB6NVqnLfXA
tYCVOjynVEaKoGfpaTWyPJpR71im/21+YRek2B9CiJANWpE+bJCY
-----END CERTIFICATE-----
