Certificate:
    Data:
        Version: 3 (0x2)
        Serial Number:
            01:af:1e:fb:dd:5e:ae:09:52:32:0b:24:fe:6b:55:68
    Signature Algorithm: sha256WithRSAEncryption
        Issuer: C = US, O = DigiCert Inc, CN = DigiCert SHA2 Secure Server CA
        Validity
            Not Before: Sep  2 00:00:00 2016 GMT
            Not After : Sep 11 12:00:00 2019 GMT
        Subject: C = US, ST = California, L = Walnut Creek, O = Lucas Garron, CN = revoked.badssl.com
        Subject Public Key Info:
            Public Key Algorithm: rsaEncryption
                Public-Key: (2048 bit)
                Modulus:
                    00:c7:31:65:e4:55:cf:69:90:9f:6e:1f:d8:6a:13:
                    7e:74:bf:13:3a:54:64:0f:74:24:3d:dc:60:b8:a7:
                    45:01:b7:c8:6a:03:ac:64:4a:65:f0:7c:81:81:83:
                    0a:d9:dd:31:20:82:48:a6:33:63:ee:2b:74:ea:b4:
                    e6:c7:1c:b2:5e:e4:28:3a:7a:3d:20:19:03:b7:15:
                    3f:4f:c9:26:ec:b7:cb:bf:48:6e:5f:34:70:56:c4:
                    86:c7:e3:52:9a:21:33:2f:10:13:f3:25:0c:1e:94:
                    35:2e:e8:d0:d1:b5:a0:77:40:91:2e:e9:ba:f8:ff:
                    4e:f5:fb:f2:7a:04:a7:e6:c6:ce:3f:0f:10:18:32:
                    c8:06:bc:15:b3:be:69:ac:75:7d:42:a0:8c:2e:c3:
                    ac:e1:20:4f:1e:36:9c:9a:2e:a2:fd:79:80:b6:62:
                    f8:c0:b2:03:a9:29:50:cc:d5:25:8a:33:5e:e0:78:
                    13:18:c0:80:17:09:95:bd:a2:fe:92:15:07:20:7a:
                    81:ce:db:0e:81:29:89:d4:c8:ec:b3:b3:79:0e:f2:
                    ce:25:e7:ee:be:21:7d:af:0c:13:94:29:de:35:9a:
                    1e:d8:84:18:5a:5c:1a:94:82:ce:9a:61:d6:9d:ec:
                    f8:ee:ad:3f:09:5b:73:ec:a2:9b:fa:dc:62:f1:58:
                    1f:7d
                Exponent: 65537 (0x10001)
        X509v3 extensions:
            X509v3 Authority Key Identifier: 
                keyid:0F:80:61:1C:82:31:61:D5:2F:28:E7:8D:46:38:B4:2C:E1:C6:D9:E2

            X509v3 Subject Key Identifier: 
                F4:48:7D:07:45:1A:32:07:90:91:AC:05:B8:9F:A9:11:F0:7E:11:36
            X509v3 Subject Alternative Name: 
                DNS:revoked.badssl.com
            X509v3 Key Usage: critical
                Digital Signature, Key Encipherment
            X509v3 Extended Key Usage: 
                TLS Web Server Authentication, TLS Web Client Authentication
            X509v3 CRL Distribution Points: 

                Full Name:
                  URI:http://crl3.digicert.com/ssca-sha2-g5.crl

                Full Name:
                  URI:http://crl4.digicert.com/ssca-sha2-g5.crl

            X509v3 Certificate Policies: 
                Policy: 2.16.840.1.114412.1.1
                  CPS: https://www.digicert.com/CPS
                Policy: 2.23.140.1.2.3

            Authority Information Access: 
                OCSP - URI:http://ocsp.digicert.com
                CA Issuers - URI:http://cacerts.digicert.com/DigiCertSHA2SecureServerCA.crt

            X509v3 Basic Constraints: critical
                CA:FALSE
            CT Precertificate SCTs: 
                Signed Certificate Timestamp:
                    Version   : v1 (0x0)
                    Log ID    : A4:B9:09:90:B4:18:58:14:87:BB:13:A2:CC:67:70:0A:
                                3C:35:98:04:F9:1B:DF:B8:E3:77:CD:0E:C8:0D:DC:10
                    Timestamp : Sep  2 20:40:03.802 2016 GMT
                    Extensions: none
                    Signature : ecdsa-with-SHA256
                                30:44:02:20:3F:6C:A8:F5:C4:7C:01:4C:C3:5A:28:27:
                                50:47:63:D9:AC:E1:BE:2D:BF:87:78:CB:3A:80:97:24:
                                74:CD:16:F7:02:20:71:FF:93:A2:B5:54:7E:7F:53:45:
                                7F:59:5A:60:18:21:5C:AB:7D:1F:08:B2:54:A0:B3:C4:
                                88:A5:83:D2:63:55
                Signed Certificate Timestamp:
                    Version   : v1 (0x0)
                    Log ID    : 68:F6:98:F8:1F:64:82:BE:3A:8C:EE:B9:28:1D:4C:FC:
                                71:51:5D:67:93:D4:44:D1:0A:67:AC:BB:4F:4F:FB:C4
                    Timestamp : Sep  2 20:40:03.745 2016 GMT
                    Extensions: none
                    Signature : ecdsa-with-SHA256
                                30:46:02:21:00:FE:59:97:22:4C:6C:0F:39:05:D9:E4:
                                CA:7E:3B:D3:B3:47:1B:61:72:B6:3A:4F:D6:F2:A3:57:
                                49:48:4F:6A:6D:02:21:00:8F:14:1B:3C:1B:89:A3:1D:
                                70:EC:D4:D7:11:BC:F9:0B:3C:60:AC:8C:84:73:24:6B:
                                0E:37:6E:53:7F:9D:7F:34
                Signed Certificate Timestamp:
                    Version   : v1 (0x0)
                    Log ID    : 56:14:06:9A:2F:D7:C2:EC:D3:F5:E1:BD:44:B2:3E:C7:
                                46:76:B9:BC:99:11:5C:C0:EF:94:98:55:D6:89:D0:DD
                    Timestamp : Sep  2 20:40:03.967 2016 GMT
                    Extensions: none
                    Signature : ecdsa-with-SHA256
                                30:45:02:20:0E:BF:53:59:17:0C:EC:66:0C:5E:87:BB:
                                8F:5F:B6:76:86:F2:5C:FC:BC:A8:B9:C0:DF:BC:1A:3B:
                                EE:11:F2:D0:02:21:00:87:25:39:E4:32:99:48:CA:20:
                                1B:13:96:1D:C3:2C:98:6B:1B:C0:CC:E5:67:22:BD:92:
                                14:E9:68:CD:95:82:32
    Signature Algorithm: sha256WithRSAEncryption
         5a:a0:49:88:ad:60:1f:08:53:4c:d9:b8:dc:f5:40:41:ad:ef:
         c8:7b:01:3b:13:70:44:99:f6:5c:23:46:f7:3a:c8:7d:c9:21:
         ad:3a:49:45:82:1e:5d:3b:1e:9b:6a:0a:3e:61:2d:f6:b1:99:
         74:2f:91:f9:d5:f1:9f:ae:74:26:8b:3c:a7:8c:be:28:fe:ac:
         3b:70:ae:08:56:71:ac:55:7c:40:89:02:2d:61:2a:fd:54:72:
         bf:1a:5c:70:19:90:15:a4:76:a0:7f:56:1c:c1:f0:8d:5e:99:
         3d:83:41:54:68:e5:62:c1:5a:a2:64:8c:01:64:7a:23:b9:3f:
         bf:22:cf:1f:c0:47:80:1f:94:d5:f2:30:84:fb:07:02:fa:5b:
         a0:ba:09:04:98:4e:f3:25:56:4c:c4:7e:e0:27:d8:e8:32:8f:
         b3:3c:5a:92:4b:c0:77:2d:b0:e5:ae:1f:af:1d:7f:21:9c:65:
         26:be:0c:ba:e8:0d:c1:d2:67:b4:b9:33:d1:4a:ee:fc:b8:af:
         03:5b:c8:3e:bc:fa:09:9d:04:ce:3e:a6:b5:c4:74:3b:31:7a:
         f3:2c:42:b3:c7:73:db:aa:75:2e:8d:8a:9e:79:33:be:d7:b6:
         14:9b:26:ab:7b:9e:14:b3:55:e6:4b:bb:86:94:11:74:02:35:
         b4:52:70:9b
-----BEGIN CERTIFICATE-----
MIIGoTCCBYmgAwIBAgIQAa8e+91erglSMgsk/mtVaDANBgkqhkiG9w0BAQsFADBN
MQswCQYDVQQGEwJVUzEVMBMGA1UEChMMRGlnaUNlcnQgSW5jMScwJQYDVQQDEx5E
aWdpQ2VydCBTSEEyIFNlY3VyZSBTZXJ2ZXIgQ0EwHhcNMTYwOTAyMDAwMDAwWhcN
MTkwOTExMTIwMDAwWjBtMQswCQYDVQQGEwJVUzETMBEGA1UECBMKQ2FsaWZvcm5p
YTEVMBMGA1UEBxMMV2FsbnV0IENyZWVrMRUwEwYDVQQKEwxMdWNhcyBHYXJyb24x
GzAZBgNVBAMTEnJldm9rZWQuYmFkc3NsLmNvbTCCASIwDQYJKoZIhvcNAQEBBQAD
ggEPADCCAQoCggEBAMcxZeRVz2mQn24f2GoTfnS/EzpUZA90JD3cYLinRQG3yGoD
rGRKZfB8gYGDCtndMSCCSKYzY+4rdOq05sccsl7kKDp6PSAZA7cVP0/JJuy3y79I
bl80cFbEhsfjUpohMy8QE/MlDB6UNS7o0NG1oHdAkS7puvj/TvX78noEp+bGzj8P
EBgyyAa8FbO+aax1fUKgjC7DrOEgTx42nJouov15gLZi+MCyA6kpUMzVJYozXuB4
ExjAgBcJlb2i/pIVByB6gc7bDoEpidTI7LOzeQ7yziXn7r4hfa8ME5Qp3jWaHtiE
GFpcGpSCzpph1p3s+O6tPwlbc+yim/rcYvFYH30CAwEAAaOCA1swggNXMB8GA1Ud
IwQYMBaAFA+AYRyCMWHVLyjnjUY4tCzhxtniMB0GA1UdDgQWBBT0SH0HRRoyB5CR
rAW4n6kR8H4RNjAdBgNVHREEFjAUghJyZXZva2VkLmJhZHNzbC5jb20wDgYDVR0P
AQH/BAQDAgWgMB0GA1UdJQQWMBQGCCsGAQUFBwMBBggrBgEFBQcDAjBrBgNVHR8E
ZDBiMC+gLaArhilodHRwOi8vY3JsMy5kaWdpY2VydC5jb20vc3NjYS1zaGEyLWc1
LmNybDAvoC2gK4YpaHR0cDovL2NybDQuZGlnaWNlcnQuY29tL3NzY2Etc2hhMi1n
NS5jcmwwTAYDVR0gBEUwQzA3BglghkgBhv1sAQEwKjAoBggrBgEFBQcCARYcaHR0
cHM6Ly93d3cuZGlnaWNlcnQuY29tL0NQUzAIBgZngQwBAgMwfAYIKwYBBQUHAQEE
cDBuMCQGCCsGAQUFBzABhhhodHRwOi8vb2NzcC5kaWdpY2VydC5jb20wRgYIKwYB
BQUHMAKGOmh0dHA6Ly9jYWNlcnRzLmRpZ2ljZXJ0LmNvbS9EaWdpQ2VydFNIQTJT
ZWN1cmVTZXJ2ZXJDQS5jcnQwDAYDVR0TAQH/BAIwADCCAX4GCisGAQQB1nkCBAIE
ggFuBIIBagFoAHUApLkJkLQYWBSHuxOizGdwCjw1mAT5G9+443fNDsgN3BAAAAFW
7KE32gAABAMARjBEAiA/bKj1xHwBTMNaKCdQR2PZrOG+Lb+HeMs6gJckdM0W9wIg
cf+TorVUfn9TRX9ZWmAYIVyrfR8IslSgs8SIpYPSY1UAdwBo9pj4H2SCvjqM7rko
HUz8cVFdZ5PURNEKZ6y7T0/7xAAAAVbsoTehAAAEAwBIMEYCIQD+WZciTGwPOQXZ
5Mp+O9OzRxthcrY6T9byo1dJSE9qbQIhAI8UGzwbiaMdcOzU1xG8+Qs8YKyMhHMk
aw43blN/nX80AHYAVhQGmi/XwuzT9eG9RLI+x0Z2ubyZEVzA75SYVdaJ0N0AAAFW
7KE4fwAABAMARzBFAiAOv1NZFwzsZgxeh7uPX7Z2hvJc/LyoucDfvBo77hHy0AIh
AIclOeQymUjKIBsTlh3DLJhrG8DM5WcivZIU6WjNlYIyMA0GCSqGSIb3DQEBCwUA
A4IBAQBaoEmIrWAfCFNM2bjc9UBBre/IewE7E3BEmfZcI0b3Osh9ySGtOklFgh5d
Ox6bago+YS32sZl0L5H51fGfrnQmizynjL4o/qw7cK4IVnGsVXxAiQItYSr9VHK/
GlxwGZAVpHagf1YcwfCNXpk9g0FUaOViwVqiZIwBZHojuT+/Is8fwEeAH5TV8jCE
+wcC+lugugkEmE7zJVZMxH7gJ9joMo+zPFqSS8B3LbDlrh+vHX8hnGUmvgy66A3B
0me0uTPRSu78uK8DW8g+vPoJnQTOPqa1xHQ7MXrzLEKzx3PbqnUujYqeeTO+17YU
myare54Us1XmS7uGlBF0AjW0UnCb
-----END CERTIFICATE-----
