Certificate:
    Data:
        Version: 3 (0x2)
        Serial Number:
            03:2f:9c:4e:f4:4d:1e:c9:00:42:67:7e:d9:d4:df:83
        Signature Algorithm: sha256WithRSAEncryption
        Issuer: C = US, O = DigiCert Inc, CN = DigiCert SHA2 Secure Server CA
        Validity
            Not Before: Dec 16 00:00:00 2019 GMT
            Not After : Dec 20 12:00:00 2021 GMT
        Subject: C = US, ST = California, L = Walnut Creek, O = Lucas Garron Torres, CN = blocked-interception.badssl.com
        Subject Public Key Info:
            Public Key Algorithm: rsaEncryption
                RSA Public-Key: (2048 bit)
                Modulus:
                    00:9c:c4:b1:a6:98:0a:77:0f:b9:a9:36:04:99:68:
                    dc:0e:b1:5d:7e:ef:5d:bf:c4:75:e9:bf:16:d7:ca:
                    07:02:10:fe:3a:80:f1:26:42:6d:c2:ca:9d:e7:5b:
                    2e:77:d0:3b:b1:a5:ce:b4:84:6a:4f:f0:a2:4a:99:
                    97:fe:b0:c2:5d:d4:0f:26:3a:ea:4e:d6:f5:9b:c9:
                    87:aa:fc:b1:ff:83:fd:33:ce:5b:5b:d5:0a:94:e8:
                    67:24:a3:b7:86:99:dd:69:92:10:5f:67:5c:01:b1:
                    d2:9f:10:bf:7c:23:a5:e1:bd:34:99:5d:f5:8f:8b:
                    b0:22:b9:8b:e5:03:b9:30:d4:91:ff:2b:6c:13:9c:
                    00:22:26:a8:27:30:7f:75:c4:cb:85:04:31:39:68:
                    c9:72:37:71:62:b7:db:f5:65:a1:55:37:2e:94:e6:
                    e4:c2:2e:01:90:92:32:d6:07:5c:00:ea:1b:bd:5b:
                    62:3d:32:39:de:2a:68:39:39:b4:b5:b3:14:e9:02:
                    00:6e:bb:bd:6a:ac:0e:35:2b:e3:3e:8b:83:51:51:
                    59:63:f0:bf:e2:f3:cc:00:24:88:28:77:8f:c6:61:
                    f0:84:c6:20:cf:68:0f:dd:e6:bc:9c:04:6d:fe:fa:
                    52:d7:7f:1e:96:c2:e0:f8:42:7f:ff:68:2b:da:f3:
                    5b:c5
                Exponent: 65537 (0x10001)
        X509v3 extensions:
            X509v3 Authority Key Identifier: 
                keyid:0F:80:61:1C:82:31:61:D5:2F:28:E7:8D:46:38:B4:2C:E1:C6:D9:E2

            X509v3 Subject Key Identifier: 
                A9:05:22:41:ED:F9:98:F1:E7:EF:27:E1:2A:2F:C0:1B:1D:C0:AE:D4
            X509v3 Subject Alternative Name: 
                DNS:blocked-interception.badssl.com, DNS:www.blocked-interception.badssl.com
            X509v3 Key Usage: critical
                Digital Signature, Key Encipherment
            X509v3 Extended Key Usage: 
                TLS Web Server Authentication, TLS Web Client Authentication
            X509v3 CRL Distribution Points: 

                Full Name:
                  URI:http://crl3.digicert.com/ssca-sha2-g6.crl

                Full Name:
                  URI:http://crl4.digicert.com/ssca-sha2-g6.crl

            X509v3 Certificate Policies: 
                Policy: 2.16.840.1.114412.1.1
                  CPS: https://www.digicert.com/CPS
                Policy: 2.23.140.1.2.3

            Authority Information Access: 
                OCSP - URI:http://ocsp.digicert.com
                CA Issuers - URI:http://cacerts.digicert.com/DigiCertSHA2SecureServerCA.crt

            X509v3 Basic Constraints: critical
                CA:FALSE
            CT Precertificate SCTs: 
                Signed Certificate Timestamp:
                    Version   : v1 (0x0)
                    Log ID    : A4:B9:09:90:B4:18:58:14:87:BB:13:A2:CC:67:70:0A:
                                3C:35:98:04:F9:1B:DF:B8:E3:77:CD:0E:C8:0D:DC:10
                    Timestamp : Dec 16 19:27:47.556 2019 GMT
                    Extensions: none
                    Signature : ecdsa-with-SHA256
                                30:45:02:20:6E:DC:0C:F1:EC:26:57:3F:B8:FB:21:9E:
                                0C:BA:58:39:9D:09:57:48:DE:BC:B4:65:63:6D:02:09:
                                78:64:F9:1B:02:21:00:86:1E:3F:6E:01:B8:27:4F:45:
                                04:68:AD:04:4A:E4:CB:2F:68:EE:00:58:AB:FF:69:45:
                                F9:93:03:3E:ED:5D:8D
                Signed Certificate Timestamp:
                    Version   : v1 (0x0)
                    Log ID    : 44:94:65:2E:B0:EE:CE:AF:C4:40:07:D8:A8:FE:28:C0:
                                DA:E6:82:BE:D8:CB:31:B5:3F:D3:33:96:B5:B6:81:A8
                    Timestamp : Dec 16 19:27:47.472 2019 GMT
                    Extensions: none
                    Signature : ecdsa-with-SHA256
                                30:45:02:21:00:C5:2A:BF:4F:52:59:2B:21:68:69:B6:
                                2C:96:B2:9E:48:76:A6:BD:01:95:C1:1A:A7:98:F6:7E:
                                A7:BB:9D:27:91:02:20:46:9E:A8:1E:22:66:08:A2:4A:
                                B2:88:A3:E4:89:A0:8A:F3:E0:10:35:5B:2A:3F:EC:AD:
                                99:88:86:8C:5D:F7:EA
                Signed Certificate Timestamp:
                    Version   : v1 (0x0)
                    Log ID    : BB:D9:DF:BC:1F:8A:71:B5:93:94:23:97:AA:92:7B:47:
                                38:57:95:0A:AB:52:E8:1A:90:96:64:36:8E:1E:D1:85
                    Timestamp : Dec 16 19:27:47.558 2019 GMT
                    Extensions: none
                    Signature : ecdsa-with-SHA256
                                30:45:02:21:00:95:10:28:21:D3:32:AD:8E:41:39:D2:
                                D5:DB:C9:B8:A7:0D:AA:16:CC:F2:37:5D:FC:36:1A:93:
                                CE:72:73:77:84:02:20:0F:49:96:AC:F0:B4:95:8D:24:
                                84:BA:6B:DD:D3:1E:66:41:A7:C3:94:74:D6:10:E3:EE:
                                FA:A7:BD:98:4A:62:BE
    Signature Algorithm: sha256WithRSAEncryption
         3d:74:18:ea:0d:07:64:53:de:94:ea:0d:fa:9e:87:8d:d6:32:
         38:a0:c2:be:09:96:1c:65:32:78:85:6e:aa:ca:5f:ea:ed:82:
         51:00:58:2a:a3:5f:f4:ba:c1:db:3d:7f:19:fb:7e:a5:b5:d1:
         4f:b6:3a:36:a4:f7:d9:e8:49:59:c8:d5:eb:d4:c9:8d:d8:8f:
         2a:d1:b5:16:ca:3a:11:c4:d5:da:8a:38:76:fb:57:34:a6:09:
         ae:48:3b:c4:3d:5d:62:ec:3a:54:4e:59:d2:11:19:18:88:91:
         5a:6c:b3:6b:76:8c:ed:b0:61:c3:cf:83:90:f7:aa:8d:88:ce:
         90:f5:16:35:dd:51:ff:6f:1f:d4:09:b7:57:74:30:54:bd:61:
         a1:eb:bc:cd:67:d5:3c:c2:e5:4c:26:ee:08:c1:de:1e:12:12:
         64:ec:d9:2c:d6:49:01:31:f8:b2:4c:48:cc:f9:7d:3e:49:5b:
         b2:87:5d:c1:09:af:60:1b:ed:1f:6d:4c:ee:b1:ec:a2:37:9c:
         57:72:d6:5e:8b:ab:d4:39:05:a1:d6:b4:0b:a3:9c:3c:cf:1e:
         ed:4c:51:d7:7f:b1:3e:15:c8:f8:5b:51:29:a9:16:99:d1:12:
         e5:a1:37:86:73:46:e4:b9:b6:db:48:0b:75:a4:51:d0:f7:a4:
         ee:e5:4a:b1
-----BEGIN CERTIFICATE-----
MIIG6DCCBdCgAwIBAgIQAy+cTvRNHskAQmd+2dTfgzANBgkqhkiG9w0BAQsFADBN
MQswCQYDVQQGEwJVUzEVMBMGA1UEChMMRGlnaUNlcnQgSW5jMScwJQYDVQQDEx5E
aWdpQ2VydCBTSEEyIFNlY3VyZSBTZXJ2ZXIgQ0EwHhcNMTkxMjE2MDAwMDAwWhcN
MjExMjIwMTIwMDAwWjCBgTELMAkGA1UEBhMCVVMxEzARBgNVBAgTCkNhbGlmb3Ju
aWExFTATBgNVBAcTDFdhbG51dCBDcmVlazEcMBoGA1UEChMTTHVjYXMgR2Fycm9u
IFRvcnJlczEoMCYGA1UEAxMfYmxvY2tlZC1pbnRlcmNlcHRpb24uYmFkc3NsLmNv
bTCCASIwDQYJKoZIhvcNAQEBBQADggEPADCCAQoCggEBAJzEsaaYCncPuak2BJlo
3A6xXX7vXb/Edem/FtfKBwIQ/jqA8SZCbcLKnedbLnfQO7GlzrSEak/wokqZl/6w
wl3UDyY66k7W9ZvJh6r8sf+D/TPOW1vVCpToZySjt4aZ3WmSEF9nXAGx0p8Qv3wj
peG9NJld9Y+LsCK5i+UDuTDUkf8rbBOcACImqCcwf3XEy4UEMTloyXI3cWK32/Vl
oVU3LpTm5MIuAZCSMtYHXADqG71bYj0yOd4qaDk5tLWzFOkCAG67vWqsDjUr4z6L
g1FRWWPwv+LzzAAkiCh3j8Zh8ITGIM9oD93mvJwEbf76Utd/HpbC4PhCf/9oK9rz
W8UCAwEAAaOCA40wggOJMB8GA1UdIwQYMBaAFA+AYRyCMWHVLyjnjUY4tCzhxtni
MB0GA1UdDgQWBBSpBSJB7fmY8efvJ+EqL8AbHcCu1DBPBgNVHREESDBGgh9ibG9j
a2VkLWludGVyY2VwdGlvbi5iYWRzc2wuY29tgiN3d3cuYmxvY2tlZC1pbnRlcmNl
cHRpb24uYmFkc3NsLmNvbTAOBgNVHQ8BAf8EBAMCBaAwHQYDVR0lBBYwFAYIKwYB
BQUHAwEGCCsGAQUFBwMCMGsGA1UdHwRkMGIwL6AtoCuGKWh0dHA6Ly9jcmwzLmRp
Z2ljZXJ0LmNvbS9zc2NhLXNoYTItZzYuY3JsMC+gLaArhilodHRwOi8vY3JsNC5k
aWdpY2VydC5jb20vc3NjYS1zaGEyLWc2LmNybDBMBgNVHSAERTBDMDcGCWCGSAGG
/WwBATAqMCgGCCsGAQUFBwIBFhxodHRwczovL3d3dy5kaWdpY2VydC5jb20vQ1BT
MAgGBmeBDAECAzB8BggrBgEFBQcBAQRwMG4wJAYIKwYBBQUHMAGGGGh0dHA6Ly9v
Y3NwLmRpZ2ljZXJ0LmNvbTBGBggrBgEFBQcwAoY6aHR0cDovL2NhY2VydHMuZGln
aWNlcnQuY29tL0RpZ2lDZXJ0U0hBMlNlY3VyZVNlcnZlckNBLmNydDAMBgNVHRMB
Af8EAjAAMIIBfgYKKwYBBAHWeQIEAgSCAW4EggFqAWgAdgCkuQmQtBhYFIe7E6LM
Z3AKPDWYBPkb37jjd80OyA3cEAAAAW8QLk1kAAAEAwBHMEUCIG7cDPHsJlc/uPsh
ngy6WDmdCVdI3ry0ZWNtAgl4ZPkbAiEAhh4/bgG4J09FBGitBErkyy9o7gBYq/9p
RfmTAz7tXY0AdgBElGUusO7Or8RAB9io/ijA2uaCvtjLMbU/0zOWtbaBqAAAAW8Q
Lk0QAAAEAwBHMEUCIQDFKr9PUlkrIWhptiyWsp5Idqa9AZXBGqeY9n6nu50nkQIg
Rp6oHiJmCKJKsoij5ImgivPgEDVbKj/srZmIhoxd9+oAdgC72d+8H4pxtZOUI5eq
kntHOFeVCqtS6BqQlmQ2jh7RhQAAAW8QLk1mAAAEAwBHMEUCIQCVECgh0zKtjkE5
0tXbybinDaoWzPI3Xfw2GpPOcnN3hAIgD0mWrPC0lY0khLpr3dMeZkGnw5R01hDj
7vqnvZhKYr4wDQYJKoZIhvcNAQELBQADggEBAD10GOoNB2RT3pTqDfqeh43WMjig
wr4JlhxlMniFbqrKX+rtglEAWCqjX/S6wds9fxn7fqW10U+2Ojak99noSVnI1evU
yY3YjyrRtRbKOhHE1dqKOHb7VzSmCa5IO8Q9XWLsOlROWdIRGRiIkVpss2t2jO2w
YcPPg5D3qo2IzpD1FjXdUf9vH9QJt1d0MFS9YaHrvM1n1TzC5Uwm7gjB3h4SEmTs
2SzWSQEx+LJMSMz5fT5JW7KHXcEJr2Ab7R9tTO6x7KI3nFdy1l6Lq9Q5BaHWtAuj
nDzPHu1MUdd/sT4VyPhbUSmpFpnREuWhN4ZzRuS5tttIC3WkUdD3pO7lSrE=
-----END CERTIFICATE-----
