[Created by: generate-chains.py]

Certificate chain where the target certificate is signed using a weak RSA
key (512-bit modulus).

Certificate:
    Data:
        Version: 3 (0x2)
        Serial Number:
            73:1d:79:3f:16:15:f2:fa:19:a6:58:c1:bc:00:3c:16:5c:12:fe:f0
    Signature Algorithm: sha256WithRSAEncryption
        Issuer: CN=Intermediate
        Validity
            Not Before: Mar 10 12:00:00 2018 GMT
            Not After : Jan  1 12:00:00 2021 GMT
        Subject: CN=Target
        Subject Public Key Info:
            Public Key Algorithm: rsaEncryption
                Public-Key: (2048 bit)
                Modulus:
                    00:f2:42:db:44:b2:6b:f2:0a:41:04:53:7d:0b:34:
                    a4:fe:8d:d5:3a:ff:e5:a9:0c:5d:e4:2d:69:fe:e3:
                    dd:8a:47:2f:e8:9e:5a:54:ab:0b:95:84:16:af:fa:
                    29:11:43:5c:c9:59:15:30:59:77:bb:62:dd:d6:e4:
                    27:3a:bf:a9:82:cb:b8:f4:3c:5c:1d:74:87:8d:57:
                    af:0a:69:91:68:b4:aa:f6:14:8b:25:14:60:68:c9:
                    8d:56:09:06:a6:ad:12:8a:cb:05:33:b0:1e:11:03:
                    52:bf:af:7d:87:b0:97:22:fb:5a:f4:ea:5b:14:56:
                    cc:ad:03:2a:da:75:59:35:8b:88:3a:b7:66:3b:18:
                    a8:7c:c4:29:4f:66:ac:da:1f:ba:ec:ef:fc:55:01:
                    1e:31:7a:af:ca:5c:5d:cf:73:49:2f:50:b9:0d:3b:
                    4c:0c:d9:b0:d6:25:86:ea:3d:4d:ea:de:3b:9c:2a:
                    79:b3:c6:13:9a:bb:22:53:62:7c:a9:05:a6:a3:c7:
                    f5:28:72:24:c0:d6:ec:6f:66:eb:5a:85:91:5e:cd:
                    a5:95:cc:9f:60:88:a1:bc:95:33:1f:f4:8f:99:68:
                    56:64:39:4c:a4:df:f3:41:10:14:50:e5:ba:42:e5:
                    c6:ec:50:37:44:26:de:0d:28:71:b8:63:bb:38:7e:
                    04:a9
                Exponent: 65537 (0x10001)
        X509v3 extensions:
            X509v3 Subject Key Identifier: 
                78:F8:8D:81:56:D4:CD:CF:11:9F:9E:DD:3D:6C:F2:07:FE:0F:37:7D
            X509v3 Authority Key Identifier: 
                keyid:E9:D8:44:8D:24:EE:A1:82:18:6F:21:FA:4E:EC:FB:DF:D1:91:57:9D

            Authority Information Access: 
                CA Issuers - URI:http://url-for-aia/Intermediate.cer

            X509v3 CRL Distribution Points: 

                Full Name:
                  URI:http://url-for-crl/Intermediate.crl

            X509v3 Key Usage: critical
                Digital Signature, Key Encipherment
            X509v3 Extended Key Usage: 
                TLS Web Server Authentication, TLS Web Client Authentication
    Signature Algorithm: sha256WithRSAEncryption
         42:e2:79:64:af:be:57:9d:1c:2d:5f:df:45:f6:5e:48:f2:fc:
         ef:33:55:11:b2:53:53:75:a6:22:28:2a:62:5d:a8:13:52:76:
         ef:0e:43:c8:01:21:ec:26:f8:98:e9:ba:86:1c:41:dd:a3:a8:
         41:a1:22:d3:54:cd:5d:b9:8b:94
-----BEGIN CERTIFICATE-----
MIIC3jCCAoigAwIBAgIUcx15PxYV8voZpljBvAA8FlwS/vAwDQYJKoZIhvcNAQEL
BQAwFzEVMBMGA1UEAwwMSW50ZXJtZWRpYXRlMB4XDTE4MDMxMDEyMDAwMFoXDTIx
MDEwMTEyMDAwMFowETEPMA0GA1UEAwwGVGFyZ2V0MIIBIjANBgkqhkiG9w0BAQEF
AAOCAQ8AMIIBCgKCAQEA8kLbRLJr8gpBBFN9CzSk/o3VOv/lqQxd5C1p/uPdikcv
6J5aVKsLlYQWr/opEUNcyVkVMFl3u2Ld1uQnOr+pgsu49DxcHXSHjVevCmmRaLSq
9hSLJRRgaMmNVgkGpq0SissFM7AeEQNSv699h7CXIvta9OpbFFbMrQMq2nVZNYuI
OrdmOxiofMQpT2as2h+67O/8VQEeMXqvylxdz3NJL1C5DTtMDNmw1iWG6j1N6t47
nCp5s8YTmrsiU2J8qQWmo8f1KHIkwNbsb2brWoWRXs2llcyfYIihvJUzH/SPmWhW
ZDlMpN/zQRAUUOW6QuXG7FA3RCbeDShxuGO7OH4EqQIDAQABo4HpMIHmMB0GA1Ud
DgQWBBR4+I2BVtTNzxGfnt09bPIH/g83fTAfBgNVHSMEGDAWgBTp2ESNJO6hghhv
IfpO7Pvf0ZFXnTA/BggrBgEFBQcBAQQzMDEwLwYIKwYBBQUHMAKGI2h0dHA6Ly91
cmwtZm9yLWFpYS9JbnRlcm1lZGlhdGUuY2VyMDQGA1UdHwQtMCswKaAnoCWGI2h0
dHA6Ly91cmwtZm9yLWNybC9JbnRlcm1lZGlhdGUuY3JsMA4GA1UdDwEB/wQEAwIF
oDAdBgNVHSUEFjAUBggrBgEFBQcDAQYIKwYBBQUHAwIwDQYJKoZIhvcNAQELBQAD
QQBC4nlkr75XnRwtX99F9l5I8vzvM1URslNTdaYiKCpiXagTUnbvDkPIASHsJviY
6bqGHEHdo6hBoSLTVM1duYuU
-----END CERTIFICATE-----

Certificate:
    Data:
        Version: 3 (0x2)
        Serial Number:
            1d:a9:8e:36:2e:87:ea:b5:92:e3:42:05:50:07:2b:bc:5f:13:0d:64
    Signature Algorithm: sha256WithRSAEncryption
        Issuer: CN=Root
        Validity
            Not Before: Mar 10 12:00:00 2018 GMT
            Not After : Jan  1 12:00:00 2021 GMT
        Subject: CN=Intermediate
        Subject Public Key Info:
            Public Key Algorithm: rsaEncryption
                Public-Key: (512 bit)
                Modulus:
                    00:d5:13:bb:52:bf:ca:19:1a:06:19:68:07:1d:e6:
                    87:16:d3:f0:e0:12:ba:a2:b5:2a:3d:ed:b3:64:16:
                    06:a3:50:fc:b0:a4:49:f2:f9:ab:34:ad:4f:db:0a:
                    3d:2b:25:92:86:3f:94:df:fb:fc:54:f2:c7:6d:9e:
                    d2:10:e0:cd:0d
                Exponent: 65537 (0x10001)
        X509v3 extensions:
            X509v3 Subject Key Identifier: 
                E9:D8:44:8D:24:EE:A1:82:18:6F:21:FA:4E:EC:FB:DF:D1:91:57:9D
            X509v3 Authority Key Identifier: 
                keyid:BE:33:72:47:C2:B1:97:41:99:C0:31:57:52:56:0C:B5:53:78:5A:A4

            Authority Information Access: 
                CA Issuers - URI:http://url-for-aia/Root.cer

            X509v3 CRL Distribution Points: 

                Full Name:
                  URI:http://url-for-crl/Root.crl

            X509v3 Key Usage: critical
                Certificate Sign, CRL Sign
            X509v3 Basic Constraints: critical
                CA:TRUE
    Signature Algorithm: sha256WithRSAEncryption
         1b:1d:0c:6c:6f:be:d3:59:97:ce:78:6e:20:4f:45:15:09:10:
         a0:cf:00:82:4b:23:cb:00:8a:b6:32:51:61:a8:78:d6:18:1d:
         9b:d4:62:43:5b:20:d0:92:fb:ae:22:3d:b6:c1:72:47:dc:42:
         9b:39:96:ce:51:30:1c:e5:42:52:f5:a1:42:3c:6e:df:46:90:
         ed:35:28:7d:66:db:2e:c0:fa:4e:30:d9:3f:cc:51:f2:0d:a0:
         4b:07:93:c9:29:43:8b:00:44:64:bb:35:a3:69:2d:f1:6b:ca:
         ee:d8:7d:ae:d1:9c:41:0a:b1:a7:9c:89:6a:89:e3:cb:a6:a5:
         a6:34:71:d0:81:dc:e0:30:c0:e6:88:e4:92:db:9b:4e:11:14:
         9d:c7:9e:a6:a1:e1:f8:f3:0c:4e:93:ce:f8:cb:7e:7b:78:57:
         54:d1:16:48:1d:79:ea:3f:11:6d:d1:11:7d:65:8d:6b:f6:80:
         e0:d7:58:29:27:f8:83:d9:2f:89:ec:cc:40:bc:9b:6d:ac:59:
         8c:92:98:59:fb:b1:84:d7:46:76:4a:da:e3:38:fc:4d:a8:07:
         38:a4:f7:14:ee:16:c2:a6:91:ea:57:35:95:3c:ff:0d:a1:b3:
         78:67:1a:b6:90:d3:ed:41:b8:59:ad:86:c6:6a:fa:8a:bb:7b:
         d2:87:be:17
-----BEGIN CERTIFICATE-----
MIICuDCCAaCgAwIBAgIUHamONi6H6rWS40IFUAcrvF8TDWQwDQYJKoZIhvcNAQEL
BQAwDzENMAsGA1UEAwwEUm9vdDAeFw0xODAzMTAxMjAwMDBaFw0yMTAxMDExMjAw
MDBaMBcxFTATBgNVBAMMDEludGVybWVkaWF0ZTBcMA0GCSqGSIb3DQEBAQUAA0sA
MEgCQQDVE7tSv8oZGgYZaAcd5ocW0/DgErqitSo97bNkFgajUPywpEny+as0rU/b
Cj0rJZKGP5Tf+/xU8sdtntIQ4M0NAgMBAAGjgcswgcgwHQYDVR0OBBYEFOnYRI0k
7qGCGG8h+k7s+9/RkVedMB8GA1UdIwQYMBaAFL4zckfCsZdBmcAxV1JWDLVTeFqk
MDcGCCsGAQUFBwEBBCswKTAnBggrBgEFBQcwAoYbaHR0cDovL3VybC1mb3ItYWlh
L1Jvb3QuY2VyMCwGA1UdHwQlMCMwIaAfoB2GG2h0dHA6Ly91cmwtZm9yLWNybC9S
b290LmNybDAOBgNVHQ8BAf8EBAMCAQYwDwYDVR0TAQH/BAUwAwEB/zANBgkqhkiG
9w0BAQsFAAOCAQEAGx0MbG++01mXznhuIE9FFQkQoM8AgksjywCKtjJRYah41hgd
m9RiQ1sg0JL7riI9tsFyR9xCmzmWzlEwHOVCUvWhQjxu30aQ7TUofWbbLsD6TjDZ
P8xR8g2gSweTySlDiwBEZLs1o2kt8WvK7th9rtGcQQqxp5yJaonjy6alpjRx0IHc
4DDA5ojkktubThEUnceepqHh+PMMTpPO+Mt+e3hXVNEWSB156j8RbdERfWWNa/aA
4NdYKSf4g9kviezMQLybbaxZjJKYWfuxhNdGdkra4zj8TagHOKT3FO4WwqaR6lc1
lTz/DaGzeGcatpDT7UG4Wa2Gxmr6irt70oe+Fw==
-----END CERTIFICATE-----

Certificate:
    Data:
        Version: 3 (0x2)
        Serial Number:
            1d:a9:8e:36:2e:87:ea:b5:92:e3:42:05:50:07:2b:bc:5f:13:0d:63
    Signature Algorithm: sha256WithRSAEncryption
        Issuer: CN=Root
        Validity
            Not Before: Mar 10 12:00:00 2018 GMT
            Not After : Jan  1 12:00:00 2021 GMT
        Subject: CN=Root
        Subject Public Key Info:
            Public Key Algorithm: rsaEncryption
                Public-Key: (2048 bit)
                Modulus:
                    00:ca:3f:f8:1f:42:8f:55:98:f8:9f:fb:94:03:42:
                    2a:c1:42:3a:2b:2a:f3:54:14:f3:fe:67:25:24:d3:
                    9a:7f:66:1a:60:0b:9d:d8:bd:65:71:b5:f5:d9:fe:
                    eb:f6:04:72:57:97:bc:23:b0:be:bd:ce:94:9e:58:
                    1a:10:e7:33:09:0b:57:a8:1c:6f:fa:f7:ce:d1:31:
                    34:90:1a:b4:60:2d:d2:7f:29:9b:4e:ec:f4:6e:99:
                    21:6b:98:9c:90:09:fc:bd:2f:55:c3:34:38:48:4a:
                    73:fe:58:e2:09:b9:d9:f9:53:f6:84:e2:5d:fc:eb:
                    3c:ba:92:f5:bc:97:cc:ef:43:54:f7:4f:c9:b4:2c:
                    86:95:32:a6:e8:91:f5:8e:31:f8:de:b5:d9:c9:3d:
                    4d:d7:24:4c:8c:58:aa:8a:c5:79:ab:e7:cd:3b:5c:
                    84:67:52:5a:88:33:c3:55:d5:a9:2e:c9:5b:61:7c:
                    87:05:c1:0b:d7:19:4a:fe:bd:ba:af:d7:e5:70:d1:
                    a4:92:08:d2:f2:ca:2b:b1:94:d0:84:57:f9:30:92:
                    fc:3a:67:82:10:6e:e3:89:9f:b3:df:75:6e:99:46:
                    bd:ce:b1:e8:ac:a2:3b:21:80:da:11:13:bd:df:93:
                    0e:0e:ee:5d:f5:39:a2:a8:f7:41:c8:cb:00:5c:ac:
                    ee:b1
                Exponent: 65537 (0x10001)
        X509v3 extensions:
            X509v3 Subject Key Identifier: 
                BE:33:72:47:C2:B1:97:41:99:C0:31:57:52:56:0C:B5:53:78:5A:A4
            X509v3 Authority Key Identifier: 
                keyid:BE:33:72:47:C2:B1:97:41:99:C0:31:57:52:56:0C:B5:53:78:5A:A4

            Authority Information Access: 
                CA Issuers - URI:http://url-for-aia/Root.cer

            X509v3 CRL Distribution Points: 

                Full Name:
                  URI:http://url-for-crl/Root.crl

            X509v3 Key Usage: critical
                Certificate Sign, CRL Sign
            X509v3 Basic Constraints: critical
                CA:TRUE
    Signature Algorithm: sha256WithRSAEncryption
         7c:5d:8a:6d:ee:0c:f6:ce:44:e8:c4:aa:e3:52:1f:d4:c8:40:
         d5:d0:d3:19:64:99:6a:b8:b5:99:0f:56:58:d5:f0:e8:23:5a:
         c1:cb:ef:a1:d6:2b:38:a9:57:00:e7:6e:6d:9f:52:97:e3:1c:
         57:ff:72:81:ec:ef:1e:67:cb:98:ce:80:b0:de:10:34:c8:28:
         c6:08:64:b7:63:cc:5e:42:59:20:5e:b8:cf:1c:16:09:73:2e:
         f9:3c:d2:0b:75:de:96:e0:27:20:a1:30:17:00:a0:be:1c:33:
         06:53:27:c2:c8:d6:dd:6f:0d:82:78:e5:03:43:19:84:b2:ba:
         24:9d:75:2f:b0:f1:98:80:c0:2a:42:e5:5a:6e:3f:ca:62:ba:
         df:2d:69:68:6a:5b:d7:28:aa:5c:b3:65:52:23:80:d5:49:80:
         cd:73:b8:a0:81:5b:85:d5:da:1b:60:4c:d1:0e:de:27:70:dd:
         e7:7f:04:4c:b0:d0:18:fc:07:02:a6:ec:0c:00:a4:5f:1f:cc:
         26:0f:a4:d8:f2:08:87:a0:ff:d1:7f:9a:76:9f:6c:db:69:71:
         aa:f8:0f:58:d7:25:7c:79:15:7f:a0:7e:b1:3d:48:88:84:c2:
         77:e6:00:b6:96:be:a4:1a:92:e3:91:fc:36:45:40:14:cf:8e:
         ff:38:c4:3c
-----BEGIN CERTIFICATE-----
MIIDeDCCAmCgAwIBAgIUHamONi6H6rWS40IFUAcrvF8TDWMwDQYJKoZIhvcNAQEL
BQAwDzENMAsGA1UEAwwEUm9vdDAeFw0xODAzMTAxMjAwMDBaFw0yMTAxMDExMjAw
MDBaMA8xDTALBgNVBAMMBFJvb3QwggEiMA0GCSqGSIb3DQEBAQUAA4IBDwAwggEK
AoIBAQDKP/gfQo9VmPif+5QDQirBQjorKvNUFPP+ZyUk05p/ZhpgC53YvWVxtfXZ
/uv2BHJXl7wjsL69zpSeWBoQ5zMJC1eoHG/6987RMTSQGrRgLdJ/KZtO7PRumSFr
mJyQCfy9L1XDNDhISnP+WOIJudn5U/aE4l386zy6kvW8l8zvQ1T3T8m0LIaVMqbo
kfWOMfjetdnJPU3XJEyMWKqKxXmr5807XIRnUlqIM8NV1akuyVthfIcFwQvXGUr+
vbqv1+Vw0aSSCNLyyiuxlNCEV/kwkvw6Z4IQbuOJn7PfdW6ZRr3OseisojshgNoR
E73fkw4O7l31OaKo90HIywBcrO6xAgMBAAGjgcswgcgwHQYDVR0OBBYEFL4zckfC
sZdBmcAxV1JWDLVTeFqkMB8GA1UdIwQYMBaAFL4zckfCsZdBmcAxV1JWDLVTeFqk
MDcGCCsGAQUFBwEBBCswKTAnBggrBgEFBQcwAoYbaHR0cDovL3VybC1mb3ItYWlh
L1Jvb3QuY2VyMCwGA1UdHwQlMCMwIaAfoB2GG2h0dHA6Ly91cmwtZm9yLWNybC9S
b290LmNybDAOBgNVHQ8BAf8EBAMCAQYwDwYDVR0TAQH/BAUwAwEB/zANBgkqhkiG
9w0BAQsFAAOCAQEAfF2Kbe4M9s5E6MSq41If1MhA1dDTGWSZari1mQ9WWNXw6CNa
wcvvodYrOKlXAOdubZ9Sl+McV/9ygezvHmfLmM6AsN4QNMgoxghkt2PMXkJZIF64
zxwWCXMu+TzSC3XeluAnIKEwFwCgvhwzBlMnwsjW3W8NgnjlA0MZhLK6JJ11L7Dx
mIDAKkLlWm4/ymK63y1paGpb1yiqXLNlUiOA1UmAzXO4oIFbhdXaG2BM0Q7eJ3Dd
538ETLDQGPwHAqbsDACkXx/MJg+k2PIIh6D/0X+adp9s22lxqvgPWNclfHkVf6B+
sT1IiITCd+YAtpa+pBqS45H8NkVAFM+O/zjEPA==
-----END CERTIFICATE-----
