Certificate:
    Data:
        Version: 3 (0x2)
        Serial Number: 2 (0x2)
    Signature Algorithm: sha256WithRSAEncryption
        Issuer: CN=Root
        Validity
            Not Before: Jan  1 12:00:00 2015 GMT
            Not After : Jan  1 12:00:00 2021 GMT
        Subject: CN=I
        Subject Public Key Info:
            Public Key Algorithm: rsaEncryption
                Public-Key: (2048 bit)
                Modulus:
                    00:b6:4f:5b:1d:65:ac:41:64:6c:e6:3c:08:1d:7f:
                    19:0b:4d:af:b9:b8:df:80:0f:3d:73:86:ac:41:5f:
                    06:aa:fe:f5:64:ce:40:54:52:0c:0b:58:41:0c:f5:
                    4c:9d:70:21:ac:c0:28:fa:ea:f3:ee:f8:fe:83:b4:
                    c0:58:2d:3d:9d:14:c1:56:cc:e6:73:08:81:df:48:
                    f2:36:f7:82:31:b2:39:76:57:94:f0:72:9f:24:59:
                    16:15:0b:62:27:f0:5e:e4:c0:eb:68:1b:c5:5a:c1:
                    94:d8:f3:73:3e:eb:f6:d2:3a:53:71:60:27:e6:62:
                    d4:dd:e5:2a:cf:0f:21:0f:17:af:5d:ac:37:8b:4d:
                    f8:34:75:65:23:06:c4:6f:7e:64:71:3d:9c:26:d4:
                    92:a2:5b:e5:2e:c5:1b:1f:11:56:8d:ab:55:57:b8:
                    bb:17:aa:b5:74:61:07:d0:66:8b:10:be:d6:21:fd:
                    8b:37:1d:65:86:fc:26:11:91:2b:c9:18:fa:bc:b4:
                    54:3d:87:6f:ab:3a:62:11:79:e3:d7:a8:2d:f2:50:
                    f2:31:2a:cb:12:80:f7:b8:08:0c:e9:01:7e:69:c7:
                    0f:64:79:b6:f6:02:1c:b3:bd:72:4b:08:b2:e0:97:
                    4f:e5:8e:7c:82:d1:a4:b1:bd:c5:de:c5:63:f1:63:
                    97:65
                Exponent: 65537 (0x10001)
        X509v3 extensions:
            X509v3 Subject Key Identifier: 
                0F:21:17:94:40:B1:A6:7C:59:FA:1C:C5:38:CF:62:E8:84:8B:1C:2C
            X509v3 Authority Key Identifier: 
                keyid:2F:98:67:67:BF:DA:3E:E8:0B:40:70:66:C5:B6:3B:23:73:22:20:B2

            Authority Information Access: 
                CA Issuers - URI:http://url-for-aia/Root.cer

            X509v3 CRL Distribution Points: 

                Full Name:
                  URI:http://url-for-crl/Root.crl

            X509v3 Key Usage: critical
                Certificate Sign, CRL Sign
            X509v3 Basic Constraints: critical
                CA:TRUE
    Signature Algorithm: sha256WithRSAEncryption
         91:e0:50:d1:d6:6d:98:f0:dd:ba:5f:55:1e:2d:4d:5a:96:0d:
         ca:dc:24:01:b4:d8:ea:d4:aa:a5:82:b1:78:04:1f:36:b2:6c:
         e4:9d:0c:d5:79:3d:d5:34:c3:06:ac:ff:d5:b9:ea:e6:db:dd:
         7d:76:cf:f0:19:3b:65:d4:d3:15:bc:e6:74:c4:ce:fe:d6:21:
         95:3a:38:fe:eb:6a:7c:b0:24:1e:ca:4e:b0:48:9b:df:b8:cf:
         b5:3b:59:ef:a4:6a:c2:8b:64:ff:c3:1e:7d:69:79:3d:65:36:
         e6:29:d0:af:26:2f:70:e3:4a:7c:a5:b8:c1:48:05:e3:76:d2:
         04:62:d4:76:23:91:fc:b5:bb:fb:ff:3b:3c:df:96:e1:dc:79:
         fd:5c:78:2a:ae:2e:b2:79:8c:34:75:51:71:a7:b1:2d:58:50:
         a2:37:92:30:39:3c:18:4e:87:d4:98:24:76:23:76:d1:4c:0e:
         f0:d3:bf:ce:bf:ba:3f:2f:c9:dd:59:51:15:14:4b:8b:94:40:
         19:12:e3:39:52:24:91:cd:5e:b1:ea:c4:6c:14:d3:67:d3:d8:
         fd:ec:42:ef:62:3c:d3:db:9a:8f:f2:4d:9a:36:cc:66:33:a2:
         e1:df:6a:9f:59:2a:e7:01:9d:d3:db:5c:b9:f3:cb:b7:29:cc:
         fe:1c:72:17
-----BEGIN CERTIFICATE-----
MIIDYjCCAkqgAwIBAgIBAjANBgkqhkiG9w0BAQsFADAPMQ0wCwYDVQQDDARSb290
MB4XDTE1MDEwMTEyMDAwMFoXDTIxMDEwMTEyMDAwMFowDDEKMAgGA1UEAwwBSTCC
ASIwDQYJKoZIhvcNAQEBBQADggEPADCCAQoCggEBALZPWx1lrEFkbOY8CB1/GQtN
r7m434APPXOGrEFfBqr+9WTOQFRSDAtYQQz1TJ1wIazAKPrq8+74/oO0wFgtPZ0U
wVbM5nMIgd9I8jb3gjGyOXZXlPBynyRZFhULYifwXuTA62gbxVrBlNjzcz7r9tI6
U3FgJ+Zi1N3lKs8PIQ8Xr12sN4tN+DR1ZSMGxG9+ZHE9nCbUkqJb5S7FGx8RVo2r
VVe4uxeqtXRhB9BmixC+1iH9izcdZYb8JhGRK8kY+ry0VD2Hb6s6YhF549eoLfJQ
8jEqyxKA97gIDOkBfmnHD2R5tvYCHLO9cksIsuCXT+WOfILRpLG9xd7FY/Fjl2UC
AwEAAaOByzCByDAdBgNVHQ4EFgQUDyEXlECxpnxZ+hzFOM9i6ISLHCwwHwYDVR0j
BBgwFoAUL5hnZ7/aPugLQHBmxbY7I3MiILIwNwYIKwYBBQUHAQEEKzApMCcGCCsG
AQUFBzAChhtodHRwOi8vdXJsLWZvci1haWEvUm9vdC5jZXIwLAYDVR0fBCUwIzAh
oB+gHYYbaHR0cDovL3VybC1mb3ItY3JsL1Jvb3QuY3JsMA4GA1UdDwEB/wQEAwIB
BjAPBgNVHRMBAf8EBTADAQH/MA0GCSqGSIb3DQEBCwUAA4IBAQCR4FDR1m2Y8N26
X1UeLU1alg3K3CQBtNjq1KqlgrF4BB82smzknQzVeT3VNMMGrP/Vuerm2919ds/w
GTtl1NMVvOZ0xM7+1iGVOjj+62p8sCQeyk6wSJvfuM+1O1nvpGrCi2T/wx59aXk9
ZTbmKdCvJi9w40p8pbjBSAXjdtIEYtR2I5H8tbv7/zs835bh3Hn9XHgqri6yeYw0
dVFxp7EtWFCiN5IwOTwYTofUmCR2I3bRTA7w07/Ov7o/L8ndWVEVFEuLlEAZEuM5
UiSRzV6x6sRsFNNn09j97ELvYjzT25qP8k2aNsxmM6Lh32qfWSrnAZ3T21y588u3
Kcz+HHIX
-----END CERTIFICATE-----
