Certificate:
    Data:
        Version: 3 (0x2)
        Serial Number: 3 (0x3)
    Signature Algorithm: sha256WithRSAEncryption
        Issuer: CN=Root
        Validity
            Not Before: Jan  1 12:00:00 2015 GMT
            Not After : Jan  1 12:00:00 2021 GMT
        Subject: CN=I
        Subject Public Key Info:
            Public Key Algorithm: rsaEncryption
                Public-Key: (2048 bit)
                Modulus:
                    00:b6:4f:5b:1d:65:ac:41:64:6c:e6:3c:08:1d:7f:
                    19:0b:4d:af:b9:b8:df:80:0f:3d:73:86:ac:41:5f:
                    06:aa:fe:f5:64:ce:40:54:52:0c:0b:58:41:0c:f5:
                    4c:9d:70:21:ac:c0:28:fa:ea:f3:ee:f8:fe:83:b4:
                    c0:58:2d:3d:9d:14:c1:56:cc:e6:73:08:81:df:48:
                    f2:36:f7:82:31:b2:39:76:57:94:f0:72:9f:24:59:
                    16:15:0b:62:27:f0:5e:e4:c0:eb:68:1b:c5:5a:c1:
                    94:d8:f3:73:3e:eb:f6:d2:3a:53:71:60:27:e6:62:
                    d4:dd:e5:2a:cf:0f:21:0f:17:af:5d:ac:37:8b:4d:
                    f8:34:75:65:23:06:c4:6f:7e:64:71:3d:9c:26:d4:
                    92:a2:5b:e5:2e:c5:1b:1f:11:56:8d:ab:55:57:b8:
                    bb:17:aa:b5:74:61:07:d0:66:8b:10:be:d6:21:fd:
                    8b:37:1d:65:86:fc:26:11:91:2b:c9:18:fa:bc:b4:
                    54:3d:87:6f:ab:3a:62:11:79:e3:d7:a8:2d:f2:50:
                    f2:31:2a:cb:12:80:f7:b8:08:0c:e9:01:7e:69:c7:
                    0f:64:79:b6:f6:02:1c:b3:bd:72:4b:08:b2:e0:97:
                    4f:e5:8e:7c:82:d1:a4:b1:bd:c5:de:c5:63:f1:63:
                    97:65
                Exponent: 65537 (0x10001)
        X509v3 extensions:
            X509v3 Subject Key Identifier: 
                0F:21:17:94:40:B1:A6:7C:59:FA:1C:C5:38:CF:62:E8:84:8B:1C:2C
            X509v3 Authority Key Identifier: 
                keyid:2F:98:67:67:BF:DA:3E:E8:0B:40:70:66:C5:B6:3B:23:73:22:20:B2

            Authority Information Access: 
                CA Issuers - URI:http://url-for-aia/Root.cer

            X509v3 CRL Distribution Points: 

                Full Name:
                  URI:http://url-for-crl/Root.crl

            X509v3 Key Usage: critical
                Certificate Sign, CRL Sign
            X509v3 Basic Constraints: critical
                CA:TRUE
    Signature Algorithm: sha256WithRSAEncryption
         97:21:ab:45:76:05:d5:65:55:e9:4f:e3:ce:f2:95:0f:7d:94:
         38:99:43:90:96:c2:f8:b4:dc:d4:cf:4c:f5:2d:6b:e6:61:85:
         41:f9:57:b9:f0:20:dd:a8:45:04:ba:91:0b:f3:5e:d7:db:2e:
         8d:01:c8:22:dd:fd:6f:83:ab:d9:e2:03:06:98:18:ac:b1:39:
         20:3a:fa:33:15:86:27:9e:47:1e:23:7e:1a:13:b1:8c:9d:09:
         e1:b5:d2:24:30:b2:46:06:71:97:16:f3:1a:56:29:5b:66:ce:
         41:fb:6f:62:b4:d5:1f:d4:ee:ca:42:e0:5f:f5:71:9d:c0:8c:
         bf:79:05:1d:c4:d9:62:50:d9:9f:88:23:f1:bf:d7:eb:5e:ad:
         82:3c:54:35:d4:bf:57:ac:ef:aa:46:9e:08:6a:2a:ac:25:b6:
         42:43:ca:02:06:cc:cf:9a:3f:83:6f:a2:57:bb:ce:c3:a6:fb:
         02:dd:87:ca:eb:25:5d:b9:3b:52:36:80:8d:eb:c5:8f:91:ed:
         83:60:a5:bc:7d:76:dc:e0:2a:3a:9f:93:4c:88:af:c1:ff:3b:
         95:39:aa:14:45:aa:89:10:1d:20:5d:1c:42:ad:5b:d6:9b:f9:
         d5:50:73:1f:41:9a:ca:bd:5c:4f:c2:9d:ae:0e:3a:4f:8a:60:
         a2:17:8e:2a
-----BEGIN CERTIFICATE-----
MIIDYjCCAkqgAwIBAgIBAzANBgkqhkiG9w0BAQsFADAPMQ0wCwYDVQQDDARSb290
MB4XDTE1MDEwMTEyMDAwMFoXDTIxMDEwMTEyMDAwMFowDDEKMAgGA1UEAwwBSTCC
ASIwDQYJKoZIhvcNAQEBBQADggEPADCCAQoCggEBALZPWx1lrEFkbOY8CB1/GQtN
r7m434APPXOGrEFfBqr+9WTOQFRSDAtYQQz1TJ1wIazAKPrq8+74/oO0wFgtPZ0U
wVbM5nMIgd9I8jb3gjGyOXZXlPBynyRZFhULYifwXuTA62gbxVrBlNjzcz7r9tI6
U3FgJ+Zi1N3lKs8PIQ8Xr12sN4tN+DR1ZSMGxG9+ZHE9nCbUkqJb5S7FGx8RVo2r
VVe4uxeqtXRhB9BmixC+1iH9izcdZYb8JhGRK8kY+ry0VD2Hb6s6YhF549eoLfJQ
8jEqyxKA97gIDOkBfmnHD2R5tvYCHLO9cksIsuCXT+WOfILRpLG9xd7FY/Fjl2UC
AwEAAaOByzCByDAdBgNVHQ4EFgQUDyEXlECxpnxZ+hzFOM9i6ISLHCwwHwYDVR0j
BBgwFoAUL5hnZ7/aPugLQHBmxbY7I3MiILIwNwYIKwYBBQUHAQEEKzApMCcGCCsG
AQUFBzAChhtodHRwOi8vdXJsLWZvci1haWEvUm9vdC5jZXIwLAYDVR0fBCUwIzAh
oB+gHYYbaHR0cDovL3VybC1mb3ItY3JsL1Jvb3QuY3JsMA4GA1UdDwEB/wQEAwIB
BjAPBgNVHRMBAf8EBTADAQH/MA0GCSqGSIb3DQEBCwUAA4IBAQCXIatFdgXVZVXp
T+PO8pUPfZQ4mUOQlsL4tNzUz0z1LWvmYYVB+Ve58CDdqEUEupEL817X2y6NAcgi
3f1vg6vZ4gMGmBissTkgOvozFYYnnkceI34aE7GMnQnhtdIkMLJGBnGXFvMaVilb
Zs5B+29itNUf1O7KQuBf9XGdwIy/eQUdxNliUNmfiCPxv9frXq2CPFQ11L9XrO+q
Rp4IaiqsJbZCQ8oCBszPmj+Db6JXu87DpvsC3YfK6yVduTtSNoCN68WPke2DYKW8
fXbc4Co6n5NMiK/B/zuVOaoURaqJEB0gXRxCrVvWm/nVUHMfQZrKvVxPwp2uDjpP
imCiF44q
-----END CERTIFICATE-----
