Certificate:
    Data:
        Version: 3 (0x2)
        Serial Number: 4 (0x4)
    Signature Algorithm: sha256WithRSAEncryption
        Issuer: CN=Root
        Validity
            Not Before: Jan  1 12:00:00 2015 GMT
            Not After : Jan  1 12:00:00 2021 GMT
        Subject: CN=I
        Subject Public Key Info:
            Public Key Algorithm: rsaEncryption
                Public-Key: (2048 bit)
                Modulus:
                    00:b6:4f:5b:1d:65:ac:41:64:6c:e6:3c:08:1d:7f:
                    19:0b:4d:af:b9:b8:df:80:0f:3d:73:86:ac:41:5f:
                    06:aa:fe:f5:64:ce:40:54:52:0c:0b:58:41:0c:f5:
                    4c:9d:70:21:ac:c0:28:fa:ea:f3:ee:f8:fe:83:b4:
                    c0:58:2d:3d:9d:14:c1:56:cc:e6:73:08:81:df:48:
                    f2:36:f7:82:31:b2:39:76:57:94:f0:72:9f:24:59:
                    16:15:0b:62:27:f0:5e:e4:c0:eb:68:1b:c5:5a:c1:
                    94:d8:f3:73:3e:eb:f6:d2:3a:53:71:60:27:e6:62:
                    d4:dd:e5:2a:cf:0f:21:0f:17:af:5d:ac:37:8b:4d:
                    f8:34:75:65:23:06:c4:6f:7e:64:71:3d:9c:26:d4:
                    92:a2:5b:e5:2e:c5:1b:1f:11:56:8d:ab:55:57:b8:
                    bb:17:aa:b5:74:61:07:d0:66:8b:10:be:d6:21:fd:
                    8b:37:1d:65:86:fc:26:11:91:2b:c9:18:fa:bc:b4:
                    54:3d:87:6f:ab:3a:62:11:79:e3:d7:a8:2d:f2:50:
                    f2:31:2a:cb:12:80:f7:b8:08:0c:e9:01:7e:69:c7:
                    0f:64:79:b6:f6:02:1c:b3:bd:72:4b:08:b2:e0:97:
                    4f:e5:8e:7c:82:d1:a4:b1:bd:c5:de:c5:63:f1:63:
                    97:65
                Exponent: 65537 (0x10001)
        X509v3 extensions:
            X509v3 Subject Key Identifier: 
                0F:21:17:94:40:B1:A6:7C:59:FA:1C:C5:38:CF:62:E8:84:8B:1C:2C
            X509v3 Authority Key Identifier: 
                keyid:2F:98:67:67:BF:DA:3E:E8:0B:40:70:66:C5:B6:3B:23:73:22:20:B2

            Authority Information Access: 
                CA Issuers - URI:http://url-for-aia/Root.cer

            X509v3 CRL Distribution Points: 

                Full Name:
                  URI:http://url-for-crl/Root.crl

            X509v3 Key Usage: critical
                Certificate Sign, CRL Sign
            X509v3 Basic Constraints: critical
                CA:TRUE
    Signature Algorithm: sha256WithRSAEncryption
         c3:51:08:91:4e:ad:57:ed:ef:ea:ca:84:88:0a:c5:93:64:79:
         b1:0a:dd:81:fb:3b:d3:91:67:89:6e:da:ae:ec:00:99:ce:43:
         79:c5:4f:25:2b:d2:e6:ea:e1:b1:5a:00:ec:fe:28:3a:00:51:
         80:41:9c:f5:c9:f7:83:bb:51:dd:c4:df:a2:89:6d:16:1b:08:
         6d:92:03:4e:94:ea:9c:ba:6b:a6:a4:1b:43:90:a1:ee:aa:61:
         87:b1:03:d4:06:1f:bf:c3:74:f3:1a:04:d3:a9:da:ba:3c:f6:
         e2:47:99:ca:68:b5:16:00:33:a3:01:cc:7b:fc:e5:61:03:5c:
         f1:94:ec:00:f4:dc:62:a6:2e:6e:54:c7:03:a1:6e:db:70:12:
         19:dd:70:4f:05:e3:05:6b:f7:99:46:30:87:68:5d:d4:c8:c1:
         72:75:48:88:30:e8:50:ce:24:75:74:4d:71:0e:06:35:8b:b8:
         00:4c:8f:63:d1:0b:ec:f1:40:41:5f:c7:d6:67:de:3e:2d:d0:
         a1:02:ea:c6:32:bb:be:a5:9b:5b:3e:10:79:cc:36:20:3c:39:
         75:5a:08:a3:63:2b:73:1c:5e:d4:76:f8:d1:41:2b:86:d0:e0:
         f3:0e:81:3b:c6:cb:8b:78:ad:e5:cc:3a:d7:92:e6:2a:36:08:
         17:50:2b:7e
-----BEGIN CERTIFICATE-----
MIIDYjCCAkqgAwIBAgIBBDANBgkqhkiG9w0BAQsFADAPMQ0wCwYDVQQDDARSb290
MB4XDTE1MDEwMTEyMDAwMFoXDTIxMDEwMTEyMDAwMFowDDEKMAgGA1UEAwwBSTCC
ASIwDQYJKoZIhvcNAQEBBQADggEPADCCAQoCggEBALZPWx1lrEFkbOY8CB1/GQtN
r7m434APPXOGrEFfBqr+9WTOQFRSDAtYQQz1TJ1wIazAKPrq8+74/oO0wFgtPZ0U
wVbM5nMIgd9I8jb3gjGyOXZXlPBynyRZFhULYifwXuTA62gbxVrBlNjzcz7r9tI6
U3FgJ+Zi1N3lKs8PIQ8Xr12sN4tN+DR1ZSMGxG9+ZHE9nCbUkqJb5S7FGx8RVo2r
VVe4uxeqtXRhB9BmixC+1iH9izcdZYb8JhGRK8kY+ry0VD2Hb6s6YhF549eoLfJQ
8jEqyxKA97gIDOkBfmnHD2R5tvYCHLO9cksIsuCXT+WOfILRpLG9xd7FY/Fjl2UC
AwEAAaOByzCByDAdBgNVHQ4EFgQUDyEXlECxpnxZ+hzFOM9i6ISLHCwwHwYDVR0j
BBgwFoAUL5hnZ7/aPugLQHBmxbY7I3MiILIwNwYIKwYBBQUHAQEEKzApMCcGCCsG
AQUFBzAChhtodHRwOi8vdXJsLWZvci1haWEvUm9vdC5jZXIwLAYDVR0fBCUwIzAh
oB+gHYYbaHR0cDovL3VybC1mb3ItY3JsL1Jvb3QuY3JsMA4GA1UdDwEB/wQEAwIB
BjAPBgNVHRMBAf8EBTADAQH/MA0GCSqGSIb3DQEBCwUAA4IBAQDDUQiRTq1X7e/q
yoSICsWTZHmxCt2B+zvTkWeJbtqu7ACZzkN5xU8lK9Lm6uGxWgDs/ig6AFGAQZz1
yfeDu1HdxN+iiW0WGwhtkgNOlOqcumumpBtDkKHuqmGHsQPUBh+/w3TzGgTTqdq6
PPbiR5nKaLUWADOjAcx7/OVhA1zxlOwA9Nxipi5uVMcDoW7bcBIZ3XBPBeMFa/eZ
RjCHaF3UyMFydUiIMOhQziR1dE1xDgY1i7gATI9j0Qvs8UBBX8fWZ94+LdChAurG
Mru+pZtbPhB5zDYgPDl1WgijYytzHF7UdvjRQSuG0ODzDoE7xsuLeK3lzDrXkuYq
NggXUCt+
-----END CERTIFICATE-----
