Certificate:
    Data:
        Version: 3 (0x2)
        Serial Number: 1 (0x1)
    Signature Algorithm: sha256WithRSAEncryption
        Issuer: CN=Root
        Validity
            Not Before: Jan  1 12:00:00 2015 GMT
            Not After : Jan  1 12:00:00 2021 GMT
        Subject: CN=Root
        Subject Public Key Info:
            Public Key Algorithm: rsaEncryption
                Public-Key: (2048 bit)
                Modulus:
                    00:ce:a5:b4:f5:80:6c:09:1b:2e:2b:20:82:c3:ea:
                    4d:b6:94:36:cf:e3:1f:a0:04:6f:24:9b:3b:12:64:
                    7f:eb:cd:18:17:8c:11:76:26:c1:ff:62:0b:80:80:
                    e6:eb:7e:63:cc:c7:61:bd:99:70:c5:29:be:7b:f6:
                    c3:5b:03:4a:0e:0e:12:b8:a4:35:57:d1:2b:9b:c8:
                    d3:70:05:a8:9e:53:84:66:1a:23:33:fb:f6:f2:d7:
                    c5:86:0d:86:3b:7c:a2:fa:8c:49:21:91:c5:73:da:
                    4f:de:2b:8b:f4:83:d6:fe:70:c1:b5:92:47:86:c3:
                    23:5d:cf:57:39:cc:f0:60:25:9c:1d:1a:1b:45:a4:
                    d8:f5:2b:48:24:e8:4a:81:8c:5f:07:a8:df:e3:e2:
                    7d:c2:25:ab:ee:bf:bd:94:74:67:9c:64:5c:ce:ec:
                    e5:92:09:d4:1f:62:00:72:81:09:51:06:ce:aa:09:
                    73:a2:ed:24:d3:c2:41:63:66:0d:af:ee:08:8d:c3:
                    ec:79:a5:4c:8e:03:0c:c9:87:c0:42:8a:54:89:21:
                    f2:a5:51:79:73:21:38:ba:33:0d:d1:59:a2:4e:da:
                    c2:df:12:6b:87:a0:75:60:91:8e:1c:51:01:26:b7:
                    91:44:d9:9b:8c:17:7e:9c:aa:81:c7:0f:2a:aa:60:
                    81:eb
                Exponent: 65537 (0x10001)
        X509v3 extensions:
            X509v3 Subject Key Identifier: 
                2F:98:67:67:BF:DA:3E:E8:0B:40:70:66:C5:B6:3B:23:73:22:20:B2
            X509v3 Authority Key Identifier: 
                keyid:2F:98:67:67:BF:DA:3E:E8:0B:40:70:66:C5:B6:3B:23:73:22:20:B2

            Authority Information Access: 
                CA Issuers - URI:http://url-for-aia/Root.cer

            X509v3 CRL Distribution Points: 

                Full Name:
                  URI:http://url-for-crl/Root.crl

            X509v3 Key Usage: critical
                Certificate Sign, CRL Sign
            X509v3 Basic Constraints: critical
                CA:TRUE
    Signature Algorithm: sha256WithRSAEncryption
         6f:58:36:3c:fb:05:f8:02:de:79:e3:ef:01:60:63:71:2f:0d:
         cf:3b:c6:bf:07:31:f7:eb:bd:6b:12:cb:a8:14:54:82:a1:5b:
         bf:47:d6:79:fc:1d:95:e6:29:44:04:f5:02:0d:f8:48:ec:2c:
         49:d1:a6:d0:c2:fd:47:09:f1:a8:84:5b:8f:7f:f3:f7:95:18:
         3d:ee:69:5e:65:d1:b2:f4:ab:f8:8b:15:f9:c5:54:56:37:60:
         95:96:14:24:b9:2b:8e:10:7f:20:f3:3f:2f:5a:3a:61:2d:46:
         bc:3b:e4:8c:18:8f:62:15:88:cd:f8:12:40:54:4c:b1:5e:96:
         00:c4:58:e1:3a:48:a3:1d:d5:7a:83:4f:e2:e7:00:a2:dc:c0:
         40:b5:68:61:6f:60:3e:8c:4a:37:e2:bf:68:aa:4c:97:f6:4c:
         fe:b1:1b:d9:cb:10:b4:71:bd:f7:7a:82:64:85:39:b2:8e:87:
         eb:a9:6b:d9:04:87:3f:2c:2d:fe:de:15:28:65:f2:ad:da:ec:
         10:ad:a0:a0:32:3d:f2:e9:b9:2e:8e:f0:84:d1:4d:7d:a7:d4:
         1d:55:74:dc:5d:a8:88:7c:cf:70:1a:cb:fb:b5:1e:bc:95:cd:
         19:dd:2c:1a:f7:62:4e:72:c3:9b:4f:20:91:57:27:44:5d:17:
         bf:6f:62:11
-----BEGIN CERTIFICATE-----
MIIDZTCCAk2gAwIBAgIBATANBgkqhkiG9w0BAQsFADAPMQ0wCwYDVQQDDARSb290
MB4XDTE1MDEwMTEyMDAwMFoXDTIxMDEwMTEyMDAwMFowDzENMAsGA1UEAwwEUm9v
dDCCASIwDQYJKoZIhvcNAQEBBQADggEPADCCAQoCggEBAM6ltPWAbAkbLisggsPq
TbaUNs/jH6AEbySbOxJkf+vNGBeMEXYmwf9iC4CA5ut+Y8zHYb2ZcMUpvnv2w1sD
Sg4OErikNVfRK5vI03AFqJ5ThGYaIzP79vLXxYYNhjt8ovqMSSGRxXPaT94ri/SD
1v5wwbWSR4bDI13PVznM8GAlnB0aG0Wk2PUrSCToSoGMXweo3+PifcIlq+6/vZR0
Z5xkXM7s5ZIJ1B9iAHKBCVEGzqoJc6LtJNPCQWNmDa/uCI3D7HmlTI4DDMmHwEKK
VIkh8qVReXMhOLozDdFZok7awt8Sa4egdWCRjhxRASa3kUTZm4wXfpyqgccPKqpg
gesCAwEAAaOByzCByDAdBgNVHQ4EFgQUL5hnZ7/aPugLQHBmxbY7I3MiILIwHwYD
VR0jBBgwFoAUL5hnZ7/aPugLQHBmxbY7I3MiILIwNwYIKwYBBQUHAQEEKzApMCcG
CCsGAQUFBzAChhtodHRwOi8vdXJsLWZvci1haWEvUm9vdC5jZXIwLAYDVR0fBCUw
IzAhoB+gHYYbaHR0cDovL3VybC1mb3ItY3JsL1Jvb3QuY3JsMA4GA1UdDwEB/wQE
AwIBBjAPBgNVHRMBAf8EBTADAQH/MA0GCSqGSIb3DQEBCwUAA4IBAQBvWDY8+wX4
At554+8BYGNxLw3PO8a/BzH3671rEsuoFFSCoVu/R9Z5/B2V5ilEBPUCDfhI7CxJ
0abQwv1HCfGohFuPf/P3lRg97mleZdGy9Kv4ixX5xVRWN2CVlhQkuSuOEH8g8z8v
WjphLUa8O+SMGI9iFYjN+BJAVEyxXpYAxFjhOkijHdV6g0/i5wCi3MBAtWhhb2A+
jEo34r9oqkyX9kz+sRvZyxC0cb33eoJkhTmyjofrqWvZBIc/LC3+3hUoZfKt2uwQ
raCgMj3y6bkujvCE0U19p9QdVXTcXaiIfM9wGsv7tR68lc0Z3Swa92JOcsObTyCR
VydEXRe/b2IR
-----END CERTIFICATE-----
