Certificate:
    Data:
        Version: 3 (0x2)
        Serial Number: 6 (0x6)
    Signature Algorithm: sha256WithRSAEncryption
        Issuer: CN=I
        Validity
            Not Before: Jan  1 12:00:00 2015 GMT
            Not After : Jan  1 12:00:00 2021 GMT
        Subject: CN=target
        Subject Public Key Info:
            Public Key Algorithm: rsaEncryption
                Public-Key: (2048 bit)
                Modulus:
                    00:cc:22:08:58:c2:04:8a:dd:26:10:9e:92:10:2e:
                    9c:c1:6f:c5:08:52:71:95:53:38:b5:cb:d0:bf:46:
                    54:37:8b:dc:93:8c:f4:01:73:1c:5b:03:9d:e7:c0:
                    36:bd:af:33:d1:2a:97:b6:ac:24:8e:93:9d:d1:8e:
                    01:fd:96:2f:89:33:71:e6:18:e1:b5:04:fb:ac:ac:
                    05:d7:5f:04:b9:83:af:f2:d3:de:4d:ea:58:02:6a:
                    39:9c:f2:d7:8d:25:bd:b6:0e:eb:7c:71:1b:00:ab:
                    77:ef:38:75:57:77:b2:5b:ac:c2:5d:eb:3c:9e:0a:
                    43:2d:bc:8b:4b:f0:6e:83:b5:ef:9b:1d:35:22:25:
                    b0:37:11:69:9e:42:63:ad:0a:da:f2:a7:4c:76:f8:
                    30:0a:c7:82:57:43:aa:07:08:ed:a8:a0:2d:46:63:
                    6b:aa:91:c6:eb:d5:a4:ed:cd:27:48:4f:f4:f0:06:
                    5f:95:7c:26:cc:b2:bc:73:15:e4:34:9e:16:20:d2:
                    af:27:13:e1:0d:e2:88:9b:10:34:ae:e7:55:10:00:
                    00:6c:19:6f:78:52:ae:37:6d:e3:26:4a:69:59:40:
                    b2:d7:f1:2c:2b:46:2e:95:d4:0e:0b:e7:06:9b:32:
                    01:be:2f:da:12:f4:ac:15:ec:08:11:0d:4a:4e:1c:
                    3c:b5
                Exponent: 65537 (0x10001)
        X509v3 extensions:
            X509v3 Subject Key Identifier: 
                55:00:E2:BF:82:AB:DE:38:48:85:52:B3:20:D5:26:55:69:0E:47:33
            X509v3 Authority Key Identifier: 
                keyid:0F:21:17:94:40:B1:A6:7C:59:FA:1C:C5:38:CF:62:E8:84:8B:1C:2C

            Authority Information Access: 
                CA Issuers - URI:file:///dev/null

            X509v3 CRL Distribution Points: 

                Full Name:
                  URI:http://url-for-crl/I.crl

            X509v3 Key Usage: critical
                Digital Signature, Key Encipherment
            X509v3 Extended Key Usage: 
                TLS Web Server Authentication, TLS Web Client Authentication
            X509v3 Subject Alternative Name: 
                DNS:target
    Signature Algorithm: sha256WithRSAEncryption
         2e:2d:06:a8:37:b1:af:64:ff:12:28:ce:32:6e:64:40:28:55:
         8c:a5:e4:8d:5f:93:1d:55:c1:b0:e1:d0:34:bc:35:f4:6b:f3:
         f5:a7:c1:0e:b4:f2:a5:30:88:18:50:66:32:1c:7f:57:87:4f:
         1b:8c:31:52:36:6e:d0:3f:1e:b9:76:a4:82:9e:97:18:f4:12:
         04:e4:e7:ef:1d:e4:1d:a9:9e:d2:c5:ea:4e:c4:01:ee:37:73:
         9d:e9:e1:44:a8:c3:c9:a5:68:7d:d1:00:06:7b:28:cc:63:ad:
         67:aa:d2:3e:fa:50:da:54:e8:0a:78:97:70:ca:a0:be:5c:f0:
         0e:98:86:4f:60:bd:6c:1f:8a:12:95:46:b4:e6:38:62:28:1f:
         cb:f1:cd:82:4b:39:d5:7e:ba:41:0a:ca:e4:e5:cb:19:eb:fe:
         3e:25:80:69:de:3a:cf:ab:dc:6a:d4:70:3d:c5:a8:45:9e:66:
         23:b0:80:d8:53:64:c5:f3:bc:ef:d8:70:71:3c:25:0b:0d:33:
         7a:32:5b:2d:48:27:b3:93:81:56:f4:87:9d:f5:4b:68:35:5c:
         a7:3c:70:a5:a8:c4:64:43:6d:65:c7:07:d9:c7:2d:20:e4:55:
         a7:8a:00:84:96:70:0a:3b:84:3c:68:6a:bd:f4:55:e6:c8:80:
         17:dc:97:09
-----BEGIN CERTIFICATE-----
MIIDdzCCAl+gAwIBAgIBBjANBgkqhkiG9w0BAQsFADAMMQowCAYDVQQDDAFJMB4X
DTE1MDEwMTEyMDAwMFoXDTIxMDEwMTEyMDAwMFowETEPMA0GA1UEAwwGdGFyZ2V0
MIIBIjANBgkqhkiG9w0BAQEFAAOCAQ8AMIIBCgKCAQEAzCIIWMIEit0mEJ6SEC6c
wW/FCFJxlVM4tcvQv0ZUN4vck4z0AXMcWwOd58A2va8z0SqXtqwkjpOd0Y4B/ZYv
iTNx5hjhtQT7rKwF118EuYOv8tPeTepYAmo5nPLXjSW9tg7rfHEbAKt37zh1V3ey
W6zCXes8ngpDLbyLS/Bug7Xvmx01IiWwNxFpnkJjrQra8qdMdvgwCseCV0OqBwjt
qKAtRmNrqpHG69Wk7c0nSE/08AZflXwmzLK8cxXkNJ4WINKvJxPhDeKImxA0rudV
EAAAbBlveFKuN23jJkppWUCy1/EsK0YuldQOC+cGmzIBvi/aEvSsFewIEQ1KThw8
tQIDAQABo4HeMIHbMB0GA1UdDgQWBBRVAOK/gqveOEiFUrMg1SZVaQ5HMzAfBgNV
HSMEGDAWgBQPIReUQLGmfFn6HMU4z2LohIscLDAsBggrBgEFBQcBAQQgMB4wHAYI
KwYBBQUHMAKGEGZpbGU6Ly8vZGV2L251bGwwKQYDVR0fBCIwIDAeoBygGoYYaHR0
cDovL3VybC1mb3ItY3JsL0kuY3JsMA4GA1UdDwEB/wQEAwIFoDAdBgNVHSUEFjAU
BggrBgEFBQcDAQYIKwYBBQUHAwIwEQYDVR0RBAowCIIGdGFyZ2V0MA0GCSqGSIb3
DQEBCwUAA4IBAQAuLQaoN7GvZP8SKM4ybmRAKFWMpeSNX5MdVcGw4dA0vDX0a/P1
p8EOtPKlMIgYUGYyHH9Xh08bjDFSNm7QPx65dqSCnpcY9BIE5OfvHeQdqZ7SxepO
xAHuN3Od6eFEqMPJpWh90QAGeyjMY61nqtI++lDaVOgKeJdwyqC+XPAOmIZPYL1s
H4oSlUa05jhiKB/L8c2CSznVfrpBCsrk5csZ6/4+JYBp3jrPq9xq1HA9xahFnmYj
sIDYU2TF87zv2HBxPCULDTN6MlstSCezk4FW9Ied9UtoNVynPHClqMRkQ21lxwfZ
xy0g5FWnigCElnAKO4Q8aGq99FXmyIAX3JcJ
-----END CERTIFICATE-----
