Certificate:
    Data:
        Version: 3 (0x2)
        Serial Number: 2 (0x2)
    Signature Algorithm: sha256WithRSAEncryption
        Issuer: CN=I
        Validity
            Not Before: Jan  1 12:00:00 2015 GMT
            Not After : Jan  1 12:00:00 2021 GMT
        Subject: CN=target
        Subject Public Key Info:
            Public Key Algorithm: rsaEncryption
                Public-Key: (2048 bit)
                Modulus:
                    00:cc:22:08:58:c2:04:8a:dd:26:10:9e:92:10:2e:
                    9c:c1:6f:c5:08:52:71:95:53:38:b5:cb:d0:bf:46:
                    54:37:8b:dc:93:8c:f4:01:73:1c:5b:03:9d:e7:c0:
                    36:bd:af:33:d1:2a:97:b6:ac:24:8e:93:9d:d1:8e:
                    01:fd:96:2f:89:33:71:e6:18:e1:b5:04:fb:ac:ac:
                    05:d7:5f:04:b9:83:af:f2:d3:de:4d:ea:58:02:6a:
                    39:9c:f2:d7:8d:25:bd:b6:0e:eb:7c:71:1b:00:ab:
                    77:ef:38:75:57:77:b2:5b:ac:c2:5d:eb:3c:9e:0a:
                    43:2d:bc:8b:4b:f0:6e:83:b5:ef:9b:1d:35:22:25:
                    b0:37:11:69:9e:42:63:ad:0a:da:f2:a7:4c:76:f8:
                    30:0a:c7:82:57:43:aa:07:08:ed:a8:a0:2d:46:63:
                    6b:aa:91:c6:eb:d5:a4:ed:cd:27:48:4f:f4:f0:06:
                    5f:95:7c:26:cc:b2:bc:73:15:e4:34:9e:16:20:d2:
                    af:27:13:e1:0d:e2:88:9b:10:34:ae:e7:55:10:00:
                    00:6c:19:6f:78:52:ae:37:6d:e3:26:4a:69:59:40:
                    b2:d7:f1:2c:2b:46:2e:95:d4:0e:0b:e7:06:9b:32:
                    01:be:2f:da:12:f4:ac:15:ec:08:11:0d:4a:4e:1c:
                    3c:b5
                Exponent: 65537 (0x10001)
        X509v3 extensions:
            X509v3 Subject Key Identifier: 
                55:00:E2:BF:82:AB:DE:38:48:85:52:B3:20:D5:26:55:69:0E:47:33
            X509v3 Authority Key Identifier: 
                keyid:0F:21:17:94:40:B1:A6:7C:59:FA:1C:C5:38:CF:62:E8:84:8B:1C:2C

            X509v3 CRL Distribution Points: 

                Full Name:
                  URI:http://url-for-crl/I.crl

            X509v3 Key Usage: critical
                Digital Signature, Key Encipherment
            X509v3 Extended Key Usage: 
                TLS Web Server Authentication, TLS Web Client Authentication
            X509v3 Subject Alternative Name: 
                DNS:target
    Signature Algorithm: sha256WithRSAEncryption
         5b:31:f0:74:8f:8a:0f:d0:a0:5a:ee:fd:0a:e9:9f:99:e7:20:
         20:b7:83:de:e5:15:48:f2:25:7f:35:f9:17:3a:3e:23:c8:63:
         83:12:dd:7e:85:2b:37:5b:f1:e8:51:dc:66:4e:b4:62:ba:a3:
         ea:70:79:28:6a:e3:62:77:a3:36:19:2a:4d:99:df:d0:24:b0:
         e4:bb:58:d8:40:94:94:5b:82:4a:91:71:c3:fa:b3:1b:1b:38:
         0e:f7:a3:61:b5:8e:5d:0c:e4:dc:b8:a5:5b:0a:12:a5:bb:bf:
         1c:31:cd:e1:f0:a2:b5:a4:3c:82:77:02:22:02:5a:7e:14:6d:
         01:3d:36:83:73:f3:bb:d6:17:51:0b:12:47:67:33:1a:a6:60:
         d5:23:f8:e0:cd:09:b2:24:14:4b:76:82:27:43:82:a4:9d:dd:
         df:b7:93:91:b2:29:5f:82:1d:ff:77:40:4a:62:36:1d:45:e4:
         37:93:47:47:e9:85:a8:3b:23:dd:f9:fe:e4:f2:9f:2b:51:e7:
         95:b3:98:44:25:8a:6a:4d:cb:5e:32:8a:b8:c4:a9:00:37:00:
         45:d5:02:d9:49:c8:90:86:4b:65:ac:f3:0c:c0:0c:24:12:8f:
         ef:40:60:f9:f8:09:ff:2b:e9:58:19:7f:62:65:14:f5:0b:f3:
         01:45:44:af
-----BEGIN CERTIFICATE-----
MIIDSTCCAjGgAwIBAgIBAjANBgkqhkiG9w0BAQsFADAMMQowCAYDVQQDDAFJMB4X
DTE1MDEwMTEyMDAwMFoXDTIxMDEwMTEyMDAwMFowETEPMA0GA1UEAwwGdGFyZ2V0
MIIBIjANBgkqhkiG9w0BAQEFAAOCAQ8AMIIBCgKCAQEAzCIIWMIEit0mEJ6SEC6c
wW/FCFJxlVM4tcvQv0ZUN4vck4z0AXMcWwOd58A2va8z0SqXtqwkjpOd0Y4B/ZYv
iTNx5hjhtQT7rKwF118EuYOv8tPeTepYAmo5nPLXjSW9tg7rfHEbAKt37zh1V3ey
W6zCXes8ngpDLbyLS/Bug7Xvmx01IiWwNxFpnkJjrQra8qdMdvgwCseCV0OqBwjt
qKAtRmNrqpHG69Wk7c0nSE/08AZflXwmzLK8cxXkNJ4WINKvJxPhDeKImxA0rudV
EAAAbBlveFKuN23jJkppWUCy1/EsK0YuldQOC+cGmzIBvi/aEvSsFewIEQ1KThw8
tQIDAQABo4GwMIGtMB0GA1UdDgQWBBRVAOK/gqveOEiFUrMg1SZVaQ5HMzAfBgNV
HSMEGDAWgBQPIReUQLGmfFn6HMU4z2LohIscLDApBgNVHR8EIjAgMB6gHKAahhho
dHRwOi8vdXJsLWZvci1jcmwvSS5jcmwwDgYDVR0PAQH/BAQDAgWgMB0GA1UdJQQW
MBQGCCsGAQUFBwMBBggrBgEFBQcDAjARBgNVHREECjAIggZ0YXJnZXQwDQYJKoZI
hvcNAQELBQADggEBAFsx8HSPig/QoFru/Qrpn5nnICC3g97lFUjyJX81+Rc6PiPI
Y4MS3X6FKzdb8ehR3GZOtGK6o+pweShq42J3ozYZKk2Z39AksOS7WNhAlJRbgkqR
ccP6sxsbOA73o2G1jl0M5Ny4pVsKEqW7vxwxzeHworWkPIJ3AiICWn4UbQE9NoNz
87vWF1ELEkdnMxqmYNUj+ODNCbIkFEt2gidDgqSd3d+3k5GyKV+CHf93QEpiNh1F
5DeTR0fphag7I935/uTynytR55WzmEQlimpNy14yirjEqQA3AEXVAtlJyJCGS2Ws
8wzADCQSj+9AYPn4Cf8r6VgZf2JlFPUL8wFFRK8=
-----END CERTIFICATE-----
