Certificate:
    Data:
        Version: 3 (0x2)
        Serial Number: 3 (0x3)
    Signature Algorithm: sha256WithRSAEncryption
        Issuer: CN=I
        Validity
            Not Before: Jan  1 12:00:00 2015 GMT
            Not After : Jan  1 12:00:00 2021 GMT
        Subject: CN=target
        Subject Public Key Info:
            Public Key Algorithm: rsaEncryption
                Public-Key: (2048 bit)
                Modulus:
                    00:cc:22:08:58:c2:04:8a:dd:26:10:9e:92:10:2e:
                    9c:c1:6f:c5:08:52:71:95:53:38:b5:cb:d0:bf:46:
                    54:37:8b:dc:93:8c:f4:01:73:1c:5b:03:9d:e7:c0:
                    36:bd:af:33:d1:2a:97:b6:ac:24:8e:93:9d:d1:8e:
                    01:fd:96:2f:89:33:71:e6:18:e1:b5:04:fb:ac:ac:
                    05:d7:5f:04:b9:83:af:f2:d3:de:4d:ea:58:02:6a:
                    39:9c:f2:d7:8d:25:bd:b6:0e:eb:7c:71:1b:00:ab:
                    77:ef:38:75:57:77:b2:5b:ac:c2:5d:eb:3c:9e:0a:
                    43:2d:bc:8b:4b:f0:6e:83:b5:ef:9b:1d:35:22:25:
                    b0:37:11:69:9e:42:63:ad:0a:da:f2:a7:4c:76:f8:
                    30:0a:c7:82:57:43:aa:07:08:ed:a8:a0:2d:46:63:
                    6b:aa:91:c6:eb:d5:a4:ed:cd:27:48:4f:f4:f0:06:
                    5f:95:7c:26:cc:b2:bc:73:15:e4:34:9e:16:20:d2:
                    af:27:13:e1:0d:e2:88:9b:10:34:ae:e7:55:10:00:
                    00:6c:19:6f:78:52:ae:37:6d:e3:26:4a:69:59:40:
                    b2:d7:f1:2c:2b:46:2e:95:d4:0e:0b:e7:06:9b:32:
                    01:be:2f:da:12:f4:ac:15:ec:08:11:0d:4a:4e:1c:
                    3c:b5
                Exponent: 65537 (0x10001)
        X509v3 extensions:
            X509v3 Subject Key Identifier: 
                55:00:E2:BF:82:AB:DE:38:48:85:52:B3:20:D5:26:55:69:0E:47:33
            X509v3 Authority Key Identifier: 
                keyid:0F:21:17:94:40:B1:A6:7C:59:FA:1C:C5:38:CF:62:E8:84:8B:1C:2C

            Authority Information Access: 
                CA Issuers - URI:http://url-for-aia/I.cer
                CA Issuers - URI:http://url-for-aia2/I2.foo

            X509v3 CRL Distribution Points: 

                Full Name:
                  URI:http://url-for-crl/I.crl

            X509v3 Key Usage: critical
                Digital Signature, Key Encipherment
            X509v3 Extended Key Usage: 
                TLS Web Server Authentication, TLS Web Client Authentication
            X509v3 Subject Alternative Name: 
                DNS:target
    Signature Algorithm: sha256WithRSAEncryption
         77:29:3a:0d:fd:35:76:ed:b4:ef:07:a4:8f:50:07:e8:fa:d1:
         50:ac:03:49:04:b0:06:85:fa:e5:17:4e:fd:b4:70:40:73:49:
         42:4b:29:c4:92:4b:51:a1:a2:54:65:ed:70:b6:50:ed:87:8c:
         b6:ff:f8:88:a9:8b:14:9f:24:d1:2b:82:f6:6a:a7:25:bc:c6:
         f0:bf:84:3d:13:ee:ee:73:38:e8:27:f6:9c:94:94:ba:b5:a1:
         d3:bb:f4:5e:1e:f2:fb:cf:d0:09:62:c1:a2:08:18:82:2e:b4:
         15:cd:ec:64:3d:af:74:2e:bf:00:ae:55:9b:7b:a5:17:5d:2b:
         b6:00:8a:46:fc:28:ab:b2:35:92:2d:87:b0:d6:f6:3a:3a:eb:
         dd:84:0b:64:f3:45:25:a6:a1:8c:0e:05:09:31:51:72:92:68:
         9e:75:9e:f4:97:5c:3b:7b:aa:69:18:16:db:be:8b:d8:7b:c1:
         ea:45:b5:4c:be:1d:8c:d5:3c:be:dc:4e:16:e3:0e:ec:7a:af:
         ab:60:72:83:62:5f:3e:30:fe:81:95:81:d1:cb:c0:e2:ed:ca:
         ec:f0:75:2c:71:1c:dd:26:d6:ac:0a:01:82:ca:cd:f7:86:06:
         73:93:e0:ba:0a:04:7a:e6:e5:89:67:b1:ae:77:2b:84:b3:fe:
         3c:a7:55:30
-----BEGIN CERTIFICATE-----
MIIDqTCCApGgAwIBAgIBAzANBgkqhkiG9w0BAQsFADAMMQowCAYDVQQDDAFJMB4X
DTE1MDEwMTEyMDAwMFoXDTIxMDEwMTEyMDAwMFowETEPMA0GA1UEAwwGdGFyZ2V0
MIIBIjANBgkqhkiG9w0BAQEFAAOCAQ8AMIIBCgKCAQEAzCIIWMIEit0mEJ6SEC6c
wW/FCFJxlVM4tcvQv0ZUN4vck4z0AXMcWwOd58A2va8z0SqXtqwkjpOd0Y4B/ZYv
iTNx5hjhtQT7rKwF118EuYOv8tPeTepYAmo5nPLXjSW9tg7rfHEbAKt37zh1V3ey
W6zCXes8ngpDLbyLS/Bug7Xvmx01IiWwNxFpnkJjrQra8qdMdvgwCseCV0OqBwjt
qKAtRmNrqpHG69Wk7c0nSE/08AZflXwmzLK8cxXkNJ4WINKvJxPhDeKImxA0rudV
EAAAbBlveFKuN23jJkppWUCy1/EsK0YuldQOC+cGmzIBvi/aEvSsFewIEQ1KThw8
tQIDAQABo4IBDzCCAQswHQYDVR0OBBYEFFUA4r+Cq944SIVSsyDVJlVpDkczMB8G
A1UdIwQYMBaAFA8hF5RAsaZ8WfocxTjPYuiEixwsMFwGCCsGAQUFBwEBBFAwTjAk
BggrBgEFBQcwAoYYaHR0cDovL3VybC1mb3ItYWlhL0kuY2VyMCYGCCsGAQUFBzAC
hhpodHRwOi8vdXJsLWZvci1haWEyL0kyLmZvbzApBgNVHR8EIjAgMB6gHKAahhho
dHRwOi8vdXJsLWZvci1jcmwvSS5jcmwwDgYDVR0PAQH/BAQDAgWgMB0GA1UdJQQW
MBQGCCsGAQUFBwMBBggrBgEFBQcDAjARBgNVHREECjAIggZ0YXJnZXQwDQYJKoZI
hvcNAQELBQADggEBAHcpOg39NXbttO8HpI9QB+j60VCsA0kEsAaF+uUXTv20cEBz
SUJLKcSSS1GholRl7XC2UO2HjLb/+IipixSfJNErgvZqpyW8xvC/hD0T7u5zOOgn
9pyUlLq1odO79F4e8vvP0AliwaIIGIIutBXN7GQ9r3QuvwCuVZt7pRddK7YAikb8
KKuyNZIth7DW9jo6692EC2TzRSWmoYwOBQkxUXKSaJ51nvSXXDt7qmkYFtu+i9h7
wepFtUy+HYzVPL7cThbjDux6r6tgcoNiXz4w/oGVgdHLwOLtyuzwdSxxHN0m1qwK
AYLKzfeGBnOT4LoKBHrm5Ylnsa53K4Sz/jynVTA=
-----END CERTIFICATE-----
