Certificate:
    Data:
        Version: 3 (0x2)
        Serial Number: 7 (0x7)
    Signature Algorithm: sha256WithRSAEncryption
        Issuer: CN=I
        Validity
            Not Before: Jan  1 12:00:00 2015 GMT
            Not After : Jan  1 12:00:00 2021 GMT
        Subject: CN=target
        Subject Public Key Info:
            Public Key Algorithm: rsaEncryption
                Public-Key: (2048 bit)
                Modulus:
                    00:cc:22:08:58:c2:04:8a:dd:26:10:9e:92:10:2e:
                    9c:c1:6f:c5:08:52:71:95:53:38:b5:cb:d0:bf:46:
                    54:37:8b:dc:93:8c:f4:01:73:1c:5b:03:9d:e7:c0:
                    36:bd:af:33:d1:2a:97:b6:ac:24:8e:93:9d:d1:8e:
                    01:fd:96:2f:89:33:71:e6:18:e1:b5:04:fb:ac:ac:
                    05:d7:5f:04:b9:83:af:f2:d3:de:4d:ea:58:02:6a:
                    39:9c:f2:d7:8d:25:bd:b6:0e:eb:7c:71:1b:00:ab:
                    77:ef:38:75:57:77:b2:5b:ac:c2:5d:eb:3c:9e:0a:
                    43:2d:bc:8b:4b:f0:6e:83:b5:ef:9b:1d:35:22:25:
                    b0:37:11:69:9e:42:63:ad:0a:da:f2:a7:4c:76:f8:
                    30:0a:c7:82:57:43:aa:07:08:ed:a8:a0:2d:46:63:
                    6b:aa:91:c6:eb:d5:a4:ed:cd:27:48:4f:f4:f0:06:
                    5f:95:7c:26:cc:b2:bc:73:15:e4:34:9e:16:20:d2:
                    af:27:13:e1:0d:e2:88:9b:10:34:ae:e7:55:10:00:
                    00:6c:19:6f:78:52:ae:37:6d:e3:26:4a:69:59:40:
                    b2:d7:f1:2c:2b:46:2e:95:d4:0e:0b:e7:06:9b:32:
                    01:be:2f:da:12:f4:ac:15:ec:08:11:0d:4a:4e:1c:
                    3c:b5
                Exponent: 65537 (0x10001)
        X509v3 extensions:
            X509v3 Subject Key Identifier: 
                55:00:E2:BF:82:AB:DE:38:48:85:52:B3:20:D5:26:55:69:0E:47:33
            X509v3 Authority Key Identifier: 
                keyid:0F:21:17:94:40:B1:A6:7C:59:FA:1C:C5:38:CF:62:E8:84:8B:1C:2C

            Authority Information Access: 
                CA Issuers - URI:foobar

            X509v3 CRL Distribution Points: 

                Full Name:
                  URI:http://url-for-crl/I.crl

            X509v3 Key Usage: critical
                Digital Signature, Key Encipherment
            X509v3 Extended Key Usage: 
                TLS Web Server Authentication, TLS Web Client Authentication
            X509v3 Subject Alternative Name: 
                DNS:target
    Signature Algorithm: sha256WithRSAEncryption
         b2:9c:6a:97:12:d5:35:7c:19:48:32:77:02:1d:99:d9:7a:ee:
         9a:3e:cd:8c:8f:b9:12:bc:75:fc:72:de:dd:28:bc:ad:b4:17:
         6f:7d:1c:5c:17:77:0b:a7:d4:fc:2e:2f:d5:ce:d3:5d:8d:27:
         66:03:5f:2f:b0:ef:b9:74:f2:cf:8c:05:d9:5e:e3:8e:ff:95:
         3c:f5:94:18:df:b2:26:05:87:ed:fc:4d:ba:05:a7:0b:fc:1d:
         8f:80:de:6f:be:06:67:f2:6f:03:dc:34:9d:2c:1e:91:c4:d7:
         bf:9d:f0:0f:ea:82:39:f2:2d:97:9d:91:02:a7:7b:77:c3:c5:
         03:f9:53:06:36:50:08:90:5d:f6:11:8c:77:a2:99:46:28:b4:
         4d:27:a2:ba:55:07:15:8e:cb:88:d5:c3:75:ba:77:be:28:f3:
         87:62:44:86:4d:bb:4a:1f:2e:9f:b2:da:e3:6c:da:d0:0a:28:
         78:ae:a2:73:83:e1:72:c5:3a:62:cc:18:a8:02:4c:7e:64:fd:
         1f:08:8c:94:3e:d0:c0:f1:d6:3c:d7:30:da:75:e2:78:50:bb:
         8b:bb:dc:07:3c:9b:10:81:d1:15:e8:14:49:5d:ff:7e:71:55:
         c2:23:19:f6:cb:5f:03:04:50:8f:c2:4d:cd:94:3c:e4:1d:90:
         ca:8c:66:80
-----BEGIN CERTIFICATE-----
MIIDbTCCAlWgAwIBAgIBBzANBgkqhkiG9w0BAQsFADAMMQowCAYDVQQDDAFJMB4X
DTE1MDEwMTEyMDAwMFoXDTIxMDEwMTEyMDAwMFowETEPMA0GA1UEAwwGdGFyZ2V0
MIIBIjANBgkqhkiG9w0BAQEFAAOCAQ8AMIIBCgKCAQEAzCIIWMIEit0mEJ6SEC6c
wW/FCFJxlVM4tcvQv0ZUN4vck4z0AXMcWwOd58A2va8z0SqXtqwkjpOd0Y4B/ZYv
iTNx5hjhtQT7rKwF118EuYOv8tPeTepYAmo5nPLXjSW9tg7rfHEbAKt37zh1V3ey
W6zCXes8ngpDLbyLS/Bug7Xvmx01IiWwNxFpnkJjrQra8qdMdvgwCseCV0OqBwjt
qKAtRmNrqpHG69Wk7c0nSE/08AZflXwmzLK8cxXkNJ4WINKvJxPhDeKImxA0rudV
EAAAbBlveFKuN23jJkppWUCy1/EsK0YuldQOC+cGmzIBvi/aEvSsFewIEQ1KThw8
tQIDAQABo4HUMIHRMB0GA1UdDgQWBBRVAOK/gqveOEiFUrMg1SZVaQ5HMzAfBgNV
HSMEGDAWgBQPIReUQLGmfFn6HMU4z2LohIscLDAiBggrBgEFBQcBAQQWMBQwEgYI
KwYBBQUHMAKGBmZvb2JhcjApBgNVHR8EIjAgMB6gHKAahhhodHRwOi8vdXJsLWZv
ci1jcmwvSS5jcmwwDgYDVR0PAQH/BAQDAgWgMB0GA1UdJQQWMBQGCCsGAQUFBwMB
BggrBgEFBQcDAjARBgNVHREECjAIggZ0YXJnZXQwDQYJKoZIhvcNAQELBQADggEB
ALKcapcS1TV8GUgydwIdmdl67po+zYyPuRK8dfxy3t0ovK20F299HFwXdwun1Pwu
L9XO012NJ2YDXy+w77l08s+MBdle447/lTz1lBjfsiYFh+38TboFpwv8HY+A3m++
BmfybwPcNJ0sHpHE17+d8A/qgjnyLZedkQKne3fDxQP5UwY2UAiQXfYRjHeimUYo
tE0norpVBxWOy4jVw3W6d74o84diRIZNu0ofLp+y2uNs2tAKKHiuonOD4XLFOmLM
GKgCTH5k/R8IjJQ+0MDx1jzXMNp14nhQu4u73Ac8mxCB0RXoFEld/35xVcIjGfbL
XwMEUI/CTc2UPOQdkMqMZoA=
-----END CERTIFICATE-----
