This is generated from
    openssl x509 -req -in server.csr -CA BoringSSLCATest.crt \
      -CAkey BoringSSLCATest.key -CAcreateserial \
      -out BoringSSLServerTest-RSA-PSS-SHA256.crt -extfile svcconfig \
      -days 730500 -sigopt rsa_padding_mode:pss -sigopt rsa_pss_saltlen:-1 \
      -sigopt rsa_mgf1_md:sha256
Certificate:
    Data:
        Version: 3 (0x2)
        Serial Number:
            2a:7d:8e:d1:d8:49:df:fa:b6:31:9a:df:0b:04:9f:dc:cb:be:82:03
        Signature Algorithm: rsassaPss
        Hash Algorithm: sha256
        Mask Algorithm: mgf1 with sha256
         Salt Length: 0x20
        Trailer Field: 0x01 (default)
        Issuer: C=DE, ST=Freistaat Bayern, L=Muenchen, O=Google Germany GmbH, OU=ISE Crypto, CN=BoringSSL Authors, emailAddress=boringssl@google.com
        Validity
            Not Before: Feb  2 15:39:55 2026 GMT
            Not After : Feb 17 15:39:55 4026 GMT
        Subject: CN=www.google.com
        Subject Public Key Info:
            Public Key Algorithm: rsaEncryption
                Public-Key: (4096 bit)
                Modulus:
                    00:f7:a2:3f:8e:9e:a5:9a:f7:eb:c5:cf:d5:31:3b:
                    c0:ca:02:83:3a:81:90:9a:8d:47:d4:3c:c1:f2:61:
                    3d:87:11:25:7f:bc:b9:a4:dc:7f:3e:7d:30:1e:32:
                    8d:ec:d5:e0:b5:b2:47:b3:77:3d:2d:2e:61:dd:ad:
                    03:62:2d:e0:19:c8:fb:1f:43:ef:ed:cd:a2:96:8c:
                    61:27:fc:7d:9e:42:90:07:79:c8:87:f5:3a:ff:f9:
                    0e:25:b3:b2:67:45:3e:6b:a6:bf:0c:8d:ac:78:00:
                    8a:5d:6c:dd:97:8c:f6:1f:2f:73:c8:ed:af:39:73:
                    81:a5:38:fc:ed:a6:0c:1c:46:45:49:98:19:cd:4c:
                    3b:63:ac:67:9a:d8:95:36:46:b6:47:ec:cd:bd:84:
                    ca:8b:34:6e:5e:67:f0:1f:4f:c7:7e:57:97:3f:e6:
                    b9:7e:b1:f6:66:41:26:2b:3e:9f:1a:88:48:58:46:
                    7e:6d:6a:74:f0:4a:6f:f4:51:2d:cb:22:45:33:c1:
                    77:4d:c7:8a:0d:ad:0d:dc:6a:8e:5c:87:3a:a9:a7:
                    dc:df:45:0b:d8:36:5a:c9:3f:5c:2a:dc:9d:81:1d:
                    30:bd:0d:03:5d:cb:8d:f8:5d:31:81:76:97:c1:1f:
                    14:0c:54:3d:30:41:c4:7b:96:6f:8c:2a:2f:2a:fb:
                    fc:96:59:5f:7a:f6:48:4a:eb:8f:a6:c6:59:e1:e1:
                    05:27:cc:7d:c0:60:77:dd:8f:a2:7c:86:c1:d7:3e:
                    05:18:ad:54:c4:68:8f:10:d6:c7:f2:63:d8:17:bd:
                    8f:c3:29:08:9b:15:af:19:eb:a2:16:23:67:b8:b8:
                    b1:ee:ee:32:d3:8f:31:4b:19:c2:4e:f9:3e:9a:bf:
                    77:ec:b9:e9:d9:c7:9f:82:21:b8:2d:4d:ed:9c:30:
                    b1:b2:86:c1:38:22:3a:fe:08:21:fe:2e:94:d0:b9:
                    5a:ef:8f:b0:15:74:b2:df:37:28:59:fd:48:92:eb:
                    a2:6a:17:4f:90:0f:78:b9:d3:59:22:f6:10:b9:35:
                    a5:ea:21:c9:0b:55:3e:56:00:f4:6a:37:17:d9:94:
                    5a:d7:ec:76:6d:5d:22:9b:d0:bf:f1:03:b0:66:91:
                    8d:ae:ae:ee:6c:00:e8:03:ad:1a:c5:18:80:15:b0:
                    cb:af:2d:3e:b4:25:fc:01:db:70:09:fe:44:d0:2d:
                    f3:be:25:55:82:c9:a0:36:f6:be:0d:d7:39:a7:51:
                    9f:a7:ee:67:8a:a8:34:e6:f5:6d:82:54:bf:bc:07:
                    a6:26:da:0f:d6:58:f8:93:53:f9:f3:23:73:b5:69:
                    22:cf:ef:af:0a:77:07:53:a2:59:59:96:36:8a:11:
                    d0:ac:2d
                Exponent: 65537 (0x10001)
        X509v3 extensions:
            X509v3 Authority Key Identifier:
                EA:1B:59:1E:5D:E3:33:29:41:7F:D7:58:88:63:D4:2A:28:06:78:10
            X509v3 Basic Constraints:
                CA:FALSE
            X509v3 Key Usage:
                Digital Signature, Non Repudiation, Key Encipherment, Data Encipherment
            X509v3 Subject Alternative Name:
                DNS:www.google.com, DNS:localhost
            X509v3 Subject Key Identifier:
                3B:BF:82:CA:BD:B0:B7:0D:60:E4:DD:A5:3B:FC:AF:6A:F6:8A:A2:28
    Signature Algorithm: rsassaPss
    Signature Value:
        Hash Algorithm: sha256
        Mask Algorithm: mgf1 with sha256
         Salt Length: 0x20
        Trailer Field: 0x01 (default)
        96:84:18:0d:a9:40:54:39:26:80:58:7c:27:9a:28:06:b2:f2:
        59:f4:2c:3b:ab:a8:6e:77:33:27:6f:23:db:01:f3:11:22:ef:
        6a:ce:a4:fe:77:d1:18:fc:4c:85:13:e7:d9:ef:00:fc:b5:5d:
        b7:a7:e3:74:3d:4a:fb:a4:66:7e:d6:91:94:10:1a:3d:d5:f0:
        5a:68:25:71:23:b9:31:8d:ba:ef:2a:e6:dd:3e:85:2d:6b:f6:
        a6:7f:86:d9:a2:b5:8f:83:a6:56:b9:61:11:a5:e7:0c:19:20:
        9b:8c:e9:cc:b9:6b:69:fa:db:93:a8:bd:60:e2:0a:59:1d:58:
        51:3d:bd:44:df:f5:85:7c:19:04:47:8b:ca:18:09:3d:2a:ff:
        c4:fe:48:09:5b:b2:d8:66:55:60:95:3b:34:72:71:cb:af:dd:
        17:1a:bd:68:17:5f:50:38:39:4e:c3:95:61:35:63:27:f2:d0:
        da:20:7d:e2:d6:59:ec:c2:46:26:25:bc:a5:dd:7e:64:9a:44:
        33:31:84:75:05:3a:e2:a2:9a:8e:b2:cc:5e:95:1c:8d:2d:b4:
        9e:e0:f4:29:10:9e:16:0d:be:e7:1f:a9:ee:61:c0:48:4c:19:
        fb:b0:d5:83:ef:eb:ee:50:a9:5c:94:41:fc:40:23:ff:63:38:
        18:3a:ab:50:f5:7b:b7:eb:8d:2d:f4:62:bb:20:33:57:22:97:
        7f:6d:32:9b:bf:7a:01:73:de:a4:04:96:47:19:0f:6d:99:a9:
        51:b0:63:2e:ff:56:36:b9:2f:d4:6c:a7:9c:f5:bc:2f:23:d1:
        4a:85:a8:63:ea:6a:62:3e:ef:10:14:f7:b6:97:42:a4:7c:6c:
        ba:b1:53:ea:fc:4e:eb:db:20:60:41:32:26:dd:19:e0:a3:f4:
        06:f8:19:c3:48:9a:7e:7f:c7:c2:f4:88:55:5b:bc:41:69:be:
        ab:7f:36:fe:ea:df:32:25:ab:cc:fe:9b:37:a6:92:6d:f0:9f:
        4c:45:3f:e7:1a:7f:06:86:4b:95:bc:78:03:4f:42:fc:4b:ac:
        f6:3a:15:89:ed:40:25:34:b5:85:9d:16:1d:4c:1f:97:30:f1:
        68:58:09:fb:c2:83:76:b3:4a:cf:d1:fe:dc:33:a5:83:f8:0c:
        43:7b:f6:9c:36:17:ff:f7:a2:33:1e:db:83:9a:22:e3:76:2e:
        ca:f2:e6:cc:2e:59:20:be:6c:06:57:8a:43:9b:17:e1:46:10:
        c6:f7:bc:64:c7:18:ed:7a:88:9f:59:51:da:3d:2f:1c:a2:0a:
        92:1f:9a:e4:27:58:68:7f:71:d4:c2:b4:03:bb:e1:8b:92:2a:
        3d:75:1d:eb:54:3e:13:e7

-----BEGIN CERTIFICATE-----
MIIGQjCCA/agAwIBAgIUKn2O0dhJ3/q2MZrfCwSf3Mu+ggMwQQYJKoZIhvcNAQEK
MDSgDzANBglghkgBZQMEAgEFAKEcMBoGCSqGSIb3DQEBCDANBglghkgBZQMEAgEF
AKIDAgEgMIGvMQswCQYDVQQGEwJERTEZMBcGA1UECAwQRnJlaXN0YWF0IEJheWVy
bjERMA8GA1UEBwwITXVlbmNoZW4xHDAaBgNVBAoME0dvb2dsZSBHZXJtYW55IEdt
YkgxEzARBgNVBAsMCklTRSBDcnlwdG8xGjAYBgNVBAMMEUJvcmluZ1NTTCBBdXRo
b3JzMSMwIQYJKoZIhvcNAQkBFhRib3Jpbmdzc2xAZ29vZ2xlLmNvbTAgFw0yNjAy
MDIxNTM5NTVaGA80MDI2MDIxNzE1Mzk1NVowGTEXMBUGA1UEAwwOd3d3Lmdvb2ds
ZS5jb20wggIiMA0GCSqGSIb3DQEBAQUAA4ICDwAwggIKAoICAQD3oj+OnqWa9+vF
z9UxO8DKAoM6gZCajUfUPMHyYT2HESV/vLmk3H8+fTAeMo3s1eC1skezdz0tLmHd
rQNiLeAZyPsfQ+/tzaKWjGEn/H2eQpAHeciH9Tr/+Q4ls7JnRT5rpr8Mjax4AIpd
bN2XjPYfL3PI7a85c4GlOPztpgwcRkVJmBnNTDtjrGea2JU2RrZH7M29hMqLNG5e
Z/AfT8d+V5c/5rl+sfZmQSYrPp8aiEhYRn5tanTwSm/0US3LIkUzwXdNx4oNrQ3c
ao5chzqpp9zfRQvYNlrJP1wq3J2BHTC9DQNdy434XTGBdpfBHxQMVD0wQcR7lm+M
Ki8q+/yWWV969khK64+mxlnh4QUnzH3AYHfdj6J8hsHXPgUYrVTEaI8Q1sfyY9gX
vY/DKQibFa8Z66IWI2e4uLHu7jLTjzFLGcJO+T6av3fsuenZx5+CIbgtTe2cMLGy
hsE4Ijr+CCH+LpTQuVrvj7AVdLLfNyhZ/UiS66JqF0+QD3i501ki9hC5NaXqIckL
VT5WAPRqNxfZlFrX7HZtXSKb0L/xA7BmkY2uru5sAOgDrRrFGIAVsMuvLT60JfwB
23AJ/kTQLfO+JVWCyaA29r4N1zmnUZ+n7meKqDTm9W2CVL+8B6Ym2g/WWPiTU/nz
I3O1aSLP768KdwdTollZljaKEdCsLQIDAQABo4GAMH4wHwYDVR0jBBgwFoAU6htZ
Hl3jMylBf9dYiGPUKigGeBAwCQYDVR0TBAIwADALBgNVHQ8EBAMCBPAwJAYDVR0R
BB0wG4IOd3d3Lmdvb2dsZS5jb22CCWxvY2FsaG9zdDAdBgNVHQ4EFgQUO7+Cyr2w
tw1g5N2lO/yvavaKoigwQQYJKoZIhvcNAQEKMDSgDzANBglghkgBZQMEAgEFAKEc
MBoGCSqGSIb3DQEBCDANBglghkgBZQMEAgEFAKIDAgEgA4ICAQCWhBgNqUBUOSaA
WHwnmigGsvJZ9Cw7q6hudzMnbyPbAfMRIu9qzqT+d9EY/EyFE+fZ7wD8tV23p+N0
PUr7pGZ+1pGUEBo91fBaaCVxI7kxjbrvKubdPoUta/amf4bZorWPg6ZWuWERpecM
GSCbjOnMuWtp+tuTqL1g4gpZHVhRPb1E3/WFfBkER4vKGAk9Kv/E/kgJW7LYZlVg
lTs0cnHLr90XGr1oF19QODlOw5VhNWMn8tDaIH3i1lnswkYmJbyl3X5kmkQzMYR1
BTriopqOssxelRyNLbSe4PQpEJ4WDb7nH6nuYcBITBn7sNWD7+vuUKlclEH8QCP/
YzgYOqtQ9Xu3640t9GK7IDNXIpd/bTKbv3oBc96kBJZHGQ9tmalRsGMu/1Y2uS/U
bKec9bwvI9FKhahj6mpiPu8QFPe2l0KkfGy6sVPq/E7r2yBgQTIm3Rngo/QG+BnD
SJp+f8fC9IhVW7xBab6rfzb+6t8yJavM/ps3ppJt8J9MRT/nGn8GhkuVvHgDT0L8
S6z2OhWJ7UAlNLWFnRYdTB+XMPFoWAn7woN2s0rP0f7cM6WD+AxDe/acNhf/96Iz
HtuDmiLjdi7K8ubMLlkgvmwGV4pDmxfhRhDG97xkxxjteoifWVHaPS8cogqSH5rk
J1hof3HUwrQDu+GLkio9dR3rVD4T5w==
-----END CERTIFICATE-----
