Certificate:
    Data:
        Version: 3 (0x2)
        Serial Number:
            19:33:00:01:00:02:28:1a:9a:04:bc:f2:55:45
    Signature Algorithm: sha1WithRSAEncryption
        Issuer: C=DE, O=TC TrustCenter GmbH, OU=TC TrustCenter Universal CA, CN=TC TrustCenter Universal CA II
        Validity
            Not Before: Mar 22 15:58:34 2006 GMT
            Not After : Dec 31 22:59:59 2030 GMT
        Subject: C=DE, O=TC TrustCenter GmbH, OU=TC TrustCenter Universal CA, CN=TC TrustCenter Universal CA II
        Subject Public Key Info:
            Public Key Algorithm: rsaEncryption
                Public-Key: (4096 bit)
                Modulus:
                    00:8b:d4:77:6b:34:6c:e5:36:d8:6a:5c:5e:38:ee:
                    fc:d5:1d:79:03:3b:7b:83:62:44:82:4e:88:ed:de:
                    83:ff:ee:cc:50:62:05:05:95:99:76:98:f6:b9:f2:
                    5f:d8:06:91:92:c2:f6:2d:66:17:1f:fd:53:03:e8:
                    a8:8d:63:a9:6e:e1:d6:1b:8c:bc:98:b3:8b:3b:d4:
                    e4:2e:ca:7d:85:49:26:5b:79:b8:1a:8b:40:9e:7f:
                    bb:c9:3f:63:2c:cf:d1:5a:7c:ba:28:22:41:12:5a:
                    4d:f9:17:77:fc:85:fd:c2:49:e0:2a:18:7f:e9:a0:
                    2c:9c:f9:44:fc:0c:68:39:42:f5:27:05:be:8e:15:
                    7a:60:9d:f0:3b:c7:3c:e6:3e:16:bc:af:76:de:6a:
                    b7:a2:e1:ab:46:45:eb:8c:65:7d:d1:97:f3:97:11:
                    25:ab:59:eb:a0:22:d9:82:dd:98:ed:7e:e2:fa:a0:
                    61:0a:4a:32:de:2c:17:f7:6d:44:ea:81:47:59:97:
                    57:37:03:39:dd:5e:82:22:d4:33:b8:fa:26:09:b6:
                    bc:39:88:2f:51:15:4e:9b:c3:3b:df:13:82:88:dd:
                    4b:34:f2:33:d6:90:e9:f3:53:dc:35:7c:c0:c3:d9:
                    7c:78:b3:cd:70:3f:8d:6a:e0:a3:81:48:e4:29:ad:
                    63:b8:f0:fc:28:64:3b:99:b3:7d:fe:9a:9d:88:f6:
                    99:22:08:91:47:16:89:35:78:5d:77:a1:cf:bf:49:
                    e1:fd:24:94:2b:69:36:7b:e8:1c:e6:2a:90:8a:5b:
                    d5:3b:34:59:42:dc:6d:cf:bb:0f:41:1c:55:cd:f5:
                    0d:5b:2e:16:22:26:ef:61:1e:97:fc:e2:53:c8:cf:
                    5b:a3:c7:a9:f1:ba:0e:86:12:cb:13:ca:15:c7:ec:
                    e4:36:8d:da:5c:13:3d:65:d2:0e:5d:70:74:dc:bf:
                    8f:7a:6a:c1:2e:0f:d3:c6:5e:0f:2b:59:6c:cc:61:
                    6c:fe:c0:61:4e:d9:e6:4f:46:b2:5a:e2:19:14:70:
                    84:f8:20:00:ed:01:a7:97:7e:c3:bd:12:5c:92:23:
                    17:a0:a5:1d:45:17:15:23:9a:92:08:b5:22:88:8d:
                    dc:2b:24:eb:e0:b1:17:68:d3:af:61:bd:d9:85:78:
                    f6:8d:ba:78:ca:37:8d:63:be:e7:ac:1f:df:a5:47:
                    09:b9:c8:25:31:54:46:51:11:55:0d:89:5c:8d:da:
                    d2:18:2d:73:f2:b8:d5:27:f5:48:22:37:d1:62:f7:
                    7b:0d:c8:38:8b:a1:4a:b0:fc:d0:f1:eb:b7:86:63:
                    e7:e0:0e:73:7f:fd:72:51:b5:e9:7d:e2:55:05:64:
                    78:67:7f
                Exponent: 65537 (0x10001)
        X509v3 extensions:
            X509v3 Authority Key Identifier: 
                keyid:CD:D7:90:A1:6E:A3:BF:DB:30:D6:DA:32:25:90:0C:E6:39:1E:80:65

            X509v3 Basic Constraints: critical
                CA:TRUE
            X509v3 Key Usage: critical
                Digital Signature, Certificate Sign, CRL Sign
            X509v3 Subject Key Identifier: 
                CD:D7:90:A1:6E:A3:BF:DB:30:D6:DA:32:25:90:0C:E6:39:1E:80:65
    Signature Algorithm: sha1WithRSAEncryption
         7e:16:88:e8:13:0e:36:cc:6e:2a:85:07:38:c6:56:89:7a:e3:
         47:21:66:4c:50:08:31:5a:51:d0:fc:a6:5e:14:75:de:4c:3b:
         ec:f1:ed:cc:7e:11:07:4a:61:ee:ea:b3:8e:3a:a4:33:c6:ed:
         8a:42:66:4f:f1:3c:7b:c9:a5:05:41:99:b1:ec:2c:5b:ee:dc:
         96:d2:88:53:4b:78:34:b9:6e:e6:bb:0f:c5:7a:a6:7c:0e:18:
         df:6f:0f:74:4c:d1:a9:f1:a1:e9:d8:54:64:cc:5e:96:78:a2:
         56:1a:c1:73:b2:15:c6:57:05:df:da:f7:48:24:8a:8e:7f:6a:
         a9:f9:4d:e9:3e:6a:ce:60:2c:7d:2d:90:08:f6:63:8f:15:d0:
         2d:9c:8c:ff:f1:fd:fc:0c:16:50:56:14:fb:ba:97:86:ee:b4:
         49:03:54:ee:1b:59:7f:30:3a:02:82:86:21:ae:fe:f0:15:f2:
         df:4e:83:e6:99:c5:ba:35:f7:20:90:8c:38:ed:75:cf:e1:2e:
         f7:04:30:fb:51:ad:8e:82:24:40:ca:7d:29:5d:d5:d9:f7:65:
         64:fc:aa:9f:74:b8:7d:92:5d:d2:84:29:e0:13:ea:8a:f7:d0:
         ab:c4:ae:ef:15:c5:c2:89:f2:7b:b6:3b:49:98:61:f3:4e:72:
         91:37:8c:49:92:e9:c8:ec:2a:a0:f7:49:6e:7c:0d:24:c6:6b:
         6c:f2:38:2f:ca:70:05:e5:7f:df:c6:2b:2b:80:80:d5:da:6f:
         cb:40:bb:d8:1b:f0:24:c9:10:c8:44:02:7e:2e:d3:98:aa:a2:
         0d:f1:2b:d0:da:fa:8e:1c:ff:54:e8:e1:4a:6e:dd:a8:d6:78:
         b5:37:a5:ac:64:d5:14:23:c7:0e:a5:eb:e1:09:38:d7:c0:7c:
         60:a5:5d:98:8f:8c:02:d5:dc:56:a8:f3:4d:58:a9:0b:d4:7c:
         64:74:01:32:f2:df:0f:4a:8a:a9:02:a2:a2:1d:84:77:c2:f1:
         cc:97:bd:34:19:74:5d:e2:74:3e:75:27:f7:af:bf:ee:7c:0e:
         6d:54:88:a6:56:e2:26:ad:31:12:3c:1e:41:79:6d:17:ea:13:
         5e:1f:f5:5c:9f:49:59:a3:b2:2f:a3:42:c3:fa:a8:7e:bf:a5:
         9f:48:c9:60:62:62:0a:df:bd:45:de:e3:42:b5:51:96:fd:c4:
         f5:1a:99:b8:52:a2:44:cd:2d:61:8c:15:8f:81:d5:5d:a2:d4:
         90:3d:8c:6e:40:61:c3:59:5d:d8:d9:e1:f6:74:47:22:79:74:
         7d:da:ca:a3:6f:37:15:36:f0:2c:1a:71:3c:11:76:df:5d:1a:
         3e:54:63:78:6b:65:7e:1f
-----BEGIN CERTIFICATE-----
MIIF3zCCA8egAwIBAgIOGTMAAQACKBqaBLzyVUUwDQYJKoZIhvcNAQEFBQAwejEL
MAkGA1UEBhMCREUxHDAaBgNVBAoTE1RDIFRydXN0Q2VudGVyIEdtYkgxJDAiBgNV
BAsTG1RDIFRydXN0Q2VudGVyIFVuaXZlcnNhbCBDQTEnMCUGA1UEAxMeVEMgVHJ1
c3RDZW50ZXIgVW5pdmVyc2FsIENBIElJMB4XDTA2MDMyMjE1NTgzNFoXDTMwMTIz
MTIyNTk1OVowejELMAkGA1UEBhMCREUxHDAaBgNVBAoTE1RDIFRydXN0Q2VudGVy
IEdtYkgxJDAiBgNVBAsTG1RDIFRydXN0Q2VudGVyIFVuaXZlcnNhbCBDQTEnMCUG
A1UEAxMeVEMgVHJ1c3RDZW50ZXIgVW5pdmVyc2FsIENBIElJMIICIjANBgkqhkiG
9w0BAQEFAAOCAg8AMIICCgKCAgEAi9R3azRs5TbYalxeOO781R15Azt7g2JEgk6I
7d6D/+7MUGIFBZWZdpj2ufJf2AaRksL2LWYXH/1TA+iojWOpbuHWG4y8mLOLO9Tk
Lsp9hUkmW3m4GotAnn+7yT9jLM/RWny6KCJBElpN+Rd3/IX9wkngKhh/6aAsnPlE
/AxoOUL1JwW+jhV6YJ3wO8c85j4WvK923mq3ouGrRkXrjGV90ZfzlxElq1nroCLZ
gt2Y7X7i+qBhCkoy3iwX921E6oFHWZdXNwM53V6CItQzuPomCba8OYgvURVOm8M7
3xOCiN1LNPIz1pDp81PcNXzAw9l8eLPNcD+NauCjgUjkKa1juPD8KGQ7mbN9/pqd
iPaZIgiRRxaJNXhdd6HPv0nh/SSUK2k2e+gc5iqQilvVOzRZQtxtz7sPQRxVzfUN
Wy4WIibvYR6X/OJTyM9bo8ep8boOhhLLE8oVx+zkNo3aXBM9ZdIOXXB03L+PemrB
Lg/Txl4PK1lszGFs/sBhTtnmT0ayWuIZFHCE+CAA7QGnl37DvRJckiMXoKUdRRcV
I5qSCLUiiI3cKyTr4LEXaNOvYb3ZhXj2jbp4yjeNY77nrB/fpUcJucglMVRGURFV
DYlcjdrSGC1z8rjVJ/VIIjfRYvd7Dcg4i6FKsPzQ8eu3hmPn4A5zf/1yUbXpfeJV
BWR4Z38CAwEAAaNjMGEwHwYDVR0jBBgwFoAUzdeQoW6jv9sw1toyJZAM5jkegGUw
DwYDVR0TAQH/BAUwAwEB/zAOBgNVHQ8BAf8EBAMCAYYwHQYDVR0OBBYEFM3XkKFu
o7/bMNbaMiWQDOY5HoBlMA0GCSqGSIb3DQEBBQUAA4ICAQB+FojoEw42zG4qhQc4
xlaJeuNHIWZMUAgxWlHQ/KZeFHXeTDvs8e3MfhEHSmHu6rOOOqQzxu2KQmZP8Tx7
yaUFQZmx7Cxb7tyW0ohTS3g0uW7muw/FeqZ8Dhjfbw90TNGp8aHp2FRkzF6WeKJW
GsFzshXGVwXf2vdIJIqOf2qp+U3pPmrOYCx9LZAI9mOPFdAtnIz/8f38DBZQVhT7
upeG7rRJA1TuG1l/MDoCgoYhrv7wFfLfToPmmcW6NfcgkIw47XXP4S73BDD7Ua2O
giRAyn0pXdXZ92Vk/KqfdLh9kl3ShCngE+qK99CrxK7vFcXCifJ7tjtJmGHzTnKR
N4xJkunI7Cqg90lufA0kxmts8jgvynAF5X/fxisrgIDV2m/LQLvYG/AkyRDIRAJ+
LtOYqqIN8SvQ2vqOHP9U6OFKbt2o1ni1N6WsZNUUI8cOpevhCTjXwHxgpV2Yj4wC
1dxWqPNNWKkL1HxkdAEy8t8PSoqpAqKiHYR3wvHMl700GXRd4nQ+dSf3r7/ufA5t
VIimVuImrTESPB5BeW0X6hNeH/Vcn0lZo7Ivo0LD+qh+v6WfSMlgYmIK371F3uNC
tVGW/cT1Gpm4UqJEzS1hjBWPgdVdotSQPYxuQGHDWV3Y2eH2dEcieXR92sqjbzcV
NvAsGnE8EXbfXRo+VGN4a2V+Hw==
-----END CERTIFICATE-----
