Certificate:
    Data:
        Version: 3 (0x2)
        Serial Number: 930140085 (0x3770cfb5)
    Signature Algorithm: sha1WithRSAEncryption
        Issuer: C=US, O=Equifax Secure, OU=Equifax Secure eBusiness CA-2
        Validity
            Not Before: Jun 23 12:14:45 1999 GMT
            Not After : Jun 23 12:14:45 2019 GMT
        Subject: C=US, O=Equifax Secure, OU=Equifax Secure eBusiness CA-2
        Subject Public Key Info:
            Public Key Algorithm: rsaEncryption
                Public-Key: (1024 bit)
                Modulus:
                    00:e4:39:39:93:1e:52:06:1b:28:36:f8:b2:a3:29:
                    c5:ed:8e:b2:11:bd:fe:eb:e7:b4:74:c2:8f:ff:05:
                    e7:d9:9d:06:bf:12:c8:3f:0e:f2:d6:d1:24:b2:11:
                    de:d1:73:09:8a:d4:b1:2c:98:09:0d:1e:50:46:b2:
                    83:a6:45:8d:62:68:bb:85:1b:20:70:32:aa:40:cd:
                    a6:96:5f:c4:71:37:3f:04:f3:b7:41:24:39:07:1a:
                    1e:2e:61:58:a0:12:0b:e5:a5:df:c5:ab:ea:37:71:
                    cc:1c:c8:37:3a:b9:97:52:a7:ac:c5:6a:24:94:4e:
                    9c:7b:cf:c0:6a:d6:df:21:bd
                Exponent: 65537 (0x10001)
        X509v3 extensions:
            X509v3 CRL Distribution Points: 

                Full Name:
                  DirName: C = US, O = Equifax Secure, OU = Equifax Secure eBusiness CA-2, CN = CRL1

            X509v3 Private Key Usage Period: 
                Not After: Jun 23 12:14:45 2019 GMT
            X509v3 Key Usage: 
                Certificate Sign, CRL Sign
            X509v3 Authority Key Identifier: 
                keyid:50:9E:0B:EA:AF:5E:B9:20:48:A6:50:6A:CB:FD:D8:20:7A:A7:82:76

            X509v3 Subject Key Identifier: 
                50:9E:0B:EA:AF:5E:B9:20:48:A6:50:6A:CB:FD:D8:20:7A:A7:82:76
            X509v3 Basic Constraints: 
                CA:TRUE
            1.2.840.113533.7.65.0: 
                0...V3.0c....
    Signature Algorithm: sha1WithRSAEncryption
         0c:86:82:ad:e8:4e:1a:f5:8e:89:27:e2:35:58:3d:29:b4:07:
         8f:36:50:95:bf:6e:c1:9e:eb:c4:90:b2:85:a8:bb:b7:42:e0:
         0f:07:39:df:fb:9e:90:b2:d1:c1:3e:53:9f:03:44:b0:7e:4b:
         f4:6f:e4:7c:1f:e7:e2:b1:e4:b8:9a:ef:c3:bd:ce:de:0b:32:
         34:d9:de:28:ed:33:6b:c4:d4:d7:3d:12:58:ab:7d:09:2d:cb:
         70:f5:13:8a:94:a1:27:a4:d6:70:c5:6d:94:b5:c9:7d:9d:a0:
         d2:c6:08:49:d9:66:9b:a6:d3:f4:0b:dc:c5:26:57:e1:91:30:
         ea:cd
-----BEGIN CERTIFICATE-----
MIIDIDCCAomgAwIBAgIEN3DPtTANBgkqhkiG9w0BAQUFADBOMQswCQYDVQQGEwJV
UzEXMBUGA1UEChMORXF1aWZheCBTZWN1cmUxJjAkBgNVBAsTHUVxdWlmYXggU2Vj
dXJlIGVCdXNpbmVzcyBDQS0yMB4XDTk5MDYyMzEyMTQ0NVoXDTE5MDYyMzEyMTQ0
NVowTjELMAkGA1UEBhMCVVMxFzAVBgNVBAoTDkVxdWlmYXggU2VjdXJlMSYwJAYD
VQQLEx1FcXVpZmF4IFNlY3VyZSBlQnVzaW5lc3MgQ0EtMjCBnzANBgkqhkiG9w0B
AQEFAAOBjQAwgYkCgYEA5Dk5kx5SBhsoNviyoynF7Y6yEb3+6+e0dMKP/wXn2Z0G
vxLIPw7y1tEkshHe0XMJitSxLJgJDR5QRrKDpkWNYmi7hRsgcDKqQM2mll/EcTc/
BPO3QSQ5BxoeLmFYoBIL5aXfxavqN3HMHMg3OrmXUqesxWoklE6ce8/AatbfIb0C
AwEAAaOCAQkwggEFMHAGA1UdHwRpMGcwZaBjoGGkXzBdMQswCQYDVQQGEwJVUzEX
MBUGA1UEChMORXF1aWZheCBTZWN1cmUxJjAkBgNVBAsTHUVxdWlmYXggU2VjdXJl
IGVCdXNpbmVzcyBDQS0yMQ0wCwYDVQQDEwRDUkwxMBoGA1UdEAQTMBGBDzIwMTkw
NjIzMTIxNDQ1WjALBgNVHQ8EBAMCAQYwHwYDVR0jBBgwFoAUUJ4L6q9euSBIplBq
y/3YIHqngnYwHQYDVR0OBBYEFFCeC+qvXrkgSKZQasv92CB6p4J2MAwGA1UdEwQF
MAMBAf8wGgYJKoZIhvZ9B0EABA0wCxsFVjMuMGMDAgbAMA0GCSqGSIb3DQEBBQUA
A4GBAAyGgq3oThr1jokn4jVYPSm0B482UJW/bsGe68SQsoWou7dC4A8HOd/7npCy
0cE+U58DRLB+S/Rv5Hwf5+Kx5Lia78O9zt4LMjTZ3ijtM2vE1Nc9ElirfQkty3D1
E4qUoSek1nDFbZS1yX2doNLGCEnZZpum0/QL3MUmV+GRMOrN
-----END CERTIFICATE-----
