Certificate:
    Data:
        Version: 3 (0x2)
        Serial Number:
            63:25:00:01:00:02:14:8d:33:15:02:e4:6c:f4
    Signature Algorithm: sha1WithRSAEncryption
        Issuer: C=DE, O=TC TrustCenter GmbH, OU=TC TrustCenter Universal CA, CN=TC TrustCenter Universal CA III
        Validity
            Not Before: Sep  9 08:15:27 2009 GMT
            Not After : Dec 31 23:59:59 2029 GMT
        Subject: C=DE, O=TC TrustCenter GmbH, OU=TC TrustCenter Universal CA, CN=TC TrustCenter Universal CA III
        Subject Public Key Info:
            Public Key Algorithm: rsaEncryption
                Public-Key: (2048 bit)
                Modulus:
                    00:c2:da:9c:62:b0:b9:71:12:b0:0b:c8:1a:57:b2:
                    ae:83:14:99:b3:34:4b:9b:90:a2:c5:e7:e7:2f:02:
                    a0:4d:2d:a4:fa:85:da:9b:25:85:2d:40:28:20:6d:
                    ea:e0:bd:b1:48:83:22:29:44:9f:4e:83:ee:35:51:
                    13:73:74:d5:bc:f2:30:66:94:53:c0:40:36:2f:0c:
                    84:65:ce:0f:6e:c2:58:93:e8:2c:0b:3a:e9:c1:8e:
                    fb:f2:6b:ca:3c:e2:9c:4e:8e:e4:f9:7d:d3:27:9f:
                    1b:d5:67:78:87:2d:7f:0b:47:b3:c7:e8:c9:48:7c:
                    af:2f:cc:0a:d9:41:ef:9f:fe:9a:e1:b2:ae:f9:53:
                    b5:e5:e9:46:9f:60:e3:df:8d:d3:7f:fb:96:7e:b3:
                    b5:72:f8:4b:ad:08:79:cd:69:89:40:27:f5:2a:c1:
                    ad:43:ec:a4:53:c8:61:b6:f7:d2:79:2a:67:18:76:
                    48:6d:5b:25:01:d1:26:c5:b7:57:69:23:15:5b:61:
                    8a:ad:f0:1b:2d:d9:af:5c:f1:26:90:69:a9:d5:0c:
                    40:f5:33:80:43:8f:9c:a3:76:2a:45:b4:af:bf:7f:
                    3e:87:3f:76:c5:cd:2a:de:20:c5:16:58:cb:f9:1b:
                    f5:0f:cb:0d:11:52:64:b8:d2:76:62:77:83:f1:58:
                    9f:ff
                Exponent: 65537 (0x10001)
        X509v3 extensions:
            X509v3 Authority Key Identifier: 
                keyid:56:E7:E1:5B:25:43:80:E0:F6:8C:E1:71:BC:8E:E5:80:2F:C4:48:E2

            X509v3 Basic Constraints: critical
                CA:TRUE
            X509v3 Key Usage: critical
                Certificate Sign, CRL Sign
            X509v3 Subject Key Identifier: 
                56:E7:E1:5B:25:43:80:E0:F6:8C:E1:71:BC:8E:E5:80:2F:C4:48:E2
    Signature Algorithm: sha1WithRSAEncryption
         83:c7:af:ea:7f:4d:0a:3c:39:b1:68:be:7b:6d:89:2e:e9:b3:
         09:e7:18:57:8d:85:9a:17:f3:76:42:50:13:0f:c7:90:6f:33:
         ad:c5:49:60:2b:6c:49:58:19:d4:e2:be:b7:bf:ab:49:bc:94:
         c8:ab:be:28:6c:16:68:e0:c8:97:46:20:a0:68:67:60:88:39:
         20:51:d8:68:01:11:ce:a7:f6:11:07:f6:ec:ec:ac:1a:1f:b2:
         66:6e:56:67:60:7a:74:5e:c0:6d:97:36:ae:b5:0d:5d:66:73:
         c0:25:32:45:d8:4a:06:07:8f:c4:b7:07:b1:4d:06:0d:e1:a5:
         eb:f4:75:ca:ba:9c:d0:bd:b3:d3:32:24:4c:ee:7e:e2:76:04:
         4b:49:53:d8:f2:e9:54:33:fc:e5:71:1f:3d:14:5c:96:4b:f1:
         3a:f2:00:bb:6c:b4:fa:96:55:08:88:09:c1:cc:91:19:29:b0:
         20:2d:ff:cb:38:a4:40:e1:17:be:79:61:80:ff:07:03:86:4c:
         4e:7b:06:9f:11:86:8d:89:ee:27:c4:db:e2:bc:19:8e:0b:c3:
         c3:13:c7:2d:03:63:3b:d3:e8:e4:a2:2a:c2:82:08:94:16:54:
         f0:ef:1f:27:90:25:b8:0d:0e:28:1b:47:77:47:bd:1c:a8:25:
         f1:94:b4:66
-----BEGIN CERTIFICATE-----
MIID4TCCAsmgAwIBAgIOYyUAAQACFI0zFQLkbPQwDQYJKoZIhvcNAQEFBQAwezEL
MAkGA1UEBhMCREUxHDAaBgNVBAoTE1RDIFRydXN0Q2VudGVyIEdtYkgxJDAiBgNV
BAsTG1RDIFRydXN0Q2VudGVyIFVuaXZlcnNhbCBDQTEoMCYGA1UEAxMfVEMgVHJ1
c3RDZW50ZXIgVW5pdmVyc2FsIENBIElJSTAeFw0wOTA5MDkwODE1MjdaFw0yOTEy
MzEyMzU5NTlaMHsxCzAJBgNVBAYTAkRFMRwwGgYDVQQKExNUQyBUcnVzdENlbnRl
ciBHbWJIMSQwIgYDVQQLExtUQyBUcnVzdENlbnRlciBVbml2ZXJzYWwgQ0ExKDAm
BgNVBAMTH1RDIFRydXN0Q2VudGVyIFVuaXZlcnNhbCBDQSBJSUkwggEiMA0GCSqG
SIb3DQEBAQUAA4IBDwAwggEKAoIBAQDC2pxisLlxErALyBpXsq6DFJmzNEubkKLF
5+cvAqBNLaT6hdqbJYUtQCggbergvbFIgyIpRJ9Og+41URNzdNW88jBmlFPAQDYv
DIRlzg9uwliT6CwLOunBjvvya8o84pxOjuT5fdMnnxvVZ3iHLX8LR7PH6MlIfK8v
zArZQe+f/prhsq75U7Xl6UafYOPfjdN/+5Z+s7Vy+EutCHnNaYlAJ/Uqwa1D7KRT
yGG299J5KmcYdkhtWyUB0SbFt1dpIxVbYYqt8Bst2a9c8SaQaanVDED1M4BDj5yj
dipFtK+/fz6HP3bFzSreIMUWWMv5G/UPyw0RUmS40nZid4PxWJ//AgMBAAGjYzBh
MB8GA1UdIwQYMBaAFFbn4VslQ4Dg9ozhcbyO5YAvxEjiMA8GA1UdEwEB/wQFMAMB
Af8wDgYDVR0PAQH/BAQDAgEGMB0GA1UdDgQWBBRW5+FbJUOA4PaM4XG8juWAL8RI
4jANBgkqhkiG9w0BAQUFAAOCAQEAg8ev6n9NCjw5sWi+e22JLumzCecYV42Fmhfz
dkJQEw/HkG8zrcVJYCtsSVgZ1OK+t7+rSbyUyKu+KGwWaODIl0YgoGhnYIg5IFHY
aAERzqf2EQf27OysGh+yZm5WZ2B6dF7AbZc2rrUNXWZzwCUyRdhKBgePxLcHsU0G
DeGl6/R1yrqc0L2z0zIkTO5+4nYES0lT2PLpVDP85XEfPRRclkvxOvIAu2y0+pZV
CIgJwcyRGSmwIC3/yzikQOEXvnlhgP8HA4ZMTnsGnxGGjYnuJ8Tb4rwZjgvDwxPH
LQNjO9Po5KIqwoIIlBZU8O8fJ5AluA0OKBtHd0e9HKgl8ZS0Zg==
-----END CERTIFICATE-----
