Certificate:
    Data:
        Version: 3 (0x2)
        Serial Number:
            05:c0:00:01:00:02:41:d0:06:0a:4d:ce:75:10
    Signature Algorithm: sha1WithRSAEncryption
        Issuer: C=DE, O=TC TrustCenter GmbH, OU=TC TrustCenter Class 4 CA, CN=TC TrustCenter Class 4 CA II
        Validity
            Not Before: Mar 23 14:10:23 2006 GMT
            Not After : Dec 31 22:59:59 2025 GMT
        Subject: C=DE, O=TC TrustCenter GmbH, OU=TC TrustCenter Class 4 CA, CN=TC TrustCenter Class 4 CA II
        Subject Public Key Info:
            Public Key Algorithm: rsaEncryption
                Public-Key: (2048 bit)
                Modulus:
                    00:b5:cd:4c:9c:ad:ae:51:bb:7c:48:c5:0d:29:86:
                    7a:14:ad:d9:50:3d:09:72:20:0d:14:b6:63:c6:fe:
                    58:9e:e0:21:5e:f3:8f:22:19:dc:4e:91:20:cd:6f:
                    88:29:a2:b3:c1:ac:2a:72:ba:8b:54:b8:40:5f:f2:
                    aa:f8:43:86:c2:30:5c:cc:a7:5d:7f:c6:08:49:e4:
                    0e:39:2f:8e:18:d6:91:dd:23:16:79:80:db:6c:48:
                    1d:bc:c1:df:28:10:63:d1:81:e3:dd:df:2f:79:75:
                    a2:1b:78:f2:94:01:e6:10:62:79:cb:a0:7d:02:c0:
                    34:82:7b:c7:c0:ad:1d:4c:d7:6a:96:76:5b:bf:26:
                    84:48:fd:87:f6:84:0a:aa:92:07:99:48:3c:61:bc:
                    4e:85:58:c7:97:2d:fd:81:4a:a1:c6:9b:12:f5:42:
                    50:d1:64:3e:89:68:82:22:70:dd:f5:fa:e3:28:42:
                    2f:4e:32:f3:b3:a3:36:8a:6a:d6:62:5c:ac:fa:01:
                    6d:b4:e0:72:2e:95:68:b4:f1:93:0c:c6:8a:82:d2:
                    1d:53:ea:7c:e0:3f:42:b7:12:5a:b8:cd:da:a5:06:
                    67:cb:a1:77:7d:a5:96:f0:92:1e:67:0e:1d:42:46:
                    e6:f9:ed:fb:47:53:7f:57:04:46:1f:46:5f:c7:ae:
                    e0:8f
                Exponent: 65537 (0x10001)
        X509v3 extensions:
            X509v3 Basic Constraints: critical
                CA:TRUE
            X509v3 Key Usage: critical
                Digital Signature, Certificate Sign, CRL Sign
            X509v3 Subject Key Identifier: 
                1F:EA:BB:3E:25:1B:06:BD:A5:DD:62:05:7E:C6:4C:5A:BF:E8:0F:43
    Signature Algorithm: sha1WithRSAEncryption
         58:a4:2b:9b:4c:f7:e4:a4:92:a4:9c:65:98:19:62:22:fc:72:
         32:e9:04:5d:c4:c4:70:2d:5a:46:de:4c:47:8a:25:b9:a2:dd:
         ee:ea:12:af:48:8d:ef:2b:67:db:3b:cc:34:98:2a:f7:08:47:
         ff:22:af:7b:f1:f4:eb:e2:38:02:33:18:75:28:1b:9e:76:65:
         ac:88:03:72:f2:38:47:1d:8c:f5:9f:0a:88:53:10:14:bb:80:
         e5:0c:b3:5d:8d:17:ee:1e:19:1c:86:8d:14:67:78:8c:92:cb:
         1e:21:49:f7:7f:d3:18:bf:9c:79:f8:5d:08:79:b5:aa:6a:4d:
         92:36:6c:bc:79:eb:0e:3d:79:8a:d8:f6:a3:56:70:5d:de:db:
         4f:79:d2:7a:d2:95:5c:86:27:65:be:a0:d3:07:81:40:55:dd:
         10:cb:e0:4b:88:82:c0:90:7d:38:e7:bf:96:e1:97:ba:9a:ab:
         42:0f:d3:9f:d8:9e:15:33:11:cb:f7:82:79:f5:b5:c0:41:56:
         92:e1:df:55:03:ad:48:cf:d3:f2:2e:b1:c7:2d:56:4c:64:74:
         2a:31:ce:dc:75:a9:54:47:a4:a7:42:72:09:e7:e1:02:a6:47:
         b2:04:cd:42:13:e1:61:0c:e0:78:3a:22:20:a2:1c:60:42:86:
         87:f7:a5:e6
-----BEGIN CERTIFICATE-----
MIIDtjCCAp6gAwIBAgIOBcAAAQACQdAGCk3OdRAwDQYJKoZIhvcNAQEFBQAwdjEL
MAkGA1UEBhMCREUxHDAaBgNVBAoTE1RDIFRydXN0Q2VudGVyIEdtYkgxIjAgBgNV
BAsTGVRDIFRydXN0Q2VudGVyIENsYXNzIDQgQ0ExJTAjBgNVBAMTHFRDIFRydXN0
Q2VudGVyIENsYXNzIDQgQ0EgSUkwHhcNMDYwMzIzMTQxMDIzWhcNMjUxMjMxMjI1
OTU5WjB2MQswCQYDVQQGEwJERTEcMBoGA1UEChMTVEMgVHJ1c3RDZW50ZXIgR21i
SDEiMCAGA1UECxMZVEMgVHJ1c3RDZW50ZXIgQ2xhc3MgNCBDQTElMCMGA1UEAxMc
VEMgVHJ1c3RDZW50ZXIgQ2xhc3MgNCBDQSBJSTCCASIwDQYJKoZIhvcNAQEBBQAD
ggEPADCCAQoCggEBALXNTJytrlG7fEjFDSmGehSt2VA9CXIgDRS2Y8b+WJ7gIV7z
jyIZ3E6RIM1viCmis8GsKnK6i1S4QF/yqvhDhsIwXMynXX/GCEnkDjkvjhjWkd0j
FnmA22xIHbzB3ygQY9GB493fL3l1oht48pQB5hBiecugfQLANIJ7x8CtHUzXapZ2
W78mhEj9h/aECqqSB5lIPGG8ToVYx5ct/YFKocabEvVCUNFkPologiJw3fX64yhC
L04y87OjNopq1mJcrPoBbbTgci6VaLTxkwzGioLSHVPqfOA/QrcSWrjN2qUGZ8uh
d32llvCSHmcOHUJG5vnt+0dTf1cERh9GX8eu4I8CAwEAAaNCMEAwDwYDVR0TAQH/
BAUwAwEB/zAOBgNVHQ8BAf8EBAMCAYYwHQYDVR0OBBYEFB/quz4lGwa9pd1iBX7G
TFq/6A9DMA0GCSqGSIb3DQEBBQUAA4IBAQBYpCubTPfkpJKknGWYGWIi/HIy6QRd
xMRwLVpG3kxHiiW5ot3u6hKvSI3vK2fbO8w0mCr3CEf/Iq978fTr4jgCMxh1KBue
dmWsiANy8jhHHYz1nwqIUxAUu4DlDLNdjRfuHhkcho0UZ3iMksseIUn3f9MYv5x5
+F0IebWqak2SNmy8eesOPXmK2PajVnBd3ttPedJ60pVchidlvqDTB4FAVd0Qy+BL
iILAkH0457+W4Ze6mqtCD9Of2J4VMxHL94J59bXAQVaS4d9VA61Iz9PyLrHHLVZM
ZHQqMc7cdalUR6SnQnIJ5+ECpkeyBM1CE+FhDOB4OiIgohxgQoaH96Xm
-----END CERTIFICATE-----
