Certificate:
    Data:
        Version: 1 (0x0)
        Serial Number:
            4c:c7:ea:aa:98:3e:71:d3:93:10:f8:3d:3a:89:91:92
    Signature Algorithm: sha1WithRSAEncryption
        Issuer: C=US, O=VeriSign, Inc., OU=Class 1 Public Primary Certification Authority - G2, OU=(c) 1998 VeriSign, Inc. - For authorized use only, OU=VeriSign Trust Network
        Validity
            Not Before: May 18 00:00:00 1998 GMT
            Not After : Aug  1 23:59:59 2028 GMT
        Subject: C=US, O=VeriSign, Inc., OU=Class 1 Public Primary Certification Authority - G2, OU=(c) 1998 VeriSign, Inc. - For authorized use only, OU=VeriSign Trust Network
        Subject Public Key Info:
            Public Key Algorithm: rsaEncryption
                Public-Key: (1024 bit)
                Modulus:
                    00:aa:d0:ba:be:16:2d:b8:83:d4:ca:d2:0f:bc:76:
                    31:ca:94:d8:1d:93:8c:56:02:bc:d9:6f:1a:6f:52:
                    36:6e:75:56:0a:55:d3:df:43:87:21:11:65:8a:7e:
                    8f:bd:21:de:6b:32:3f:1b:84:34:95:05:9d:41:35:
                    eb:92:eb:96:dd:aa:59:3f:01:53:6d:99:4f:ed:e5:
                    e2:2a:5a:90:c1:b9:c4:a6:15:cf:c8:45:eb:a6:5d:
                    8e:9c:3e:f0:64:24:76:a5:cd:ab:1a:6f:b6:d8:7b:
                    51:61:6e:a6:7f:87:c8:e2:b7:e5:34:dc:41:88:ea:
                    09:40:be:73:92:3d:6b:e7:75
                Exponent: 65537 (0x10001)
    Signature Algorithm: sha1WithRSAEncryption
         a9:4f:c3:0d:c7:67:be:2c:cb:d9:a8:cd:2d:75:e7:7e:15:9e:
         3b:72:eb:7e:eb:5c:2d:09:87:d6:6b:6d:60:7c:e5:ae:c5:90:
         23:0c:5c:4a:d0:af:b1:5d:f3:c7:b6:0a:db:e0:15:93:0d:dd:
         03:bc:c7:76:8a:b5:dd:4f:c3:9b:13:75:b8:01:c0:e6:c9:5b:
         6b:a5:b8:89:dc:ac:a4:dd:72:ed:4e:a1:f7:4f:bc:06:d3:ea:
         c8:64:74:7b:c2:95:41:9c:65:73:58:f1:90:9a:3c:6a:b1:98:
         c9:c4:87:bc:cf:45:6d:45:e2:6e:22:3f:fe:bc:0f:31:5c:e8:
         f2:d9
-----BEGIN CERTIFICATE-----
MIIDAjCCAmsCEEzH6qqYPnHTkxD4PTqJkZIwDQYJKoZIhvcNAQEFBQAwgcExCzAJ
BgNVBAYTAlVTMRcwFQYDVQQKEw5WZXJpU2lnbiwgSW5jLjE8MDoGA1UECxMzQ2xh
c3MgMSBQdWJsaWMgUHJpbWFyeSBDZXJ0aWZpY2F0aW9uIEF1dGhvcml0eSAtIEcy
MTowOAYDVQQLEzEoYykgMTk5OCBWZXJpU2lnbiwgSW5jLiAtIEZvciBhdXRob3Jp
emVkIHVzZSBvbmx5MR8wHQYDVQQLExZWZXJpU2lnbiBUcnVzdCBOZXR3b3JrMB4X
DTk4MDUxODAwMDAwMFoXDTI4MDgwMTIzNTk1OVowgcExCzAJBgNVBAYTAlVTMRcw
FQYDVQQKEw5WZXJpU2lnbiwgSW5jLjE8MDoGA1UECxMzQ2xhc3MgMSBQdWJsaWMg
UHJpbWFyeSBDZXJ0aWZpY2F0aW9uIEF1dGhvcml0eSAtIEcyMTowOAYDVQQLEzEo
YykgMTk5OCBWZXJpU2lnbiwgSW5jLiAtIEZvciBhdXRob3JpemVkIHVzZSBvbmx5
MR8wHQYDVQQLExZWZXJpU2lnbiBUcnVzdCBOZXR3b3JrMIGfMA0GCSqGSIb3DQEB
AQUAA4GNADCBiQKBgQCq0Lq+Fi24g9TK0g+8djHKlNgdk4xWArzZbxpvUjZudVYK
VdPfQ4chEWWKfo+9Id5rMj8bhDSVBZ1BNeuS65bdqlk/AVNtmU/t5eIqWpDBucSm
Fc/IReumXY6cPvBkJHalzasab7bYe1FhbqZ/h8jit+U03EGI6glAvnOSPWvndQID
AQABMA0GCSqGSIb3DQEBBQUAA4GBAKlPww3HZ74sy9mozS11534Vnjty637rXC0J
h9ZrbWB85a7FkCMMXErQr7Fd88e2CtvgFZMN3QO8x3aKtd1Pw5sTdbgBwObJW2ul
uIncrKTdcu1OofdPvAbT6shkdHvClUGcZXNY8ZCaPGqxmMnEh7zPRW1F4m4iP/68
DzFc6PLZ
-----END CERTIFICATE-----
