Certificate:
    Data:
        Version: 3 (0x2)
        Serial Number:
            36:12:22:96:c5:e3:38:a5:20:a1:d2:5f:4c:d7:09:54
    Signature Algorithm: sha1WithRSAEncryption
        Issuer: C=ZA, ST=Western Cape, L=Cape Town, O=Thawte Consulting cc, OU=Certification Services Division, CN=Thawte Premium Server CA/emailAddress=premium-server@thawte.com
        Validity
            Not Before: Aug  1 00:00:00 1996 GMT
            Not After : Jan  1 23:59:59 2021 GMT
        Subject: C=ZA, ST=Western Cape, L=Cape Town, O=Thawte Consulting cc, OU=Certification Services Division, CN=Thawte Premium Server CA/emailAddress=premium-server@thawte.com
        Subject Public Key Info:
            Public Key Algorithm: rsaEncryption
                Public-Key: (1024 bit)
                Modulus:
                    00:d2:36:36:6a:8b:d7:c2:5b:9e:da:81:41:62:8f:
                    38:ee:49:04:55:d6:d0:ef:1c:1b:95:16:47:ef:18:
                    48:35:3a:52:f4:2b:6a:06:8f:3b:2f:ea:56:e3:af:
                    86:8d:9e:17:f7:9e:b4:65:75:02:4d:ef:cb:09:a2:
                    21:51:d8:9b:d0:67:d0:ba:0d:92:06:14:73:d4:93:
                    cb:97:2a:00:9c:5c:4e:0c:bc:fa:15:52:fc:f2:44:
                    6e:da:11:4a:6e:08:9f:2f:2d:e3:f9:aa:3a:86:73:
                    b6:46:53:58:c8:89:05:bd:83:11:b8:73:3f:aa:07:
                    8d:f4:42:4d:e7:40:9d:1c:37
                Exponent: 65537 (0x10001)
        X509v3 extensions:
            X509v3 Basic Constraints: critical
                CA:TRUE
    Signature Algorithm: sha1WithRSAEncryption
         65:90:ac:88:0f:56:d9:e6:30:34:d4:26:c7:d0:50:f1:92:de:
         6b:d4:39:88:09:22:c6:a6:63:83:03:f7:99:77:d8:b2:e5:18:
         b8:5d:63:f3:d4:73:fb:6c:9c:99:78:f1:4b:78:7d:19:24:c3:
         2b:02:84:f8:bc:22:d9:8a:22:d7:a0:fc:71:ec:91:87:20:f1:
         b8:ec:b1:e5:55:80:ac:3d:52:c8:39:0e:c2:f0:c0:05:4f:d6:
         82:75:8c:bd:5f:d2:dc:76:9a:05:12:c9:af:72:c3:dc:25:7e:
         a4:4d:8e:17:a5:e0:87:7f:e1:9a:5a:e1:60:dc:64:23:3c:42:
         2e:4d
-----BEGIN CERTIFICATE-----
MIIDNjCCAp+gAwIBAgIQNhIilsXjOKUgodJfTNcJVDANBgkqhkiG9w0BAQUFADCB
zjELMAkGA1UEBhMCWkExFTATBgNVBAgTDFdlc3Rlcm4gQ2FwZTESMBAGA1UEBxMJ
Q2FwZSBUb3duMR0wGwYDVQQKExRUaGF3dGUgQ29uc3VsdGluZyBjYzEoMCYGA1UE
CxMfQ2VydGlmaWNhdGlvbiBTZXJ2aWNlcyBEaXZpc2lvbjEhMB8GA1UEAxMYVGhh
d3RlIFByZW1pdW0gU2VydmVyIENBMSgwJgYJKoZIhvcNAQkBFhlwcmVtaXVtLXNl
cnZlckB0aGF3dGUuY29tMB4XDTk2MDgwMTAwMDAwMFoXDTIxMDEwMTIzNTk1OVow
gc4xCzAJBgNVBAYTAlpBMRUwEwYDVQQIEwxXZXN0ZXJuIENhcGUxEjAQBgNVBAcT
CUNhcGUgVG93bjEdMBsGA1UEChMUVGhhd3RlIENvbnN1bHRpbmcgY2MxKDAmBgNV
BAsTH0NlcnRpZmljYXRpb24gU2VydmljZXMgRGl2aXNpb24xITAfBgNVBAMTGFRo
YXd0ZSBQcmVtaXVtIFNlcnZlciBDQTEoMCYGCSqGSIb3DQEJARYZcHJlbWl1bS1z
ZXJ2ZXJAdGhhd3RlLmNvbTCBnzANBgkqhkiG9w0BAQEFAAOBjQAwgYkCgYEA0jY2
aovXwlue2oFBYo847kkEVdbQ7xwblRZH7xhINTpS9CtqBo87L+pW46+GjZ4X9560
ZXUCTe/LCaIhUdib0GfQug2SBhRz1JPLlyoAnFxODLz6FVL88kRu2hFKbgifLy3j
+ao6hnO2RlNYyIkFvYMRuHM/qgeN9EJN50CdHDcCAwEAAaMTMBEwDwYDVR0TAQH/
BAUwAwEB/zANBgkqhkiG9w0BAQUFAAOBgQBlkKyID1bZ5jA01CbH0FDxkt5r1DmI
CSLGpmODA/eZd9iy5Ri4XWPz1HP7bJyZePFLeH0ZJMMrAoT4vCLZiiLXoPxx7JGH
IPG47LHlVYCsPVLIOQ7C8MAFT9aCdYy9X9LcdpoFEsmvcsPcJX6kTY4XpeCHf+Ga
WuFg3GQjPEIuTQ==
-----END CERTIFICATE-----
