Certificate:
    Data:
        Version: 1 (0x0)
        Serial Number:
            32:88:8e:9a:d2:f5:eb:13:47:f8:7f:c4:20:37:25:f8
    Signature Algorithm: sha1WithRSAEncryption
        Issuer: C=US, O=VeriSign, Inc., OU=Class 4 Public Primary Certification Authority - G2, OU=(c) 1998 VeriSign, Inc. - For authorized use only, OU=VeriSign Trust Network
        Validity
            Not Before: May 18 00:00:00 1998 GMT
            Not After : Aug  1 23:59:59 2028 GMT
        Subject: C=US, O=VeriSign, Inc., OU=Class 4 Public Primary Certification Authority - G2, OU=(c) 1998 VeriSign, Inc. - For authorized use only, OU=VeriSign Trust Network
        Subject Public Key Info:
            Public Key Algorithm: rsaEncryption
                Public-Key: (1024 bit)
                Modulus:
                    00:ba:f0:e4:cf:f9:c4:ae:85:54:b9:07:57:f9:8f:
                    c5:7f:68:11:f8:c4:17:b0:44:dc:e3:30:73:d5:2a:
                    62:2a:b8:d0:cc:1c:ed:28:5b:7e:bd:6a:dc:b3:91:
                    24:ca:41:62:3c:fc:02:01:bf:1c:16:31:94:05:97:
                    76:6e:a2:ad:bd:61:17:6c:4e:30:86:f0:51:37:2a:
                    50:c7:a8:62:81:dc:5b:4a:aa:c1:a0:b4:6e:eb:2f:
                    e5:57:c5:b1:2b:40:70:db:5a:4d:a1:8e:1f:bd:03:
                    1f:d8:03:d4:8f:4c:99:71:bc:e2:82:cc:58:e8:98:
                    3a:86:d3:86:38:f3:00:29:1f
                Exponent: 65537 (0x10001)
    Signature Algorithm: sha1WithRSAEncryption
         85:8c:12:c1:a7:b9:50:15:7a:cb:3e:ac:b8:43:8a:dc:aa:dd:
         14:ba:89:81:7e:01:3c:23:71:21:88:2f:82:dc:63:fa:02:45:
         ac:45:59:d7:2a:58:44:5b:b7:9f:81:3b:92:68:3d:e2:37:24:
         f5:7b:6c:8f:76:35:96:09:a8:59:9d:b9:ce:23:ab:74:d6:83:
         fd:32:73:27:d8:69:3e:43:74:f6:ae:c5:89:9a:e7:53:7c:e9:
         7b:f6:4b:f3:c1:65:83:de:8d:8a:9c:3c:88:8d:39:59:fc:aa:
         3f:22:8d:a1:c1:66:50:81:72:4c:ed:22:64:4f:4f:ca:80:91:
         b6:29
-----BEGIN CERTIFICATE-----
MIIDAjCCAmsCEDKIjprS9esTR/h/xCA3JfgwDQYJKoZIhvcNAQEFBQAwgcExCzAJ
BgNVBAYTAlVTMRcwFQYDVQQKEw5WZXJpU2lnbiwgSW5jLjE8MDoGA1UECxMzQ2xh
c3MgNCBQdWJsaWMgUHJpbWFyeSBDZXJ0aWZpY2F0aW9uIEF1dGhvcml0eSAtIEcy
MTowOAYDVQQLEzEoYykgMTk5OCBWZXJpU2lnbiwgSW5jLiAtIEZvciBhdXRob3Jp
emVkIHVzZSBvbmx5MR8wHQYDVQQLExZWZXJpU2lnbiBUcnVzdCBOZXR3b3JrMB4X
DTk4MDUxODAwMDAwMFoXDTI4MDgwMTIzNTk1OVowgcExCzAJBgNVBAYTAlVTMRcw
FQYDVQQKEw5WZXJpU2lnbiwgSW5jLjE8MDoGA1UECxMzQ2xhc3MgNCBQdWJsaWMg
UHJpbWFyeSBDZXJ0aWZpY2F0aW9uIEF1dGhvcml0eSAtIEcyMTowOAYDVQQLEzEo
YykgMTk5OCBWZXJpU2lnbiwgSW5jLiAtIEZvciBhdXRob3JpemVkIHVzZSBvbmx5
MR8wHQYDVQQLExZWZXJpU2lnbiBUcnVzdCBOZXR3b3JrMIGfMA0GCSqGSIb3DQEB
AQUAA4GNADCBiQKBgQC68OTP+cSuhVS5B1f5j8V/aBH4xBewRNzjMHPVKmIquNDM
HO0oW369atyzkSTKQWI8/AIBvxwWMZQFl3Zuoq29YRdsTjCG8FE3KlDHqGKB3FtK
qsGgtG7rL+VXxbErQHDbWk2hjh+9Ax/YA9SPTJlxvOKCzFjomDqG04Y48wApHwID
AQABMA0GCSqGSIb3DQEBBQUAA4GBAIWMEsGnuVAVess+rLhDityq3RS6iYF+ATwj
cSGIL4LcY/oCRaxFWdcqWERbt5+BO5JoPeI3JPV7bI92NZYJqFmduc4jq3TWg/0y
cyfYaT5DdPauxYma51N86Xv2S/PBZYPejYqcPIiNOVn8qj8ijaHBZlCBckztImRP
T8qAkbYp
-----END CERTIFICATE-----
