Certificate:
    Data:
        Version: 3 (0x2)
        Serial Number:
            4c:79:b5:9a:28:9c:76:31:64:f5:89:44:d0:91:02:de
    Signature Algorithm: ecdsa-with-SHA384
        Issuer: C=US, O=Symantec Corporation, OU=Symantec Trust Network, CN=Symantec Class 3 Public Primary Certification Authority - G4
        Validity
            Not Before: Oct 18 00:00:00 2012 GMT
            Not After : Dec  1 23:59:59 2037 GMT
        Subject: C=US, O=Symantec Corporation, OU=Symantec Trust Network, CN=Symantec Class 3 Public Primary Certification Authority - G4
        Subject Public Key Info:
            Public Key Algorithm: id-ecPublicKey
                Public-Key: (384 bit)
                pub: 
                    04:57:cf:ea:b3:39:4d:3f:a1:21:e0:6e:2f:38:72:
                    c6:87:97:f3:85:0b:47:e7:0f:51:c8:d1:f4:99:9b:
                    ca:59:65:ff:4c:f9:ea:0b:b7:25:d5:d2:f6:ec:31:
                    2d:32:62:12:d7:76:86:a7:fa:38:c9:65:d4:fe:73:
                    e2:84:39:f8:4c:49:62:13:dd:ba:d5:88:a0:5f:3d:
                    c8:4f:b0:3f:8f:a1:50:11:e4:93:46:ad:c3:5f:cb:
                    f1:a4:6a:95:56:e8:c0
                ASN1 OID: secp384r1
        X509v3 extensions:
            X509v3 Key Usage: critical
                Certificate Sign, CRL Sign
            X509v3 Basic Constraints: critical
                CA:TRUE
            X509v3 Subject Key Identifier: 
                24:9D:BC:D2:71:F7:1D:C2:25:BE:22:F1:89:A5:2C:15:3B:34:1E:5E
    Signature Algorithm: ecdsa-with-SHA384
         30:65:02:31:00:b9:66:68:65:db:05:d0:38:7d:0e:f3:c8:75:
         61:b8:d0:28:c4:b1:4a:33:51:58:fb:f2:3c:10:c8:ae:47:78:
         76:ca:66:24:17:86:3e:50:56:6e:a5:2d:99:88:b8:bd:24:02:
         30:03:ea:a7:e7:a8:3c:ea:9d:62:c6:5f:54:da:98:f4:77:bd:
         4f:8f:18:9c:91:5c:47:6b:40:4d:10:1d:b3:e1:89:ca:0b:22:
         c8:1a:c5:c5:fe:8b:dd:c1:df:6f:78:9f:91
-----BEGIN CERTIFICATE-----
MIICpzCCAi2gAwIBAgIQTHm1miicdjFk9YlE0JEC3jAKBggqhkjOPQQDAzCBlDEL
MAkGA1UEBhMCVVMxHTAbBgNVBAoTFFN5bWFudGVjIENvcnBvcmF0aW9uMR8wHQYD
VQQLExZTeW1hbnRlYyBUcnVzdCBOZXR3b3JrMUUwQwYDVQQDEzxTeW1hbnRlYyBD
bGFzcyAzIFB1YmxpYyBQcmltYXJ5IENlcnRpZmljYXRpb24gQXV0aG9yaXR5IC0g
RzQwHhcNMTIxMDE4MDAwMDAwWhcNMzcxMjAxMjM1OTU5WjCBlDELMAkGA1UEBhMC
VVMxHTAbBgNVBAoTFFN5bWFudGVjIENvcnBvcmF0aW9uMR8wHQYDVQQLExZTeW1h
bnRlYyBUcnVzdCBOZXR3b3JrMUUwQwYDVQQDEzxTeW1hbnRlYyBDbGFzcyAzIFB1
YmxpYyBQcmltYXJ5IENlcnRpZmljYXRpb24gQXV0aG9yaXR5IC0gRzQwdjAQBgcq
hkjOPQIBBgUrgQQAIgNiAARXz+qzOU0/oSHgbi84csaHl/OFC0fnD1HI0fSZm8pZ
Zf9M+eoLtyXV0vbsMS0yYhLXdoan+jjJZdT+c+KEOfhMSWIT3brViKBfPchPsD+P
oVAR5JNGrcNfy/GkapVW6MCjQjBAMA4GA1UdDwEB/wQEAwIBBjAPBgNVHRMBAf8E
BTADAQH/MB0GA1UdDgQWBBQknbzScfcdwiW+IvGJpSwVOzQeXjAKBggqhkjOPQQD
AwNoADBlAjEAuWZoZdsF0Dh9DvPIdWG40CjEsUozUVj78jwQyK5HeHbKZiQXhj5Q
Vm6lLZmIuL0kAjAD6qfnqDzqnWLGX1TamPR3vU+PGJyRXEdrQE0QHbPhicoLIsga
xcX+i93B3294n5E=
-----END CERTIFICATE-----
