Certificate:
    Data:
        Version: 3 (0x2)
        Serial Number:
            12:3d:f0:e7:da:2a:22:47:a4:38:89:e0:8a:ee:c9:67
    Signature Algorithm: sha1WithRSAEncryption
        Issuer: C=ZA, ST=Western Cape, L=Cape Town, O=Thawte Consulting, OU=Certification Services Division, CN=Thawte Personal Freemail CA/emailAddress=personal-freemail@thawte.com
        Validity
            Not Before: Jan  1 00:00:00 1996 GMT
            Not After : Jan  1 23:59:59 2021 GMT
        Subject: C=ZA, ST=Western Cape, L=Cape Town, O=Thawte Consulting, OU=Certification Services Division, CN=Thawte Personal Freemail CA/emailAddress=personal-freemail@thawte.com
        Subject Public Key Info:
            Public Key Algorithm: rsaEncryption
                Public-Key: (1024 bit)
                Modulus:
                    00:d4:69:d7:d4:b0:94:64:5b:71:e9:47:d8:0c:51:
                    b6:ea:72:91:b0:84:5e:7d:2d:0d:8f:7b:12:df:85:
                    25:75:28:74:3a:42:2c:63:27:9f:95:7b:4b:ef:7e:
                    19:87:1d:86:ea:a3:dd:b9:ce:96:64:1a:c2:14:6e:
                    44:ac:7c:e6:8f:e8:4d:0f:71:1f:40:38:a6:00:a3:
                    87:78:f6:f9:94:86:5e:ad:ea:c0:5e:76:eb:d9:14:
                    a3:5d:6e:7a:7c:0c:a5:4b:55:7f:06:19:29:7f:9e:
                    9a:26:d5:6a:bb:38:24:08:6a:98:c7:b1:da:a3:98:
                    91:fd:79:db:e5:5a:c4:1c:b9
                Exponent: 65537 (0x10001)
        X509v3 extensions:
            X509v3 Basic Constraints: critical
                CA:TRUE
    Signature Algorithm: sha1WithRSAEncryption
         1e:98:60:d4:e5:f2:54:60:b0:3d:1a:81:64:47:f7:5b:a3:d9:
         6f:c3:29:0b:a7:d2:a9:81:49:f6:c3:6d:85:14:28:45:44:01:
         f4:71:5c:95:2e:14:0f:1a:2b:d1:a9:6b:c1:5f:67:3d:16:f1:
         72:20:af:be:16:ca:0e:30:5f:c9:cb:a5:93:2c:c3:67:54:1e:
         72:22:8a:23:76:6c:94:1d:51:52:6c:9d:c4:e0:47:02:d7:cc:
         bf:f0:80:7b:18:6e:25:dc:62:61:d6:a6:fe:c1:1d:7f:d9:b3:
         fd:8d:5c:45:10:5a:c6:65:64:9a:eb:2c:f5:03:4f:d6:48:62:
         fb:2e
-----BEGIN CERTIFICATE-----
MIIDPDCCAqWgAwIBAgIQEj3w59oqIkekOIngiu7JZzANBgkqhkiG9w0BAQUFADCB
0TELMAkGA1UEBhMCWkExFTATBgNVBAgTDFdlc3Rlcm4gQ2FwZTESMBAGA1UEBxMJ
Q2FwZSBUb3duMRowGAYDVQQKExFUaGF3dGUgQ29uc3VsdGluZzEoMCYGA1UECxMf
Q2VydGlmaWNhdGlvbiBTZXJ2aWNlcyBEaXZpc2lvbjEkMCIGA1UEAxMbVGhhd3Rl
IFBlcnNvbmFsIEZyZWVtYWlsIENBMSswKQYJKoZIhvcNAQkBFhxwZXJzb25hbC1m
cmVlbWFpbEB0aGF3dGUuY29tMB4XDTk2MDEwMTAwMDAwMFoXDTIxMDEwMTIzNTk1
OVowgdExCzAJBgNVBAYTAlpBMRUwEwYDVQQIEwxXZXN0ZXJuIENhcGUxEjAQBgNV
BAcTCUNhcGUgVG93bjEaMBgGA1UEChMRVGhhd3RlIENvbnN1bHRpbmcxKDAmBgNV
BAsTH0NlcnRpZmljYXRpb24gU2VydmljZXMgRGl2aXNpb24xJDAiBgNVBAMTG1Ro
YXd0ZSBQZXJzb25hbCBGcmVlbWFpbCBDQTErMCkGCSqGSIb3DQEJARYccGVyc29u
YWwtZnJlZW1haWxAdGhhd3RlLmNvbTCBnzANBgkqhkiG9w0BAQEFAAOBjQAwgYkC
gYEA1GnX1LCUZFtx6UfYDFG26nKRsIRefS0Nj3sS34UldSh0OkIsYyeflXtL734Z
hx2G6qPduc6WZBrCFG5ErHzmj+hND3EfQDimAKOHePb5lIZererAXnbr2RSjXW56
fAylS1V/Bhkpf56aJtVquzgkCGqYx7Hao5iR/Xnb5VrEHLkCAwEAAaMTMBEwDwYD
VR0TAQH/BAUwAwEB/zANBgkqhkiG9w0BAQUFAAOBgQAemGDU5fJUYLA9GoFkR/db
o9lvwykLp9KpgUn2w22FFChFRAH0cVyVLhQPGivRqWvBX2c9FvFyIK++FsoOMF/J
y6WTLMNnVB5yIoojdmyUHVFSbJ3E4EcC18y/8IB7GG4l3GJh1qb+wR1/2bP9jVxF
EFrGZWSa6yz1A0/WSGL7Lg==
-----END CERTIFICATE-----
