Certificate:
    Data:
        Version: 3 (0x2)
        Serial Number: 1001 (0x3e9)
    Signature Algorithm: md5WithRSAEncryption
        Issuer: C=DE, ST=Hamburg, L=Hamburg, O=TC TrustCenter for Security in Data Networks GmbH, OU=TC TrustCenter Class 1 CA/emailAddress=certificate@trustcenter.de
        Validity
            Not Before: Mar  9 11:59:59 1998 GMT
            Not After : Jan  1 11:59:59 2011 GMT
        Subject: C=DE, ST=Hamburg, L=Hamburg, O=TC TrustCenter for Security in Data Networks GmbH, OU=TC TrustCenter Class 1 CA/emailAddress=certificate@trustcenter.de
        Subject Public Key Info:
            Public Key Algorithm: rsaEncryption
                Public-Key: (1024 bit)
                Modulus:
                    00:b0:29:eb:b4:76:b3:ae:d7:b6:5b:b4:5e:e7:bd:
                    e3:b1:9c:49:04:57:5b:a1:ab:d9:7f:13:1b:fd:ba:
                    61:ab:d8:e7:71:df:2d:00:94:5d:51:48:7d:23:ef:
                    75:62:84:90:3c:0a:1f:59:11:74:2f:8e:80:a5:fd:
                    30:02:3d:29:52:cd:72:1a:49:21:9c:bc:cb:52:8e:
                    48:a1:63:96:c8:10:85:30:69:57:74:45:c0:5a:86:
                    c6:d5:3d:e0:68:57:7d:31:6a:24:8d:45:97:3e:31:
                    7e:68:66:32:6e:24:6d:ec:32:36:c9:41:ca:f0:31:
                    44:c8:a3:61:ca:1b:a0:36:1f
                Exponent: 65537 (0x10001)
        X509v3 extensions:
            X509v3 Basic Constraints: critical
                CA:TRUE
            X509v3 Key Usage: critical
                Digital Signature, Certificate Sign, CRL Sign
            Netscape CA Policy Url: 
                http://www.trustcenter.de/guidelines
            Netscape Cert Type: 
                SSL CA, S/MIME CA, Object Signing CA
    Signature Algorithm: md5WithRSAEncryption
         4f:99:59:85:c8:64:56:82:c5:6f:3d:d8:46:09:2f:3c:51:c1:
         a7:70:58:81:92:12:ea:f4:d4:16:00:96:5e:72:28:e7:d6:36:
         5f:1a:9c:af:1f:c2:83:1a:b4:05:55:99:a6:58:5c:37:28:f2:
         57:1e:eb:5d:bf:b1:d3:45:0f:72:1c:03:d2:00:c7:2c:55:da:
         fe:5f:89:76:8b:e2:d4:77:f5:4d:09:17:af:c4:ba:ab:30:2b:
         4f:b8:1d:ea:d9:ff:59:f0:50:74:46:ba:5e:ea:36:b0:eb:92:
         7b:0f:58:da:32:e1:52:bd:23:37:0f:f5:f3:00:4a:ae:b0:5e:
         de:6e
-----BEGIN CERTIFICATE-----
MIIDXDCCAsWgAwIBAgICA+kwDQYJKoZIhvcNAQEEBQAwgbwxCzAJBgNVBAYTAkRF
MRAwDgYDVQQIEwdIYW1idXJnMRAwDgYDVQQHEwdIYW1idXJnMTowOAYDVQQKEzFU
QyBUcnVzdENlbnRlciBmb3IgU2VjdXJpdHkgaW4gRGF0YSBOZXR3b3JrcyBHbWJI
MSIwIAYDVQQLExlUQyBUcnVzdENlbnRlciBDbGFzcyAxIENBMSkwJwYJKoZIhvcN
AQkBFhpjZXJ0aWZpY2F0ZUB0cnVzdGNlbnRlci5kZTAeFw05ODAzMDkxMTU5NTla
Fw0xMTAxMDExMTU5NTlaMIG8MQswCQYDVQQGEwJERTEQMA4GA1UECBMHSGFtYnVy
ZzEQMA4GA1UEBxMHSGFtYnVyZzE6MDgGA1UEChMxVEMgVHJ1c3RDZW50ZXIgZm9y
IFNlY3VyaXR5IGluIERhdGEgTmV0d29ya3MgR21iSDEiMCAGA1UECxMZVEMgVHJ1
c3RDZW50ZXIgQ2xhc3MgMSBDQTEpMCcGCSqGSIb3DQEJARYaY2VydGlmaWNhdGVA
dHJ1c3RjZW50ZXIuZGUwgZ8wDQYJKoZIhvcNAQEBBQADgY0AMIGJAoGBALAp67R2
s67Xtlu0Xue947GcSQRXW6Gr2X8TG/26YavY53HfLQCUXVFIfSPvdWKEkDwKH1kR
dC+OgKX9MAI9KVLNchpJIZy8y1KOSKFjlsgQhTBpV3RFwFqGxtU94GhXfTFqJI1F
lz4xfmhmMm4kbewyNslByvAxRMijYcoboDYfAgMBAAGjazBpMA8GA1UdEwEB/wQF
MAMBAf8wDgYDVR0PAQH/BAQDAgGGMDMGCWCGSAGG+EIBCAQmFiRodHRwOi8vd3d3
LnRydXN0Y2VudGVyLmRlL2d1aWRlbGluZXMwEQYJYIZIAYb4QgEBBAQDAgAHMA0G
CSqGSIb3DQEBBAUAA4GBAE+ZWYXIZFaCxW892EYJLzxRwadwWIGSEur01BYAll5y
KOfWNl8anK8fwoMatAVVmaZYXDco8lce612/sdNFD3IcA9IAxyxV2v5fiXaL4tR3
9U0JF6/EuqswK0+4HerZ/1nwUHRGul7qNrDrknsPWNoy4VK9IzcP9fMASq6wXt5u
-----END CERTIFICATE-----
