Certificate:
    Data:
        Version: 3 (0x2)
        Serial Number: 1003 (0x3eb)
    Signature Algorithm: md5WithRSAEncryption
        Issuer: C=DE, ST=Hamburg, L=Hamburg, O=TC TrustCenter for Security in Data Networks GmbH, OU=TC TrustCenter Class 3 CA/emailAddress=certificate@trustcenter.de
        Validity
            Not Before: Mar  9 11:59:59 1998 GMT
            Not After : Jan  1 11:59:59 2011 GMT
        Subject: C=DE, ST=Hamburg, L=Hamburg, O=TC TrustCenter for Security in Data Networks GmbH, OU=TC TrustCenter Class 3 CA/emailAddress=certificate@trustcenter.de
        Subject Public Key Info:
            Public Key Algorithm: rsaEncryption
                Public-Key: (1024 bit)
                Modulus:
                    00:b6:b4:c1:35:05:2e:0d:8d:ec:a0:40:6a:1c:0e:
                    27:a6:50:92:6b:50:1b:07:de:2e:e7:76:cc:e0:da:
                    fc:84:a8:5e:8c:63:6a:2b:4d:d9:4e:02:76:11:c1:
                    0b:f2:8d:79:ca:00:b6:f1:b0:0e:d7:fb:a4:17:3d:
                    af:ab:69:7a:96:27:bf:af:33:a1:9a:2a:59:aa:c4:
                    b5:37:08:f2:12:a5:31:b6:43:f5:32:96:71:28:28:
                    ab:8d:28:86:df:bb:ee:e3:0c:7d:30:d6:c3:52:ab:
                    8f:5d:27:9c:6b:c0:a3:e7:05:6b:57:49:44:b3:6e:
                    ea:64:cf:d2:8e:7a:50:77:77
                Exponent: 65537 (0x10001)
        X509v3 extensions:
            X509v3 Basic Constraints: critical
                CA:TRUE
            X509v3 Key Usage: critical
                Digital Signature, Certificate Sign, CRL Sign
            Netscape CA Policy Url: 
                http://www.trustcenter.de/guidelines
            Netscape Cert Type: 
                SSL CA, S/MIME CA, Object Signing CA
    Signature Algorithm: md5WithRSAEncryption
         16:3d:c6:cd:c1:bb:85:71:85:46:9f:3e:20:8f:51:28:99:ec:
         2d:45:21:63:23:5b:04:bb:4c:90:b8:88:92:04:4d:bd:7d:01:
         a3:3f:f6:ec:ce:f1:de:fe:7d:e5:e1:3e:bb:c6:ab:5e:0b:dd:
         3d:96:c4:cb:a9:d4:f9:26:e6:06:4e:9e:0c:a5:7a:ba:6e:c3:
         7c:82:19:d1:c7:b1:b1:c3:db:0d:8e:9b:40:7c:37:0b:f1:5d:
         e8:fd:1f:90:88:a5:0e:4e:37:64:21:a8:4e:8d:b4:9f:f1:de:
         48:ad:d5:56:18:52:29:8b:47:34:12:09:d4:bb:92:35:ef:0f:
         db:34
-----BEGIN CERTIFICATE-----
MIIDXDCCAsWgAwIBAgICA+swDQYJKoZIhvcNAQEEBQAwgbwxCzAJBgNVBAYTAkRF
MRAwDgYDVQQIEwdIYW1idXJnMRAwDgYDVQQHEwdIYW1idXJnMTowOAYDVQQKEzFU
QyBUcnVzdENlbnRlciBmb3IgU2VjdXJpdHkgaW4gRGF0YSBOZXR3b3JrcyBHbWJI
MSIwIAYDVQQLExlUQyBUcnVzdENlbnRlciBDbGFzcyAzIENBMSkwJwYJKoZIhvcN
AQkBFhpjZXJ0aWZpY2F0ZUB0cnVzdGNlbnRlci5kZTAeFw05ODAzMDkxMTU5NTla
Fw0xMTAxMDExMTU5NTlaMIG8MQswCQYDVQQGEwJERTEQMA4GA1UECBMHSGFtYnVy
ZzEQMA4GA1UEBxMHSGFtYnVyZzE6MDgGA1UEChMxVEMgVHJ1c3RDZW50ZXIgZm9y
IFNlY3VyaXR5IGluIERhdGEgTmV0d29ya3MgR21iSDEiMCAGA1UECxMZVEMgVHJ1
c3RDZW50ZXIgQ2xhc3MgMyBDQTEpMCcGCSqGSIb3DQEJARYaY2VydGlmaWNhdGVA
dHJ1c3RjZW50ZXIuZGUwgZ8wDQYJKoZIhvcNAQEBBQADgY0AMIGJAoGBALa0wTUF
Lg2N7KBAahwOJ6ZQkmtQGwfeLud2zODa/ISoXoxjaitN2U4CdhHBC/KNecoAtvGw
Dtf7pBc9r6tpepYnv68zoZoqWarEtTcI8hKlMbZD9TKWcSgoq40oht+77uMMfTDW
w1Krj10nnGvAo+cFa1dJRLNu6mTP0o56UHd3AgMBAAGjazBpMA8GA1UdEwEB/wQF
MAMBAf8wDgYDVR0PAQH/BAQDAgGGMDMGCWCGSAGG+EIBCAQmFiRodHRwOi8vd3d3
LnRydXN0Y2VudGVyLmRlL2d1aWRlbGluZXMwEQYJYIZIAYb4QgEBBAQDAgAHMA0G
CSqGSIb3DQEBBAUAA4GBABY9xs3Bu4VxhUafPiCPUSiZ7C1FIWMjWwS7TJC4iJIE
Tb19AaM/9uzO8d7+feXhPrvGq14L3T2WxMup1Pkm5gZOngylerpuw3yCGdHHsbHD
2w2Om0B8NwvxXej9H5CIpQ5ON2QhqE6NtJ/x3kit1VYYUimLRzQSCdS7kjXvD9s0
-----END CERTIFICATE-----
