Certificate:
    Data:
        Version: 3 (0x2)
        Serial Number:
            34:a4:ff:f6:30:af:4c:a5:3c:33:17:42:a1:94:66:75
    Signature Algorithm: sha1WithRSAEncryption
        Issuer: C=ZA, ST=Western Cape, L=Cape Town, O=Thawte Consulting cc, OU=Certification Services Division, CN=Thawte Server CA/emailAddress=server-certs@thawte.com
        Validity
            Not Before: Aug  1 00:00:00 1996 GMT
            Not After : Jan  1 23:59:59 2021 GMT
        Subject: C=ZA, ST=Western Cape, L=Cape Town, O=Thawte Consulting cc, OU=Certification Services Division, CN=Thawte Server CA/emailAddress=server-certs@thawte.com
        Subject Public Key Info:
            Public Key Algorithm: rsaEncryption
                Public-Key: (1024 bit)
                Modulus:
                    00:d3:a4:50:6e:c8:ff:56:6b:e6:cf:5d:b6:ea:0c:
                    68:75:47:a2:aa:c2:da:84:25:fc:a8:f4:47:51:da:
                    85:b5:20:74:94:86:1e:0f:75:c9:e9:08:61:f5:06:
                    6d:30:6e:15:19:02:e9:52:c0:62:db:4d:99:9e:e2:
                    6a:0c:44:38:cd:fe:be:e3:64:09:70:c5:fe:b1:6b:
                    29:b6:2f:49:c8:3b:d4:27:04:25:10:97:2f:e7:90:
                    6d:c0:28:42:99:d7:4c:43:de:c3:f5:21:6d:54:9f:
                    5d:c3:58:e1:c0:e4:d9:5b:b0:b8:dc:b4:7b:df:36:
                    3a:c2:b5:66:22:12:d6:87:0d
                Exponent: 65537 (0x10001)
        X509v3 extensions:
            X509v3 Basic Constraints: critical
                CA:TRUE
    Signature Algorithm: sha1WithRSAEncryption
         be:40:69:41:6f:c6:db:c1:a7:bf:07:c0:45:e4:d0:b5:43:1e:
         4c:95:33:35:e9:5e:c2:3e:28:f6:a8:0d:50:d5:ff:e2:0c:0f:
         fc:50:02:8e:ae:91:b9:ad:34:8a:8d:9f:27:71:aa:19:cc:4b:
         e8:04:ca:d4:17:6b:12:1a:d6:c6:5f:d6:cd:5e:ff:89:76:bf:
         d8:48:d8:59:bd:08:8a:89:1d:57:cd:45:1e:52:ba:12:9a:84:
         fa:18:89:5f:e8:f9:30:35:6a:01:60:b9:99:80:83:85:0a:6e:
         da:f4:c9:8f:5e:73:2d:31:4a:63:a0:74:f2:1f:8b:22:d2:29:
         3e:eb
-----BEGIN CERTIFICATE-----
MIIDIjCCAougAwIBAgIQNKT/9jCvTKU8MxdCoZRmdTANBgkqhkiG9w0BAQUFADCB
xDELMAkGA1UEBhMCWkExFTATBgNVBAgTDFdlc3Rlcm4gQ2FwZTESMBAGA1UEBxMJ
Q2FwZSBUb3duMR0wGwYDVQQKExRUaGF3dGUgQ29uc3VsdGluZyBjYzEoMCYGA1UE
CxMfQ2VydGlmaWNhdGlvbiBTZXJ2aWNlcyBEaXZpc2lvbjEZMBcGA1UEAxMQVGhh
d3RlIFNlcnZlciBDQTEmMCQGCSqGSIb3DQEJARYXc2VydmVyLWNlcnRzQHRoYXd0
ZS5jb20wHhcNOTYwODAxMDAwMDAwWhcNMjEwMTAxMjM1OTU5WjCBxDELMAkGA1UE
BhMCWkExFTATBgNVBAgTDFdlc3Rlcm4gQ2FwZTESMBAGA1UEBxMJQ2FwZSBUb3du
MR0wGwYDVQQKExRUaGF3dGUgQ29uc3VsdGluZyBjYzEoMCYGA1UECxMfQ2VydGlm
aWNhdGlvbiBTZXJ2aWNlcyBEaXZpc2lvbjEZMBcGA1UEAxMQVGhhd3RlIFNlcnZl
ciBDQTEmMCQGCSqGSIb3DQEJARYXc2VydmVyLWNlcnRzQHRoYXd0ZS5jb20wgZ8w
DQYJKoZIhvcNAQEBBQADgY0AMIGJAoGBANOkUG7I/1Zr5s9dtuoMaHVHoqrC2oQl
/Kj0R1HahbUgdJSGHg91yekIYfUGbTBuFRkC6VLAYttNmZ7iagxEOM3+vuNkCXDF
/rFrKbYvScg71CcEJRCXL+eQbcAoQpnXTEPew/UhbVSfXcNY4cDk2VuwuNy0e982
OsK1ZiIS1ocNAgMBAAGjEzARMA8GA1UdEwEB/wQFMAMBAf8wDQYJKoZIhvcNAQEF
BQADgYEAvkBpQW/G28GnvwfAReTQtUMeTJUzNelewj4o9qgNUNX/4gwP/FACjq6R
ua00io2fJ3GqGcxL6ATK1BdrEhrWxl/WzV7/iXa/2EjYWb0IiokdV81FHlK6EpqE
+hiJX+j5MDVqAWC5mYCDhQpu2vTJj15zLTFKY6B08h+LItIpPus=
-----END CERTIFICATE-----
