Certificate:
    Data:
        Version: 3 (0x2)
        Serial Number: 1004 (0x3ec)
    Signature Algorithm: md5WithRSAEncryption
        Issuer: C=DE, ST=Hamburg, L=Hamburg, O=TC TrustCenter for Security in Data Networks GmbH, OU=TC TrustCenter Class 4 CA/emailAddress=certificate@trustcenter.de
        Validity
            Not Before: Mar  9 11:59:59 1998 GMT
            Not After : Jan  1 11:59:59 2011 GMT
        Subject: C=DE, ST=Hamburg, L=Hamburg, O=TC TrustCenter for Security in Data Networks GmbH, OU=TC TrustCenter Class 4 CA/emailAddress=certificate@trustcenter.de
        Subject Public Key Info:
            Public Key Algorithm: rsaEncryption
                Public-Key: (1024 bit)
                Modulus:
                    00:bf:2f:63:d6:36:7b:b2:0d:d3:55:f5:64:6c:e6:
                    25:5d:c6:b4:c8:14:ba:25:38:83:eb:56:62:a5:55:
                    a9:65:a3:f4:23:99:c2:4b:b9:d0:cd:54:67:a6:a3:
                    a0:a3:a9:33:2b:76:e4:bd:ad:77:b2:ed:5c:12:74:
                    c3:c5:b6:0f:52:9a:72:93:43:90:62:66:15:0f:45:
                    a5:dd:e0:dd:b8:6f:40:6e:57:c1:79:72:a3:60:aa:
                    ba:76:1d:12:89:53:5a:fc:02:be:e1:09:13:c5:4a:
                    2f:dc:3d:8b:19:ad:d7:8b:24:45:fb:4c:f4:cd:5c:
                    35:1d:29:4c:51:f3:f2:6c:55
                Exponent: 65537 (0x10001)
        X509v3 extensions:
            X509v3 Basic Constraints: critical
                CA:TRUE
            X509v3 Key Usage: critical
                Digital Signature, Certificate Sign, CRL Sign
            Netscape CA Policy Url: 
                http://www.trustcenter.de/guidelines
            Netscape Cert Type: 
                SSL CA, S/MIME CA, Object Signing CA
    Signature Algorithm: md5WithRSAEncryption
         72:11:e5:95:41:45:32:ba:1c:f8:80:14:fb:66:b7:eb:ae:9a:
         ce:75:83:51:c0:ae:8a:bb:17:d1:28:e7:76:1f:13:c6:2b:46:
         71:a6:15:77:04:99:e7:5e:b2:91:24:6f:03:0c:73:e7:23:9e:
         76:ca:be:0c:c5:cb:c4:90:18:fc:6d:3a:6e:e0:56:80:1b:c3:
         df:8c:36:13:47:f9:65:c1:83:52:d5:5c:5c:bd:d9:42:66:e1:
         35:21:68:12:10:a4:60:90:3e:3f:81:e8:c3:8c:a1:b0:15:04:
         5a:ce:eb:2c:54:56:4b:f9:04:79:2d:9d:ea:8c:59:2f:ad:79:
         bd:48
-----BEGIN CERTIFICATE-----
MIIDXDCCAsWgAwIBAgICA+wwDQYJKoZIhvcNAQEEBQAwgbwxCzAJBgNVBAYTAkRF
MRAwDgYDVQQIEwdIYW1idXJnMRAwDgYDVQQHEwdIYW1idXJnMTowOAYDVQQKEzFU
QyBUcnVzdENlbnRlciBmb3IgU2VjdXJpdHkgaW4gRGF0YSBOZXR3b3JrcyBHbWJI
MSIwIAYDVQQLExlUQyBUcnVzdENlbnRlciBDbGFzcyA0IENBMSkwJwYJKoZIhvcN
AQkBFhpjZXJ0aWZpY2F0ZUB0cnVzdGNlbnRlci5kZTAeFw05ODAzMDkxMTU5NTla
Fw0xMTAxMDExMTU5NTlaMIG8MQswCQYDVQQGEwJERTEQMA4GA1UECBMHSGFtYnVy
ZzEQMA4GA1UEBxMHSGFtYnVyZzE6MDgGA1UEChMxVEMgVHJ1c3RDZW50ZXIgZm9y
IFNlY3VyaXR5IGluIERhdGEgTmV0d29ya3MgR21iSDEiMCAGA1UECxMZVEMgVHJ1
c3RDZW50ZXIgQ2xhc3MgNCBDQTEpMCcGCSqGSIb3DQEJARYaY2VydGlmaWNhdGVA
dHJ1c3RjZW50ZXIuZGUwgZ8wDQYJKoZIhvcNAQEBBQADgY0AMIGJAoGBAL8vY9Y2
e7IN01X1ZGzmJV3GtMgUuiU4g+tWYqVVqWWj9COZwku50M1UZ6ajoKOpMyt25L2t
d7LtXBJ0w8W2D1KacpNDkGJmFQ9Fpd3g3bhvQG5XwXlyo2CqunYdEolTWvwCvuEJ
E8VKL9w9ixmt14skRftM9M1cNR0pTFHz8mxVAgMBAAGjazBpMA8GA1UdEwEB/wQF
MAMBAf8wDgYDVR0PAQH/BAQDAgGGMDMGCWCGSAGG+EIBCAQmFiRodHRwOi8vd3d3
LnRydXN0Y2VudGVyLmRlL2d1aWRlbGluZXMwEQYJYIZIAYb4QgEBBAQDAgAHMA0G
CSqGSIb3DQEBBAUAA4GBAHIR5ZVBRTK6HPiAFPtmt+uums51g1HAroq7F9Eo53Yf
E8YrRnGmFXcEmedespEkbwMMc+cjnnbKvgzFy8SQGPxtOm7gVoAbw9+MNhNH+WXB
g1LVXFy92UJm4TUhaBIQpGCQPj+B6MOMobAVBFrO6yxUVkv5BHktneqMWS+teb1I
-----END CERTIFICATE-----
