Certificate:
    Data:
        Version: 3 (0x2)
        Serial Number: 1002 (0x3ea)
    Signature Algorithm: md5WithRSAEncryption
        Issuer: C=DE, ST=Hamburg, L=Hamburg, O=TC TrustCenter for Security in Data Networks GmbH, OU=TC TrustCenter Class 2 CA/emailAddress=certificate@trustcenter.de
        Validity
            Not Before: Mar  9 11:59:59 1998 GMT
            Not After : Jan  1 11:59:59 2011 GMT
        Subject: C=DE, ST=Hamburg, L=Hamburg, O=TC TrustCenter for Security in Data Networks GmbH, OU=TC TrustCenter Class 2 CA/emailAddress=certificate@trustcenter.de
        Subject Public Key Info:
            Public Key Algorithm: rsaEncryption
                Public-Key: (1024 bit)
                Modulus:
                    00:da:38:e8:ed:32:00:29:71:83:01:0d:bf:8c:01:
                    dc:da:c6:ad:39:a4:a9:8a:2f:d5:8b:5c:68:5f:50:
                    c6:62:f5:66:bd:ca:91:22:ec:aa:1d:51:d7:3d:b3:
                    51:b2:83:4e:5d:cb:49:b0:f0:4c:55:e5:6b:2d:c7:
                    85:0b:30:1c:92:4e:82:d4:ca:02:ed:f7:6f:be:dc:
                    e0:e3:14:b8:05:53:f2:9a:f4:56:8b:5a:9e:85:93:
                    d1:b4:82:56:ae:4d:bb:a8:4b:57:16:bc:fe:f8:58:
                    9e:f8:29:8d:b0:7b:cd:78:c9:4f:ac:8b:67:0c:f1:
                    9c:fb:fc:57:9b:57:5c:4f:0d
                Exponent: 65537 (0x10001)
        X509v3 extensions:
            X509v3 Basic Constraints: critical
                CA:TRUE
            X509v3 Key Usage: critical
                Digital Signature, Certificate Sign, CRL Sign
            Netscape CA Policy Url: 
                http://www.trustcenter.de/guidelines
            Netscape Cert Type: 
                SSL CA, S/MIME CA, Object Signing CA
    Signature Algorithm: md5WithRSAEncryption
         84:52:fb:28:df:ff:1f:75:01:bc:01:be:04:56:97:6a:74:42:
         24:31:83:f9:46:b1:06:8a:89:cf:96:2c:33:bf:8c:b5:5f:7a:
         72:a1:85:06:ce:86:f8:05:8e:e8:f9:25:ca:da:83:8c:06:ac:
         eb:36:6d:85:91:34:04:36:f4:42:f0:f8:79:2e:0a:48:5c:ab:
         cc:51:4f:78:76:a0:d9:ac:19:bd:2a:d1:69:04:28:91:ca:36:
         10:27:80:57:5b:d2:5c:f5:c2:5b:ab:64:81:63:74:51:f4:97:
         bf:cd:12:28:f7:4d:66:7f:a7:f0:1c:01:26:78:b2:66:47:70:
         51:64
-----BEGIN CERTIFICATE-----
MIIDXDCCAsWgAwIBAgICA+owDQYJKoZIhvcNAQEEBQAwgbwxCzAJBgNVBAYTAkRF
MRAwDgYDVQQIEwdIYW1idXJnMRAwDgYDVQQHEwdIYW1idXJnMTowOAYDVQQKEzFU
QyBUcnVzdENlbnRlciBmb3IgU2VjdXJpdHkgaW4gRGF0YSBOZXR3b3JrcyBHbWJI
MSIwIAYDVQQLExlUQyBUcnVzdENlbnRlciBDbGFzcyAyIENBMSkwJwYJKoZIhvcN
AQkBFhpjZXJ0aWZpY2F0ZUB0cnVzdGNlbnRlci5kZTAeFw05ODAzMDkxMTU5NTla
Fw0xMTAxMDExMTU5NTlaMIG8MQswCQYDVQQGEwJERTEQMA4GA1UECBMHSGFtYnVy
ZzEQMA4GA1UEBxMHSGFtYnVyZzE6MDgGA1UEChMxVEMgVHJ1c3RDZW50ZXIgZm9y
IFNlY3VyaXR5IGluIERhdGEgTmV0d29ya3MgR21iSDEiMCAGA1UECxMZVEMgVHJ1
c3RDZW50ZXIgQ2xhc3MgMiBDQTEpMCcGCSqGSIb3DQEJARYaY2VydGlmaWNhdGVA
dHJ1c3RjZW50ZXIuZGUwgZ8wDQYJKoZIhvcNAQEBBQADgY0AMIGJAoGBANo46O0y
AClxgwENv4wB3NrGrTmkqYov1YtcaF9QxmL1Zr3KkSLsqh1R1z2zUbKDTl3LSbDw
TFXlay3HhQswHJJOgtTKAu33b77c4OMUuAVT8pr0VotanoWT0bSCVq5Nu6hLVxa8
/vhYnvgpjbB7zXjJT6yLZwzxnPv8V5tXXE8NAgMBAAGjazBpMA8GA1UdEwEB/wQF
MAMBAf8wDgYDVR0PAQH/BAQDAgGGMDMGCWCGSAGG+EIBCAQmFiRodHRwOi8vd3d3
LnRydXN0Y2VudGVyLmRlL2d1aWRlbGluZXMwEQYJYIZIAYb4QgEBBAQDAgAHMA0G
CSqGSIb3DQEBBAUAA4GBAIRS+yjf/x91AbwBvgRWl2p0QiQxg/lGsQaKic+WLDO/
jLVfenKhhQbOhvgFjuj5Jcrag4wGrOs2bYWRNAQ29ELw+HkuCkhcq8xRT3h2oNms
Gb0q0WkEKJHKNhAngFdb0lz1wlurZIFjdFH0l7/NEij3TWZ/p/AcASZ4smZHcFFk
-----END CERTIFICATE-----
