Certificate:
    Data:
        Version: 1 (0x0)
        Serial Number:
            0a:ba:1e:00:62:32:e8:b4:36:26:5d:1f:7c:cd:89:66
    Signature Algorithm: sha1WithRSAEncryption
        Issuer: C=US, O=VeriSign, Inc., OU=Class 2 Public Primary Certification Authority
        Validity
            Not Before: Jan 29 00:00:00 1996 GMT
            Not After : Aug  2 23:59:59 2028 GMT
        Subject: C=US, O=VeriSign, Inc., OU=Class 2 Public Primary Certification Authority
        Subject Public Key Info:
            Public Key Algorithm: rsaEncryption
                Public-Key: (1024 bit)
                Modulus:
                    00:b6:5a:8b:a3:0d:6a:23:83:80:6b:cf:39:87:f4:
                    21:13:33:06:4c:25:a2:ed:55:12:97:c5:a7:80:b9:
                    fa:83:c1:20:a0:fa:2f:15:0d:7c:a1:60:6b:7e:79:
                    2c:fa:06:0f:3a:ae:f6:1b:6f:b1:d2:ff:2f:28:52:
                    5f:83:7d:4b:c4:7a:b7:f8:66:1f:80:54:fc:b7:c2:
                    8e:59:4a:14:57:46:d1:9a:93:be:41:91:03:bb:15:
                    80:93:5c:eb:e7:cc:08:6c:3f:3e:b3:4a:fc:ff:4b:
                    6c:23:d5:50:82:26:44:19:8e:23:c3:71:ea:19:24:
                    47:04:9e:75:bf:c8:a6:00:1f
                Exponent: 65537 (0x10001)
    Signature Algorithm: sha1WithRSAEncryption
         80:d3:a0:0f:88:c9:e5:68:5b:84:7b:80:1f:a7:b7:e3:23:58:
         11:1c:f5:14:f0:58:12:8c:8b:df:71:d9:90:24:11:7c:a0:7b:
         c3:7a:19:19:bd:72:bd:20:bf:00:3a:df:fa:d5:7a:cc:c2:e3:
         62:45:8b:cb:49:83:98:c1:70:69:d0:9e:5e:82:8c:35:47:8e:
         4f:1b:b4:1f:63:01:ad:e4:96:d6:b1:ee:7a:2c:66:6e:17:36:
         af:1a:7e:38:06:86:2c:6b:4d:cb:27:92:6e:78:bf:00:d5:01:
         c0:b1:07:c3:09:aa:64:85:28:f2:9d:73:9e:cf:60:3a:0a:1d:
         4a:48
-----BEGIN CERTIFICATE-----
MIICPDCCAaUCEAq6HgBiMui0NiZdH3zNiWYwDQYJKoZIhvcNAQEFBQAwXzELMAkG
A1UEBhMCVVMxFzAVBgNVBAoTDlZlcmlTaWduLCBJbmMuMTcwNQYDVQQLEy5DbGFz
cyAyIFB1YmxpYyBQcmltYXJ5IENlcnRpZmljYXRpb24gQXV0aG9yaXR5MB4XDTk2
MDEyOTAwMDAwMFoXDTI4MDgwMjIzNTk1OVowXzELMAkGA1UEBhMCVVMxFzAVBgNV
BAoTDlZlcmlTaWduLCBJbmMuMTcwNQYDVQQLEy5DbGFzcyAyIFB1YmxpYyBQcmlt
YXJ5IENlcnRpZmljYXRpb24gQXV0aG9yaXR5MIGfMA0GCSqGSIb3DQEBAQUAA4GN
ADCBiQKBgQC2WoujDWojg4BrzzmH9CETMwZMJaLtVRKXxaeAufqDwSCg+i8VDXyh
YGt+eSz6Bg86rvYbb7HS/y8oUl+DfUvEerf4Zh+AVPy3wo5ZShRXRtGak75BkQO7
FYCTXOvnzAhsPz6zSvz/S2wj1VCCJkQZjiPDceoZJEcEnnW/yKYAHwIDAQABMA0G
CSqGSIb3DQEBBQUAA4GBAIDToA+IyeVoW4R7gB+nt+MjWBEc9RTwWBKMi99x2ZAk
EXyge8N6GRm9cr0gvwA63/rVeszC42JFi8tJg5jBcGnQnl6CjDVHjk8btB9jAa3k
ltax7nosZm4XNq8afjgGhixrTcsnkm54vwDVAcCxB8MJqmSFKPKdc57PYDoKHUpI
-----END CERTIFICATE-----
