Certificate:
    Data:
        Version: 3 (0x2)
        Serial Number:
            58:05:69:9b:c3:16:3a:70:6b:a4:f3:92:9e:c5:00:66
    Signature Algorithm: dsa_with_SHA256
        Issuer: C=US, O=GeoTrust Inc., OU=(c) 2012 GeoTrust Inc. - For authorized use only, CN=GeoTrust Primary Certification Authority - G4
        Validity
            Not Before: Oct 15 00:00:00 2012 GMT
            Not After : Dec  1 23:59:59 2037 GMT
        Subject: C=US, O=GeoTrust Inc., OU=(c) 2012 GeoTrust Inc. - For authorized use only, CN=GeoTrust Primary Certification Authority - G4
        Subject Public Key Info:
            Public Key Algorithm: dsaEncryption
                pub: 
                    67:60:a8:bc:86:67:bc:82:e2:30:2b:49:dd:a2:12:
                    fb:12:cf:de:1f:23:9e:30:96:7e:7c:15:05:70:80:
                    29:7d:b5:7f:73:8f:79:4d:f0:5f:e0:b4:22:61:bd:
                    f6:6a:0f:c4:64:0a:de:f2:32:2a:cf:b0:57:0f:e8:
                    c6:f9:ed:d2:65:b7:51:43:1c:47:fb:45:d9:ee:30:
                    ac:f1:7a:1c:94:71:90:7b:6c:ff:c3:8a:69:f7:ad:
                    4e:3c:40:ab:f5:2d:7b:d9:7e:23:51:52:10:d5:9a:
                    7d:ce:90:64:ba:bb:10:34:a1:a7:02:b5:49:85:67:
                    8b:a5:a8:95:68:6b:51:77:80:1b:9f:49:70:e1:a6:
                    59:b4:8f:1e:a8:9b:82:c3:d4:33:bf:c0:1e:6f:d6:
                    0a:38:b2:40:4f:52:3e:0f:a1:cd:e3:86:aa:38:1d:
                    ba:0a:0a:83:47:4f:4a:80:73:10:3a:0e:2f:f4:ac:
                    6d:cf:ee:92:e2:47:56:1a:7d:f4:e1:1e:1d:b4:ca:
                    7c:7e:d3:29:ba:11:ea:1f:44:cb:5c:c4:2c:c3:47:
                    81:db:33:4f:54:74:5c:c8:e4:50:50:81:65:12:a1:
                    8e:39:7d:e0:a0:19:88:6f:d6:34:98:8f:10:ee:ff:
                    f9:61:8c:47:e8:1f:e9:94:50:03:22:69:b2:5e:95:
                    b9
                P:   
                    00:91:7d:32:e1:1b:16:86:dc:53:a6:fb:a2:66:b3:
                    76:1d:49:44:f0:63:3f:3b:83:8c:8c:41:77:48:29:
                    96:91:1d:49:cf:46:24:81:4a:3a:ff:98:9d:5f:6b:
                    df:2d:aa:bc:b6:e4:59:f8:da:00:e9:0c:7d:ce:d9:
                    30:af:0c:83:d7:17:e9:97:0c:77:6a:9b:34:f6:9a:
                    35:e2:c6:12:ba:06:6e:0f:58:04:f5:3b:ab:2d:18:
                    f4:9e:ea:b4:b5:3c:89:b4:84:53:d4:35:c8:b5:c9:
                    46:d7:9e:7c:90:ae:b9:fd:bd:70:2d:04:08:0d:37:
                    0f:4d:ce:a1:b2:95:ef:fa:c3:18:4e:16:70:9b:44:
                    e4:1d:69:5a:46:49:15:46:55:83:42:15:c5:a1:e5:
                    10:88:ab:e8:03:e4:49:9d:e2:bd:6f:71:ed:ae:da:
                    c1:b4:bf:b9:0f:fa:aa:19:9e:95:72:4d:d2:6d:49:
                    be:af:7c:df:29:ef:ba:8f:0f:1b:c7:f5:05:21:2e:
                    56:b1:1b:b3:51:9e:a1:20:42:42:29:30:db:e4:84:
                    0e:57:20:65:b3:5d:59:c7:30:36:ad:a7:6f:0f:ac:
                    90:52:e1:4f:5f:0a:ce:2d:b9:84:ab:75:d5:eb:4f:
                    5b:21:45:07:67:33:f9:dc:d1:47:fb:f7:88:e8:b8:
                    c4:99
                Q:   
                    00:ab:29:5c:28:27:1a:89:60:f7:6a:67:94:23:df:
                    fb:64:ba:c5:d4:4e:67:86:fd:d1:a4:a9:8f:84:08:
                    7b:1b:77
                G:   
                    51:0a:6a:70:ee:2d:6f:f6:62:f7:79:6b:56:10:59:
                    a8:b4:89:0c:82:d6:26:6e:f9:79:5a:04:72:32:a5:
                    54:bd:cf:c1:94:55:40:ec:82:6a:1b:cd:99:84:90:
                    44:36:0c:56:75:9a:28:b3:0d:d9:62:18:e8:b3:3d:
                    e0:d5:59:72:47:c7:0b:9b:07:ba:89:64:d4:32:ad:
                    f3:44:9e:34:00:41:91:53:b5:61:64:10:79:e5:f6:
                    5b:a9:7e:c0:1f:b7:26:4e:1c:f1:a5:97:e4:01:18:
                    53:e0:6f:f1:1e:f9:a0:b3:03:9d:77:a5:6e:18:c4:
                    c0:db:7c:ef:c1:e2:42:e7:cc:10:e4:52:ec:a8:a6:
                    8d:0c:b4:28:12:5f:d5:dc:b0:b4:d0:d5:da:ba:8a:
                    d6:78:81:22:c1:aa:33:7c:73:d6:13:24:f0:b3:78:
                    db:76:86:11:c0:f1:1d:db:31:ae:dc:4d:03:a0:73:
                    a5:21:d3:31:a2:35:68:a8:fd:3e:13:35:17:49:db:
                    13:3d:b9:e8:1a:bb:13:48:ef:e5:9a:4c:a9:74:64:
                    d0:b4:f1:d5:52:97:4b:ad:c7:75:5a:a7:6a:6f:9c:
                    a3:06:cf:ae:34:7e:da:b2:64:99:43:47:0a:b7:d7:
                    04:69:bf:7e:50:ea:f6:8b:be:e3:5a:1c:3f:ae:8b:
                    1a
        X509v3 extensions:
            X509v3 Key Usage: critical
                Certificate Sign, CRL Sign
            X509v3 Basic Constraints: critical
                CA:TRUE
            X509v3 Subject Key Identifier: 
                95:DF:5E:74:C0:82:D0:C8:27:D9:C6:69:2A:6A:7F:4C:D2:72:CC:86
    Signature Algorithm: dsa_with_SHA256
         r:   
             53:ba:7a:d5:9c:f8:48:1c:2d:30:5c:5b:8c:ea:e0:
             8a:4f:ce:b5:cf:49:b5:ed:75:a8:7d:68:a8:fa:9c:
             eb:cb
         s:   
             4a:e4:17:1e:f7:23:33:65:34:e0:fa:0b:ec:7a:ca:
             c6:1f:bf:37:d2:3d:59:bc:53:c5:5e:6d:fd:d4:72:
             86:61
-----BEGIN CERTIFICATE-----
MIIFYjCCBQigAwIBAgIQWAVpm8MWOnBrpPOSnsUAZjALBglghkgBZQMEAwIwgZgx
CzAJBgNVBAYTAlVTMRYwFAYDVQQKEw1HZW9UcnVzdCBJbmMuMTkwNwYDVQQLEzAo
YykgMjAxMiBHZW9UcnVzdCBJbmMuIC0gRm9yIGF1dGhvcml6ZWQgdXNlIG9ubHkx
NjA0BgNVBAMTLUdlb1RydXN0IFByaW1hcnkgQ2VydGlmaWNhdGlvbiBBdXRob3Jp
dHkgLSBHNDAeFw0xMjEwMTUwMDAwMDBaFw0zNzEyMDEyMzU5NTlaMIGYMQswCQYD
VQQGEwJVUzEWMBQGA1UEChMNR2VvVHJ1c3QgSW5jLjE5MDcGA1UECxMwKGMpIDIw
MTIgR2VvVHJ1c3QgSW5jLiAtIEZvciBhdXRob3JpemVkIHVzZSBvbmx5MTYwNAYD
VQQDEy1HZW9UcnVzdCBQcmltYXJ5IENlcnRpZmljYXRpb24gQXV0aG9yaXR5IC0g
RzQwggNGMIICOQYHKoZIzjgEATCCAiwCggEBAJF9MuEbFobcU6b7omazdh1JRPBj
PzuDjIxBd0gplpEdSc9GJIFKOv+YnV9r3y2qvLbkWfjaAOkMfc7ZMK8Mg9cX6ZcM
d2qbNPaaNeLGEroGbg9YBPU7qy0Y9J7qtLU8ibSEU9Q1yLXJRteefJCuuf29cC0E
CA03D03OobKV7/rDGE4WcJtE5B1pWkZJFUZVg0IVxaHlEIir6APkSZ3ivW9x7a7a
wbS/uQ/6qhmelXJN0m1Jvq983ynvuo8PG8f1BSEuVrEbs1GeoSBCQikw2+SEDlcg
ZbNdWccwNq2nbw+skFLhT18Kzi25hKt11etPWyFFB2cz+dzRR/v3iOi4xJkCIQCr
KVwoJxqJYPdqZ5Qj3/tkusXUTmeG/dGkqY+ECHsbdwKCAQBRCmpw7i1v9mL3eWtW
EFmotIkMgtYmbvl5WgRyMqVUvc/BlFVA7IJqG82ZhJBENgxWdZoosw3ZYhjosz3g
1VlyR8cLmwe6iWTUMq3zRJ40AEGRU7VhZBB55fZbqX7AH7cmThzxpZfkARhT4G/x
HvmgswOdd6VuGMTA23zvweJC58wQ5FLsqKaNDLQoEl/V3LC00NXauorWeIEiwaoz
fHPWEyTws3jbdoYRwPEd2zGu3E0DoHOlIdMxojVoqP0+EzUXSdsTPbnoGrsTSO/l
mkypdGTQtPHVUpdLrcd1Wqdqb5yjBs+uNH7asmSZQ0cKt9cEab9+UOr2i77jWhw/
rosaA4IBBQACggEAZ2CovIZnvILiMCtJ3aIS+xLP3h8jnjCWfnwVBXCAKX21f3OP
eU3wX+C0ImG99moPxGQK3vIyKs+wVw/oxvnt0mW3UUMcR/tF2e4wrPF6HJRxkHts
/8OKafetTjxAq/Ute9l+I1FSENWafc6QZLq7EDShpwK1SYVni6WolWhrUXeAG59J
cOGmWbSPHqibgsPUM7/AHm/WCjiyQE9SPg+hzeOGqjgdugoKg0dPSoBzEDoOL/Ss
bc/ukuJHVhp99OEeHbTKfH7TKboR6h9Ey1zELMNHgdszT1R0XMjkUFCBZRKhjjl9
4KAZiG/WNJiPEO7/+WGMR+gf6ZRQAyJpsl6VuaNCMEAwDgYDVR0PAQH/BAQDAgEG
MA8GA1UdEwEB/wQFMAMBAf8wHQYDVR0OBBYEFJXfXnTAgtDIJ9nGaSpqf0zScsyG
MAsGCWCGSAFlAwQDAgNHADBEAiBTunrVnPhIHC0wXFuM6uCKT861z0m17XWofWio
+pzrywIgSuQXHvcjM2U04PoL7HrKxh+/N9I9WbxTxV5t/dRyhmE=
-----END CERTIFICATE-----
