Certificate:
    Data:
        Version: 3 (0x2)
        Serial Number:
            65:63:71:85:d3:6f:45:c6:8f:7f:31:f9:09:87:92:82
    Signature Algorithm: sha384WithRSAEncryption
        Issuer: C=US, O=Symantec Corporation, OU=Symantec Trust Network, CN=Symantec Class 3 Public Primary Certification Authority - G6
        Validity
            Not Before: Oct 18 00:00:00 2012 GMT
            Not After : Dec  1 23:59:59 2037 GMT
        Subject: C=US, O=Symantec Corporation, OU=Symantec Trust Network, CN=Symantec Class 3 Public Primary Certification Authority - G6
        Subject Public Key Info:
            Public Key Algorithm: rsaEncryption
                Public-Key: (4096 bit)
                Modulus:
                    00:b7:0e:b2:fa:4d:bc:9a:72:15:fb:77:5b:db:fd:
                    43:0f:cb:0b:f7:60:2e:b3:2b:7e:0c:bb:53:f2:cc:
                    4e:65:f3:19:bb:ff:35:1d:f7:d3:a9:bb:40:2d:b5:
                    dd:78:d4:a6:f9:37:ea:85:05:7b:6d:b7:e6:13:4b:
                    06:7c:fb:76:63:8f:20:1d:2d:38:2b:04:85:f2:e8:
                    b0:d1:5f:4d:4a:21:c9:6a:d8:94:ea:1e:02:50:a6:
                    aa:90:07:a0:47:21:ea:66:f9:04:a0:e6:83:f0:c4:
                    f5:5e:96:e2:27:4d:61:c3:b3:c1:8c:22:b6:66:a1:
                    00:d1:56:29:fb:ed:c1:7f:24:ca:3d:fa:5a:94:b0:
                    84:c3:c7:ba:43:1c:fd:64:0e:f1:28:fb:47:59:f2:
                    26:e1:31:b9:44:f9:ab:dd:fb:be:be:2c:37:e3:ac:
                    0b:18:d3:fc:01:a2:f1:a4:0a:35:82:47:4c:ab:bd:
                    8a:5e:df:13:85:fc:20:cc:48:59:af:af:41:6f:cb:
                    23:cd:ca:93:a7:dd:d5:5f:c8:64:3b:ff:01:03:a0:
                    0a:4f:2d:6e:3d:84:be:af:c8:32:b2:53:29:90:15:
                    f7:b0:05:9a:0a:3c:f6:b9:06:90:c9:a5:e1:5d:a0:
                    3b:b0:fe:a8:b6:bf:f5:89:28:57:24:3a:21:86:71:
                    e4:dc:8a:8b:41:55:ec:1e:30:24:59:d1:c0:59:b8:
                    78:af:aa:5a:74:de:25:80:30:98:ed:30:44:6f:21:
                    70:1c:db:12:53:0e:d6:a6:28:66:93:2c:1f:cc:4f:
                    3c:1b:81:c5:b9:f6:78:6f:d0:32:3a:08:72:db:6b:
                    0e:46:17:85:94:f3:bc:ef:bc:f7:a4:5e:8e:e9:e9:
                    b5:64:e5:b7:4b:45:12:2c:4c:37:b7:60:43:0a:4d:
                    71:06:00:94:26:35:74:1f:bb:7a:39:5c:4e:3b:e6:
                    b8:03:e2:c7:93:8b:84:2c:25:49:45:dd:7f:23:94:
                    60:1f:cb:e9:cd:f6:ab:97:f7:61:e7:fb:7f:62:81:
                    c8:dc:0a:30:5c:18:7c:e6:ce:ef:c7:6e:1e:87:7c:
                    b3:e9:ca:c8:7b:6a:f4:68:fc:83:a5:0c:56:b4:ba:
                    b2:8d:4a:0a:c7:97:97:c5:88:30:15:3d:10:08:54:
                    15:72:72:67:33:33:f4:7c:b7:ce:00:27:53:65:ce:
                    24:f1:5a:64:e7:36:2f:f2:2e:02:c2:97:df:72:e8:
                    02:1e:a0:f7:3d:b5:fb:68:60:03:fa:33:a9:e6:12:
                    6d:06:e1:a9:a8:5d:4e:3c:fe:d9:e7:00:65:ac:b6:
                    19:4d:7b:83:7f:34:47:ea:e1:18:6d:b1:8b:1c:79:
                    ab:e7:9d
                Exponent: 65537 (0x10001)
        X509v3 extensions:
            X509v3 Key Usage: critical
                Certificate Sign, CRL Sign
            X509v3 Basic Constraints: critical
                CA:TRUE
            X509v3 Subject Key Identifier: 
                39:71:08:00:3E:DE:C8:86:E7:90:FF:E4:FD:21:0F:CE:24:19:16:F6
    Signature Algorithm: sha384WithRSAEncryption
         50:6b:88:4d:60:48:ce:5a:e3:22:ce:67:7c:84:a7:cd:1c:fd:
         e9:0c:03:8c:36:af:0a:87:0e:6a:ae:57:ae:01:d0:36:bb:f2:
         fd:b9:73:c1:5f:b5:a8:ae:4c:a2:fa:49:cb:07:46:16:36:bd:
         e3:c8:57:38:7e:38:e4:bf:25:33:60:c6:dc:37:9c:63:bb:5e:
         98:1e:1a:b2:82:f0:ae:a6:77:11:80:44:47:a1:29:c5:f0:b3:
         3a:ce:98:f0:b8:ec:d3:0e:80:06:77:23:30:4c:ff:79:64:63:
         22:5b:77:93:43:4b:75:b3:db:3b:6e:3b:4a:dd:f1:c8:ae:b5:
         37:8a:95:88:3a:10:68:70:38:b9:5b:70:7e:d5:43:c9:fc:5f:
         4f:e5:e6:7b:36:ee:f0:20:ed:47:57:13:26:10:5e:14:06:0d:
         7b:76:07:c2:c6:2d:16:f4:ae:a7:6c:0f:bc:88:0f:4f:2c:02:
         b6:a3:d7:22:e6:99:47:35:d8:8d:a5:4f:81:12:3a:11:7d:b3:
         cc:0b:75:f3:1e:70:a3:1b:03:ea:fa:9a:e8:e6:2e:36:39:cc:
         99:ce:3a:3f:0c:b7:ae:f8:43:99:b0:93:6e:6f:aa:d9:0f:6a:
         31:91:bb:9c:d3:b4:28:fb:83:4c:7a:73:82:50:67:d2:0e:ac:
         ed:60:c5:b2:5d:35:98:cf:87:7e:1e:59:1d:24:bc:56:ba:da:
         a4:5a:d8:cc:e6:bc:1e:10:8f:1b:8c:8e:f3:c1:db:b7:be:d4:
         b0:5b:65:8f:16:68:f3:56:c5:2a:19:16:4d:0f:b8:65:87:6d:
         24:83:b8:62:dc:e0:47:61:1a:88:7b:ce:4e:7f:fd:dc:c6:0d:
         5a:9a:a4:f3:b5:4c:f6:dd:31:a6:e8:1d:11:21:33:30:04:61:
         7d:1c:e0:3e:4f:8d:3f:b5:8b:12:00:5a:7d:a9:a1:00:d4:83:
         eb:70:bb:18:f8:a4:d2:1c:81:2d:b7:08:11:c8:26:7b:b6:d4:
         e5:0f:03:46:72:d4:25:40:1e:be:49:5d:6d:93:f1:5c:b2:3b:
         75:54:69:3a:a0:ee:4c:22:ba:ac:9a:e2:08:ad:45:63:05:4a:
         52:35:76:c4:34:f5:5e:07:32:ad:dc:7c:26:d1:5b:8f:ad:e4:
         e6:aa:1b:75:9f:eb:5d:b4:e8:c0:a9:15:7c:4e:4a:07:72:df:
         46:c9:d4:91:92:75:56:b0:e1:ee:37:36:65:28:c5:15:c8:2b:
         76:cc:6d:6f:19:83:f4:fd:da:15:e2:41:e7:33:79:46:83:57:
         f9:f1:a5:b6:6d:d3:bc:d7:53:e7:ee:71:6d:78:a9:97:a7:ee:
         20:9c:19:15:72:15:3d:04
-----BEGIN CERTIFICATE-----
MIIF9jCCA96gAwIBAgIQZWNxhdNvRcaPfzH5CYeSgjANBgkqhkiG9w0BAQwFADCB
lDELMAkGA1UEBhMCVVMxHTAbBgNVBAoTFFN5bWFudGVjIENvcnBvcmF0aW9uMR8w
HQYDVQQLExZTeW1hbnRlYyBUcnVzdCBOZXR3b3JrMUUwQwYDVQQDEzxTeW1hbnRl
YyBDbGFzcyAzIFB1YmxpYyBQcmltYXJ5IENlcnRpZmljYXRpb24gQXV0aG9yaXR5
IC0gRzYwHhcNMTIxMDE4MDAwMDAwWhcNMzcxMjAxMjM1OTU5WjCBlDELMAkGA1UE
BhMCVVMxHTAbBgNVBAoTFFN5bWFudGVjIENvcnBvcmF0aW9uMR8wHQYDVQQLExZT
eW1hbnRlYyBUcnVzdCBOZXR3b3JrMUUwQwYDVQQDEzxTeW1hbnRlYyBDbGFzcyAz
IFB1YmxpYyBQcmltYXJ5IENlcnRpZmljYXRpb24gQXV0aG9yaXR5IC0gRzYwggIi
MA0GCSqGSIb3DQEBAQUAA4ICDwAwggIKAoICAQC3DrL6TbyachX7d1vb/UMPywv3
YC6zK34Mu1PyzE5l8xm7/zUd99Opu0Attd141Kb5N+qFBXttt+YTSwZ8+3ZjjyAd
LTgrBIXy6LDRX01KIclq2JTqHgJQpqqQB6BHIepm+QSg5oPwxPVeluInTWHDs8GM
IrZmoQDRVin77cF/JMo9+lqUsITDx7pDHP1kDvEo+0dZ8ibhMblE+avd+76+LDfj
rAsY0/wBovGkCjWCR0yrvYpe3xOF/CDMSFmvr0FvyyPNypOn3dVfyGQ7/wEDoApP
LW49hL6vyDKyUymQFfewBZoKPPa5BpDJpeFdoDuw/qi2v/WJKFckOiGGceTciotB
VeweMCRZ0cBZuHivqlp03iWAMJjtMERvIXAc2xJTDtamKGaTLB/MTzwbgcW59nhv
0DI6CHLbaw5GF4WU87zvvPekXo7p6bVk5bdLRRIsTDe3YEMKTXEGAJQmNXQfu3o5
XE475rgD4seTi4QsJUlF3X8jlGAfy+nN9quX92Hn+39igcjcCjBcGHzmzu/Hbh6H
fLPpysh7avRo/IOlDFa0urKNSgrHl5fFiDAVPRAIVBVycmczM/R8t84AJ1NlziTx
WmTnNi/yLgLCl99y6AIeoPc9tftoYAP6M6nmEm0G4amoXU48/tnnAGWsthlNe4N/
NEfq4RhtsYsceavnnQIDAQABo0IwQDAOBgNVHQ8BAf8EBAMCAQYwDwYDVR0TAQH/
BAUwAwEB/zAdBgNVHQ4EFgQUOXEIAD7eyIbnkP/k/SEPziQZFvYwDQYJKoZIhvcN
AQEMBQADggIBAFBriE1gSM5a4yLOZ3yEp80c/ekMA4w2rwqHDmquV64B0Da78v25
c8FftaiuTKL6ScsHRhY2vePIVzh+OOS/JTNgxtw3nGO7XpgeGrKC8K6mdxGAREeh
KcXwszrOmPC47NMOgAZ3IzBM/3lkYyJbd5NDS3Wz2ztuO0rd8ciutTeKlYg6EGhw
OLlbcH7VQ8n8X0/l5ns27vAg7UdXEyYQXhQGDXt2B8LGLRb0rqdsD7yID08sAraj
1yLmmUc12I2lT4ESOhF9s8wLdfMecKMbA+r6mujmLjY5zJnOOj8Mt674Q5mwk25v
qtkPajGRu5zTtCj7g0x6c4JQZ9IOrO1gxbJdNZjPh34eWR0kvFa62qRa2MzmvB4Q
jxuMjvPB27e+1LBbZY8WaPNWxSoZFk0PuGWHbSSDuGLc4EdhGoh7zk5//dzGDVqa
pPO1TPbdMaboHREhMzAEYX0c4D5PjT+1ixIAWn2poQDUg+twuxj4pNIcgS23CBHI
Jnu21OUPA0Zy1CVAHr5JXW2T8VyyO3VUaTqg7kwiuqya4gitRWMFSlI1dsQ09V4H
Mq3cfCbRW4+t5OaqG3Wf61206MCpFXxOSgdy30bJ1JGSdVaw4e43NmUoxRXIK3bM
bW8Zg/T92hXiQeczeUaDV/nxpbZt07zXU+fucW14qZen7iCcGRVyFT0E
-----END CERTIFICATE-----
