Certificate:
    Data:
        Version: 3 (0x2)
        Serial Number: 1009 (0x3f1)
    Signature Algorithm: md5WithRSAEncryption
        Issuer: C=DE, ST=Hamburg, L=Hamburg, O=TC TrustCenter for Security in Data Networks GmbH, OU=TC TrustCenter Time Stamping CA, CN=TC TrustCenter Time Stamping CA
        Validity
            Not Before: Mar  9 11:59:59 1998 GMT
            Not After : Jan  1 11:59:59 2011 GMT
        Subject: C=DE, ST=Hamburg, L=Hamburg, O=TC TrustCenter for Security in Data Networks GmbH, OU=TC TrustCenter Time Stamping CA, CN=TC TrustCenter Time Stamping CA
        Subject Public Key Info:
            Public Key Algorithm: rsaEncryption
                Public-Key: (1024 bit)
                Modulus:
                    00:b6:4b:e4:36:6a:9c:03:8c:e9:19:6f:be:87:f9:
                    f7:30:8c:3e:2f:18:4d:54:de:e8:cc:2c:08:3d:7c:
                    46:2f:84:0c:9d:eb:ef:fb:11:94:63:e7:ec:b4:cd:
                    13:fd:9a:f6:30:65:c5:8a:7d:c8:82:d1:a3:bd:11:
                    7b:1e:7e:bf:2f:dc:67:81:04:5b:70:4b:ea:e1:b3:
                    b6:98:3d:b5:be:70:d3:3e:79:5d:0b:37:98:58:8a:
                    c3:fa:99:28:8f:01:04:63:1e:80:7f:77:72:c4:5d:
                    7f:ff:4f:57:ff:aa:c9:56:77:43:ad:fc:16:37:6a:
                    38:2f:74:41:19:37:a7:ff:c3
                Exponent: 65537 (0x10001)
        X509v3 extensions:
            X509v3 Basic Constraints: critical
                CA:TRUE
            Netscape CA Policy Url: 
                http://www.trustcenter.de/guidelines
    Signature Algorithm: md5WithRSAEncryption
         2e:ac:8f:b6:19:a0:a4:8c:5e:01:bb:09:69:d6:2e:05:fb:76:
         2b:69:35:d7:c8:6f:06:a8:1b:f2:d5:5f:0b:cc:4b:f3:c1:53:
         f4:95:bf:9c:8e:6c:b3:5f:7b:0b:c6:e6:9c:a7:d0:2c:03:3e:
         d5:39:e1:9c:6e:eb:41:f8:c9:64:43:b8:3d:a2:4a:e1:1e:4f:
         85:92:d7:1b:47:6e:3f:17:da:af:ec:16:3e:8e:1a:89:2d:41:
         89:d6:69:2f:43:aa:5d:2e:f2:e8:d0:54:ee:0d:16:c5:da:70:
         d8:12:74:44:ae:16:4b:74:ed:8c:0b:ab:35:0a:48:68:ec:69:
         03:29
-----BEGIN CERTIFICATE-----
MIIDQzCCAqygAwIBAgICA/EwDQYJKoZIhvcNAQEEBQAwgcExCzAJBgNVBAYTAkRF
MRAwDgYDVQQIEwdIYW1idXJnMRAwDgYDVQQHEwdIYW1idXJnMTowOAYDVQQKEzFU
QyBUcnVzdENlbnRlciBmb3IgU2VjdXJpdHkgaW4gRGF0YSBOZXR3b3JrcyBHbWJI
MSgwJgYDVQQLEx9UQyBUcnVzdENlbnRlciBUaW1lIFN0YW1waW5nIENBMSgwJgYD
VQQDEx9UQyBUcnVzdENlbnRlciBUaW1lIFN0YW1waW5nIENBMB4XDTk4MDMwOTEx
NTk1OVoXDTExMDEwMTExNTk1OVowgcExCzAJBgNVBAYTAkRFMRAwDgYDVQQIEwdI
YW1idXJnMRAwDgYDVQQHEwdIYW1idXJnMTowOAYDVQQKEzFUQyBUcnVzdENlbnRl
ciBmb3IgU2VjdXJpdHkgaW4gRGF0YSBOZXR3b3JrcyBHbWJIMSgwJgYDVQQLEx9U
QyBUcnVzdENlbnRlciBUaW1lIFN0YW1waW5nIENBMSgwJgYDVQQDEx9UQyBUcnVz
dENlbnRlciBUaW1lIFN0YW1waW5nIENBMIGfMA0GCSqGSIb3DQEBAQUAA4GNADCB
iQKBgQC2S+Q2apwDjOkZb76H+fcwjD4vGE1U3ujMLAg9fEYvhAyd6+/7EZRj5+y0
zRP9mvYwZcWKfciC0aO9EXsefr8v3GeBBFtwS+rhs7aYPbW+cNM+eV0LN5hYisP6
mSiPAQRjHoB/d3LEXX//T1f/qslWd0Ot/BY3ajgvdEEZN6f/wwIDAQABo0gwRjAP
BgNVHRMBAf8EBTADAQH/MDMGCWCGSAGG+EIBCAQmFiRodHRwOi8vd3d3LnRydXN0
Y2VudGVyLmRlL2d1aWRlbGluZXMwDQYJKoZIhvcNAQEEBQADgYEALqyPthmgpIxe
AbsJadYuBft2K2k118hvBqgb8tVfC8xL88FT9JW/nI5ss197C8bmnKfQLAM+1Tnh
nG7rQfjJZEO4PaJK4R5PhZLXG0duPxfar+wWPo4aiS1BidZpL0OqXS7y6NBU7g0W
xdpw2BJ0RK4WS3TtjAurNQpIaOxpAyk=
-----END CERTIFICATE-----
