Certificate:
    Data:
        Version: 3 (0x2)
        Serial Number:
            65:3d:d7:cc:70:2a:50:30:9e:2f:70:c2:5f:1b:d3:79
    Signature Algorithm: dsa_with_SHA256
        Issuer: C=US, O=Symantec Corporation, OU=Symantec Trust Network, CN=Symantec Class 1 Public Primary Certification Authority - G7
        Validity
            Not Before: Oct 15 00:00:00 2012 GMT
            Not After : Dec  1 23:59:59 2037 GMT
        Subject: C=US, O=Symantec Corporation, OU=Symantec Trust Network, CN=Symantec Class 1 Public Primary Certification Authority - G7
        Subject Public Key Info:
            Public Key Algorithm: dsaEncryption
                pub: 
                    27:82:68:01:1d:6e:4d:73:4a:d7:7d:f0:d4:a8:8f:
                    c0:6a:c6:5b:41:0c:e4:47:0b:00:9d:57:98:73:8c:
                    7c:85:2f:5f:b2:59:6c:b0:4e:c7:ec:76:3a:7b:4b:
                    e9:c8:e3:d8:b0:dd:10:69:75:3a:d6:4b:32:e1:a2:
                    4f:b9:45:51:e6:a7:a2:a2:94:b4:e8:f1:d7:cc:c9:
                    b8:54:25:0d:de:fa:ad:13:95:72:96:e4:2d:5d:74:
                    f4:5a:6f:a5:ae:f8:d3:9c:03:04:d0:57:43:77:3e:
                    6f:34:f5:8d:0a:f8:29:39:ce:cd:0f:1d:e8:2c:0d:
                    6d:6a:4a:95:f3:51:2d:64:63:ea:ee:c0:c1:50:c2:
                    b9:d6:63:31:6a:1f:71:a9:4d:5d:7c:dd:f7:77:66:
                    c3:d5:db:c8:1b:ed:c0:71:04:9f:9a:4d:ba:c1:e5:
                    79:bb:68:b9:50:23:5c:5c:f6:d9:9d:66:c8:11:92:
                    0e:e7:37:09:ca:fd:e0:f3:3c:58:04:37:89:a9:02:
                    82:42:65:9a:3b:3c:73:73:5c:12:24:72:2f:5d:1b:
                    90:52:d4:69:e3:49:02:2c:7c:3e:98:08:0a:1e:6d:
                    fa:7a:43:20:01:74:16:27:c6:ba:73:00:27:74:84:
                    0a:66:ec:c0:34:3f:57:87:28:1f:34:e9:08:7c:70:
                    8c
                P:   
                    00:d2:c1:32:09:e3:00:8b:e0:10:10:12:36:21:be:
                    cf:98:1e:80:f2:c4:f5:d6:8c:1d:dc:5a:2e:36:84:
                    82:06:3a:07:58:2e:ce:8a:1d:3c:ed:00:c2:6b:8a:
                    63:41:42:1d:8c:35:ac:6d:6e:64:2b:89:0a:69:55:
                    0f:f0:c2:1c:f3:41:8d:7b:cd:9e:a5:4c:60:3c:d2:
                    97:49:ce:b8:f7:37:62:35:6d:be:34:f3:83:98:be:
                    71:41:63:2c:59:54:f9:9f:d4:3b:fe:ea:d2:e4:62:
                    dd:f8:c2:e1:34:d1:3b:80:8e:d5:73:71:a2:04:8b:
                    d7:88:15:c3:4f:a8:8f:49:39:10:8c:13:38:7c:a3:
                    e1:83:64:4a:33:f6:51:fd:03:d6:56:57:45:25:9f:
                    de:d8:64:2d:6f:cc:d3:84:e2:f0:4d:c9:84:ac:fb:
                    40:07:51:db:23:3c:38:7a:c9:a3:16:09:95:51:e5:
                    6a:13:4a:95:21:0d:ed:f6:c7:9f:82:1c:64:3a:49:
                    08:a6:62:96:3b:1f:4f:fa:70:a2:37:f5:8e:41:9a:
                    91:83:a0:80:02:eb:96:dd:94:48:37:df:b2:cc:39:
                    1d:19:00:8d:f5:80:e3:7e:49:a8:2c:a6:2e:46:87:
                    a5:99:5e:c6:a9:12:54:b9:2e:6b:28:c4:e3:87:56:
                    de:79
                Q:   
                    00:f8:e2:23:46:eb:bf:a2:9d:34:0c:da:65:6a:d3:
                    ab:fd:49:f2:ad:ed:d2:ed:2f:f6:b4:a2:b1:f3:95:
                    85:0e:d7
                G:   
                    00:ca:69:7d:16:dd:92:09:1d:0c:ee:05:ce:90:e0:
                    a9:90:48:8e:2f:9f:6b:db:fb:33:36:de:16:84:67:
                    f7:ed:48:09:b1:04:d7:69:5e:de:0b:2e:dd:bc:f2:
                    98:a4:ca:19:0d:30:30:ae:0b:e8:35:fb:25:22:d5:
                    d3:39:83:9d:3d:dc:fe:f3:df:a2:8f:7f:f8:08:4d:
                    38:dd:64:55:e3:d8:df:1d:f1:69:26:4d:f7:6b:4c:
                    09:20:c3:96:b2:54:51:9f:ee:7b:c5:74:c8:ed:34:
                    03:39:8f:da:30:c1:2f:af:a1:ea:63:03:b8:f9:d5:
                    ea:9a:c3:65:88:86:55:8c:6f:1b:45:1e:c2:f1:46:
                    e2:e6:2c:b2:9c:a8:0d:52:3d:7f:c5:18:fa:fe:52:
                    b3:fa:19:46:fc:0d:62:0c:a3:3e:da:67:bf:23:ad:
                    02:c8:24:39:5a:a3:09:18:e6:4d:93:36:13:54:b7:
                    d5:d3:05:63:0c:11:c9:c2:2c:4b:81:59:dc:47:6d:
                    46:40:5c:ec:d9:45:73:52:03:a7:2e:7d:c5:5e:2e:
                    4c:b3:b6:a5:a8:e3:11:d9:e6:10:6e:da:b1:7a:04:
                    1c:64:40:8c:24:99:52:cb:22:95:b1:3b:fd:a0:4a:
                    e7:8d:e1:10:69:73:7a:10:7f:79:77:6d:85:42:55:
                    cc:02
        X509v3 extensions:
            X509v3 Key Usage: critical
                Certificate Sign, CRL Sign
            X509v3 Basic Constraints: critical
                CA:TRUE
            X509v3 Subject Key Identifier: 
                40:96:32:CD:55:FC:48:DD:FF:FC:75:90:01:A6:97:27:FC:DD:CC:E2
    Signature Algorithm: dsa_with_SHA256
         r:   
             1a:10:6a:07:5f:f1:4d:cf:a5:15:1b:f8:b1:ff:79:
             91:fc:39:7a:26:6b:c4:96:01:4d:b3:ed:4b:a9:e7:
             90:cb
         s:   
             00:94:ac:d2:b5:62:79:ae:b4:4d:d0:b3:91:3a:b8:
             e9:b6:81:a7:31:9a:bd:c7:3c:5b:36:72:bc:82:89:
             97:22:19
-----BEGIN CERTIFICATE-----
MIIFXDCCBQGgAwIBAgIQZT3XzHAqUDCeL3DCXxvTeTALBglghkgBZQMEAwIwgZQx
CzAJBgNVBAYTAlVTMR0wGwYDVQQKExRTeW1hbnRlYyBDb3Jwb3JhdGlvbjEfMB0G
A1UECxMWU3ltYW50ZWMgVHJ1c3QgTmV0d29yazFFMEMGA1UEAxM8U3ltYW50ZWMg
Q2xhc3MgMSBQdWJsaWMgUHJpbWFyeSBDZXJ0aWZpY2F0aW9uIEF1dGhvcml0eSAt
IEc3MB4XDTEyMTAxNTAwMDAwMFoXDTM3MTIwMTIzNTk1OVowgZQxCzAJBgNVBAYT
AlVTMR0wGwYDVQQKExRTeW1hbnRlYyBDb3Jwb3JhdGlvbjEfMB0GA1UECxMWU3lt
YW50ZWMgVHJ1c3QgTmV0d29yazFFMEMGA1UEAxM8U3ltYW50ZWMgQ2xhc3MgMSBQ
dWJsaWMgUHJpbWFyeSBDZXJ0aWZpY2F0aW9uIEF1dGhvcml0eSAtIEc3MIIDRzCC
AjoGByqGSM44BAEwggItAoIBAQDSwTIJ4wCL4BAQEjYhvs+YHoDyxPXWjB3cWi42
hIIGOgdYLs6KHTztAMJrimNBQh2MNaxtbmQriQppVQ/wwhzzQY17zZ6lTGA80pdJ
zrj3N2I1bb4084OYvnFBYyxZVPmf1Dv+6tLkYt34wuE00TuAjtVzcaIEi9eIFcNP
qI9JORCMEzh8o+GDZEoz9lH9A9ZWV0Uln97YZC1vzNOE4vBNyYSs+0AHUdsjPDh6
yaMWCZVR5WoTSpUhDe32x5+CHGQ6SQimYpY7H0/6cKI39Y5BmpGDoIAC65bdlEg3
37LMOR0ZAI31gON+Sagspi5Gh6WZXsapElS5LmsoxOOHVt55AiEA+OIjRuu/op00
DNplatOr/Unyre3S7S/2tKKx85WFDtcCggEBAMppfRbdkgkdDO4FzpDgqZBIji+f
a9v7MzbeFoRn9+1ICbEE12le3gsu3bzymKTKGQ0wMK4L6DX7JSLV0zmDnT3c/vPf
oo9/+AhNON1kVePY3x3xaSZN92tMCSDDlrJUUZ/ue8V0yO00AzmP2jDBL6+h6mMD
uPnV6prDZYiGVYxvG0UewvFG4uYsspyoDVI9f8UY+v5Ss/oZRvwNYgyjPtpnvyOt
AsgkOVqjCRjmTZM2E1S31dMFYwwRycIsS4FZ3EdtRkBc7NlFc1IDpy59xV4uTLO2
pajjEdnmEG7asXoEHGRAjCSZUssilbE7/aBK543hEGlzehB/eXdthUJVzAIDggEF
AAKCAQAngmgBHW5Nc0rXffDUqI/AasZbQQzkRwsAnVeYc4x8hS9fsllssE7H7HY6
e0vpyOPYsN0QaXU61ksy4aJPuUVR5qeiopS06PHXzMm4VCUN3vqtE5VyluQtXXT0
Wm+lrvjTnAME0FdDdz5vNPWNCvgpOc7NDx3oLA1takqV81EtZGPq7sDBUMK51mMx
ah9xqU1dfN33d2bD1dvIG+3AcQSfmk26weV5u2i5UCNcXPbZnWbIEZIO5zcJyv3g
8zxYBDeJqQKCQmWaOzxzc1wSJHIvXRuQUtRp40kCLHw+mAgKHm36ekMgAXQWJ8a6
cwAndIQKZuzAND9XhygfNOkIfHCMo0IwQDAOBgNVHQ8BAf8EBAMCAQYwDwYDVR0T
AQH/BAUwAwEB/zAdBgNVHQ4EFgQUQJYyzVX8SN3//HWQAaaXJ/zdzOIwCwYJYIZI
AWUDBAMCA0gAMEUCIBoQagdf8U3PpRUb+LH/eZH8OXoma8SWAU2z7Uup55DLAiEA
lKzStWJ5rrRN0LOROrjptoGnMZq9xzxbNnK8gomXIhk=
-----END CERTIFICATE-----
