Certificate:
    Data:
        Version: 3 (0x2)
        Serial Number:
            44:be:0c:8b:50:00:24:b4:11:d3:36:30:4b:c0:33:77
    Signature Algorithm: sha1WithRSAEncryption
        Issuer: C=US, ST=UT, L=Salt Lake City, O=The USERTRUST Network, OU=http://www.usertrust.com, CN=UTN-USERFirst-Network Applications
        Validity
            Not Before: Jul  9 18:48:39 1999 GMT
            Not After : Jul  9 18:57:49 2019 GMT
        Subject: C=US, ST=UT, L=Salt Lake City, O=The USERTRUST Network, OU=http://www.usertrust.com, CN=UTN-USERFirst-Network Applications
        Subject Public Key Info:
            Public Key Algorithm: rsaEncryption
                Public-Key: (2048 bit)
                Modulus:
                    00:b3:fb:91:a1:e4:36:55:85:ac:06:34:5b:a0:9a:
                    58:b2:f8:b5:0f:05:77:83:ae:32:b1:76:92:68:ec:
                    23:4a:c9:76:3f:e3:9c:b6:37:79:03:b9:ab:69:8d:
                    07:25:b6:19:67:e4:b0:1b:18:73:61:4a:e8:7e:cd:
                    d3:2f:64:e3:a6:7c:0c:fa:17:80:a3:0d:47:89:4f:
                    51:71:2f:ee:fc:3f:f9:b8:16:80:87:89:93:25:20:
                    9a:43:82:69:24:76:28:59:35:a1:1d:c0:7f:83:06:
                    64:16:20:2c:d3:49:a4:85:b4:c0:61:7f:51:08:f8:
                    68:15:91:80:cb:a5:d5:ee:3b:3a:f4:84:04:5e:60:
                    59:a7:8c:34:72:ee:b8:78:c5:d1:3b:12:4a:6f:7e:
                    65:27:b9:a4:55:c5:b9:6f:43:a4:c5:1d:2c:99:c0:
                    52:a4:78:4c:15:b3:40:98:08:6b:43:c6:01:b0:7a:
                    7b:f5:6b:1c:22:3f:cb:ef:ff:a8:d0:3a:4b:76:15:
                    9e:d2:d1:c6:2e:e3:db:57:1b:32:a2:b8:6f:e8:86:
                    a6:3f:70:ab:e5:70:92:ab:44:1e:40:50:fb:9c:a3:
                    62:e4:6c:6e:a0:c8:de:e2:80:42:fa:e9:2f:e8:ce:
                    32:04:8f:7c:8d:b7:1c:a3:35:3c:15:dd:9e:c3:ae:
                    97:a5
                Exponent: 65537 (0x10001)
        X509v3 extensions:
            X509v3 Key Usage: 
                Digital Signature, Non Repudiation, Certificate Sign, CRL Sign
            X509v3 Basic Constraints: critical
                CA:TRUE
            X509v3 Subject Key Identifier: 
                FA:86:C9:DB:E0:BA:E9:78:F5:4B:A8:D6:15:DF:F0:D3:E1:6A:14:3C
            X509v3 CRL Distribution Points: 

                Full Name:
                  URI:http://crl.usertrust.com/UTN-USERFirst-NetworkApplications.crl

    Signature Algorithm: sha1WithRSAEncryption
         a4:f3:25:cc:d1:d4:91:83:22:d0:cc:32:ab:9b:96:4e:34:91:
         54:20:25:34:61:5f:2a:02:15:e1:8b:aa:ff:7d:64:51:cf:0a:
         ff:bc:7d:d8:21:6a:78:cb:2f:51:6f:f8:42:1d:33:bd:eb:b5:
         7b:94:c3:c3:a9:a0:2d:df:d1:29:1f:1d:fe:8f:3f:bb:a8:45:
         2a:7f:d1:6e:55:24:e2:bb:02:fb:31:3f:be:e8:bc:ec:40:2b:
         f8:01:d4:56:38:e4:ca:44:82:b5:61:20:21:67:65:f6:f0:0b:
         e7:34:f8:a5:c2:9c:a3:5c:40:1f:85:93:95:06:de:4f:d4:27:
         a9:b6:a5:fc:16:cd:73:31:3f:b8:65:27:cf:d4:53:1a:f0:ac:
         6e:9f:4f:05:0c:03:81:a7:84:29:c4:5a:bd:64:57:72:ad:3b:
         cf:37:18:a6:98:c6:ad:06:b4:dc:08:a3:04:d5:29:a4:96:9a:
         12:67:4a:8c:60:45:9d:f1:23:9a:b0:00:9c:68:b5:98:50:d3:
         ef:8e:2e:92:65:b1:48:3e:21:be:15:30:2a:0d:b5:0c:a3:6b:
         3f:ae:7f:57:f5:1f:96:7c:df:6f:dd:82:30:2c:65:1b:40:4a:
         cd:68:b9:72:ec:71:76:ec:54:8e:1f:85:0c:01:6a:fa:a6:38:
         ac:1f:c4:84
-----BEGIN CERTIFICATE-----
MIIEZDCCA0ygAwIBAgIQRL4Mi1AAJLQR0zYwS8AzdzANBgkqhkiG9w0BAQUFADCB
ozELMAkGA1UEBhMCVVMxCzAJBgNVBAgTAlVUMRcwFQYDVQQHEw5TYWx0IExha2Ug
Q2l0eTEeMBwGA1UEChMVVGhlIFVTRVJUUlVTVCBOZXR3b3JrMSEwHwYDVQQLExho
dHRwOi8vd3d3LnVzZXJ0cnVzdC5jb20xKzApBgNVBAMTIlVUTi1VU0VSRmlyc3Qt
TmV0d29yayBBcHBsaWNhdGlvbnMwHhcNOTkwNzA5MTg0ODM5WhcNMTkwNzA5MTg1
NzQ5WjCBozELMAkGA1UEBhMCVVMxCzAJBgNVBAgTAlVUMRcwFQYDVQQHEw5TYWx0
IExha2UgQ2l0eTEeMBwGA1UEChMVVGhlIFVTRVJUUlVTVCBOZXR3b3JrMSEwHwYD
VQQLExhodHRwOi8vd3d3LnVzZXJ0cnVzdC5jb20xKzApBgNVBAMTIlVUTi1VU0VS
Rmlyc3QtTmV0d29yayBBcHBsaWNhdGlvbnMwggEiMA0GCSqGSIb3DQEBAQUAA4IB
DwAwggEKAoIBAQCz+5Gh5DZVhawGNFugmliy+LUPBXeDrjKxdpJo7CNKyXY/45y2
N3kDuatpjQclthln5LAbGHNhSuh+zdMvZOOmfAz6F4CjDUeJT1FxL+78P/m4FoCH
iZMlIJpDgmkkdihZNaEdwH+DBmQWICzTSaSFtMBhf1EI+GgVkYDLpdXuOzr0hARe
YFmnjDRy7rh4xdE7EkpvfmUnuaRVxblvQ6TFHSyZwFKkeEwVs0CYCGtDxgGwenv1
axwiP8vv/6jQOkt2FZ7S0cYu49tXGzKiuG/ohqY/cKvlcJKrRB5AUPuco2LkbG6g
yN7igEL66S/ozjIEj3yNtxyjNTwV3Z7DrpelAgMBAAGjgZEwgY4wCwYDVR0PBAQD
AgHGMA8GA1UdEwEB/wQFMAMBAf8wHQYDVR0OBBYEFPqGydvguul49Uuo1hXf8NPh
ahQ8ME8GA1UdHwRIMEYwRKBCoECGPmh0dHA6Ly9jcmwudXNlcnRydXN0LmNvbS9V
VE4tVVNFUkZpcnN0LU5ldHdvcmtBcHBsaWNhdGlvbnMuY3JsMA0GCSqGSIb3DQEB
BQUAA4IBAQCk8yXM0dSRgyLQzDKrm5ZONJFUICU0YV8qAhXhi6r/fWRRzwr/vH3Y
IWp4yy9Rb/hCHTO967V7lMPDqaAt39EpHx3+jz+7qEUqf9FuVSTiuwL7MT++6Lzs
QCv4AdRWOOTKRIK1YSAhZ2X28AvnNPilwpyjXEAfhZOVBt5P1CeptqX8Fs1zMT+4
ZSfP1FMa8Kxun08FDAOBp4QpxFq9ZFdyrTvPNximmMatBrTcCKME1SmklpoSZ0qM
YEWd8SOasACcaLWYUNPvji6SZbFIPiG+FTAqDbUMo2s/rn9X9R+WfN9v3YIwLGUb
QErNaLly7HF27FSOH4UMAWr6pjisH8SE
-----END CERTIFICATE-----
