Certificate:
    Data:
        Version: 3 (0x2)
        Serial Number:
            08:52:68:30:2e:be:7a:29:38:63:73:22:df:e5:52:0c
    Signature Algorithm: dsa_with_SHA256
        Issuer: C=US, O=Symantec Corporation, OU=Symantec Trust Network, CN=Symantec Class 3 Public Primary Certification Authority - G7
        Validity
            Not Before: Oct 15 00:00:00 2012 GMT
            Not After : Dec  1 23:59:59 2037 GMT
        Subject: C=US, O=Symantec Corporation, OU=Symantec Trust Network, CN=Symantec Class 3 Public Primary Certification Authority - G7
        Subject Public Key Info:
            Public Key Algorithm: dsaEncryption
                pub: 
                    6c:6a:9e:85:a8:c5:2a:df:5a:d3:62:63:82:ba:fb:
                    9c:d5:23:97:64:1e:eb:eb:bb:9d:79:c1:50:00:eb:
                    72:77:84:0c:a2:54:5f:8b:17:18:a2:e6:bf:5a:dd:
                    67:1f:23:44:aa:05:ce:de:18:34:52:25:32:ed:f5:
                    8c:b1:52:25:74:86:44:7f:65:c6:c5:1f:ba:6d:7f:
                    23:eb:e1:87:5d:10:c4:4d:54:b0:d7:ac:bb:e7:a0:
                    e8:9f:a1:9a:73:11:96:01:26:9f:55:78:d0:fb:73:
                    1b:35:22:14:41:04:78:50:d8:0f:51:54:66:f6:a3:
                    4c:fa:fc:fb:5f:04:5a:e2:42:f8:39:e8:3a:4c:e6:
                    47:76:89:87:ca:a9:6d:3a:1d:0a:16:5c:43:3e:b6:
                    cc:6f:4b:37:95:62:1c:1e:f9:2a:36:14:3d:25:da:
                    66:95:fe:33:d2:ae:08:b3:c4:36:ad:4c:97:9b:8a:
                    66:c0:be:80:26:1f:e9:6d:6f:ab:b8:04:0e:76:5d:
                    c4:34:6a:4a:6c:01:fb:44:a4:04:2e:3d:d2:5f:c0:
                    5d:82:37:89:f4:7f:21:12:41:43:96:f6:a5:13:58:
                    c0:d4:1b:ae:dd:a3:b1:c6:d1:40:2f:ac:0e:d8:3e:
                    a8:b6:bc:e4:4f:33:38:73:7e:1e:61:a6:f5:37:c7:
                    5d
                P:   
                    00:f4:58:58:35:9f:40:92:09:9e:2b:f8:89:ca:65:
                    db:34:53:c2:b3:c0:4f:b9:06:b0:ad:85:e0:41:70:
                    43:fa:ff:ce:0c:a7:e4:f6:27:25:38:d0:43:07:7a:
                    8b:17:d8:74:f2:ac:15:72:6b:1b:0e:d5:b5:b9:80:
                    94:13:7d:16:8c:57:72:28:ba:87:5c:61:ba:38:3c:
                    41:9e:8d:32:5b:68:01:30:2e:9a:58:7d:11:75:c7:
                    5f:ac:43:de:af:da:2d:0e:6c:0e:b3:07:f3:38:ed:
                    50:18:f7:b5:01:0c:9b:cd:5d:37:79:48:8b:c2:b6:
                    3c:02:78:48:d2:f3:36:59:47:2a:f9:92:9f:10:80:
                    82:4f:f7:f2:6e:b7:86:f4:95:a5:43:e7:49:d8:55:
                    1d:be:5c:50:40:ed:90:5d:85:c7:6f:c4:b3:c9:2b:
                    67:45:90:4a:b7:f2:78:8a:aa:c8:d4:0d:c8:74:a6:
                    cf:4c:b6:64:bb:40:02:28:01:4b:89:9d:17:d4:14:
                    c0:51:7a:96:1e:0f:71:34:4e:01:4d:6f:71:7c:bb:
                    8f:ca:b7:21:40:82:9e:2d:c2:1c:be:78:4f:5f:14:
                    fa:10:b4:e0:90:e8:87:00:b5:ce:e3:72:ad:c2:9d:
                    3a:9d:ac:af:38:38:bb:55:c1:cd:57:4e:a8:98:f1:
                    87:c3
                Q:   
                    00:b5:ab:f2:ec:7a:5c:f7:a4:41:8c:b2:7e:61:7c:
                    2e:a3:e7:5e:06:e8:47:d8:2b:77:c0:c7:25:f3:67:
                    6b:e9:51
                G:   
                    1d:4a:7f:c1:c8:fd:24:b9:52:eb:a0:e5:e9:09:20:
                    9e:1f:de:4b:c8:eb:a8:24:6a:13:bd:01:3d:b4:04:
                    ac:b7:3d:b6:dd:d7:ca:9e:04:bb:a4:9c:8f:6f:81:
                    b8:a4:02:ee:59:d0:05:ae:45:80:c3:ec:c8:05:71:
                    19:e2:db:e0:dc:91:eb:8e:8b:e2:b9:a2:68:09:f4:
                    30:9e:7f:76:c8:e9:9d:ea:d4:c5:9d:60:65:1d:25:
                    53:57:4e:82:81:1c:ff:00:c7:ce:bd:c0:5a:40:05:
                    96:92:84:81:95:63:61:98:f0:21:6b:53:98:64:bb:
                    ac:db:51:31:4a:99:21:30:c0:c5:54:f1:9a:1d:97:
                    a3:6f:c0:c2:1d:3e:9d:f1:c1:27:bb:8d:3f:77:9e:
                    33:2b:d8:04:62:7b:81:12:71:6b:2e:49:7b:80:77:
                    ab:c7:d7:b6:3e:64:28:51:72:51:bd:3f:b7:af:b9:
                    98:06:43:15:fe:54:fd:30:41:f1:d5:bc:97:23:47:
                    a7:64:62:fb:58:f2:53:cb:2e:4a:bd:5c:33:a9:82:
                    99:15:da:e5:1d:59:98:38:cf:97:64:15:9e:80:a5:
                    c3:e2:a9:81:20:72:9f:1b:2d:c4:35:af:d5:8d:d8:
                    40:95:c1:ab:77:cc:bb:26:b4:9d:ce:3e:c3:30:1d:
                    bf
        X509v3 extensions:
            X509v3 Key Usage: critical
                Certificate Sign, CRL Sign
            X509v3 Basic Constraints: critical
                CA:TRUE
            X509v3 Subject Key Identifier: 
                47:E0:5E:81:27:08:4E:26:57:02:E7:1C:FD:33:57:53:2B:1B:8F:BF
    Signature Algorithm: dsa_with_SHA256
         r:   
             56:97:a8:2b:01:70:1d:50:e1:1b:02:ae:63:f2:4c:
             38:ec:c3:36:2b:ac:7e:3c:f0:53:01:18:ff:fb:66:
             38:bc
         s:   
             25:69:52:1a:b9:9e:18:d6:e6:93:d7:8a:4c:ba:b4:
             33:50:da:41:82:d0:a7:51:40:82:f6:da:24:10:22:
             f0:eb
-----BEGIN CERTIFICATE-----
MIIFWjCCBQCgAwIBAgIQCFJoMC6+eik4Y3Mi3+VSDDALBglghkgBZQMEAwIwgZQx
CzAJBgNVBAYTAlVTMR0wGwYDVQQKExRTeW1hbnRlYyBDb3Jwb3JhdGlvbjEfMB0G
A1UECxMWU3ltYW50ZWMgVHJ1c3QgTmV0d29yazFFMEMGA1UEAxM8U3ltYW50ZWMg
Q2xhc3MgMyBQdWJsaWMgUHJpbWFyeSBDZXJ0aWZpY2F0aW9uIEF1dGhvcml0eSAt
IEc3MB4XDTEyMTAxNTAwMDAwMFoXDTM3MTIwMTIzNTk1OVowgZQxCzAJBgNVBAYT
AlVTMR0wGwYDVQQKExRTeW1hbnRlYyBDb3Jwb3JhdGlvbjEfMB0GA1UECxMWU3lt
YW50ZWMgVHJ1c3QgTmV0d29yazFFMEMGA1UEAxM8U3ltYW50ZWMgQ2xhc3MgMyBQ
dWJsaWMgUHJpbWFyeSBDZXJ0aWZpY2F0aW9uIEF1dGhvcml0eSAtIEc3MIIDRjCC
AjkGByqGSM44BAEwggIsAoIBAQD0WFg1n0CSCZ4r+InKZds0U8KzwE+5BrCtheBB
cEP6/84Mp+T2JyU40EMHeosX2HTyrBVyaxsO1bW5gJQTfRaMV3IouodcYbo4PEGe
jTJbaAEwLppYfRF1x1+sQ96v2i0ObA6zB/M47VAY97UBDJvNXTd5SIvCtjwCeEjS
8zZZRyr5kp8QgIJP9/Jut4b0laVD50nYVR2+XFBA7ZBdhcdvxLPJK2dFkEq38niK
qsjUDch0ps9MtmS7QAIoAUuJnRfUFMBRepYeD3E0TgFNb3F8u4/KtyFAgp4twhy+
eE9fFPoQtOCQ6IcAtc7jcq3CnTqdrK84OLtVwc1XTqiY8YfDAiEAtavy7Hpc96RB
jLJ+YXwuo+deBuhH2Ct3wMcl82dr6VECggEAHUp/wcj9JLlS66Dl6Qkgnh/eS8jr
qCRqE70BPbQErLc9tt3Xyp4Eu6Scj2+BuKQC7lnQBa5FgMPsyAVxGeLb4NyR646L
4rmiaAn0MJ5/dsjpnerUxZ1gZR0lU1dOgoEc/wDHzr3AWkAFlpKEgZVjYZjwIWtT
mGS7rNtRMUqZITDAxVTxmh2Xo2/Awh0+nfHBJ7uNP3eeMyvYBGJ7gRJxay5Je4B3
q8fXtj5kKFFyUb0/t6+5mAZDFf5U/TBB8dW8lyNHp2Ri+1jyU8suSr1cM6mCmRXa
5R1ZmDjPl2QVnoClw+KpgSBynxstxDWv1Y3YQJXBq3fMuya0nc4+wzAdvwOCAQUA
AoIBAGxqnoWoxSrfWtNiY4K6+5zVI5dkHuvru515wVAA63J3hAyiVF+LFxii5r9a
3WcfI0SqBc7eGDRSJTLt9YyxUiV0hkR/ZcbFH7ptfyPr4YddEMRNVLDXrLvnoOif
oZpzEZYBJp9VeND7cxs1IhRBBHhQ2A9RVGb2o0z6/PtfBFriQvg56DpM5kd2iYfK
qW06HQoWXEM+tsxvSzeVYhwe+So2FD0l2maV/jPSrgizxDatTJebimbAvoAmH+lt
b6u4BA52XcQ0akpsAftEpAQuPdJfwF2CN4n0fyESQUOW9qUTWMDUG67do7HG0UAv
rA7YPqi2vORPMzhzfh5hpvU3x12jQjBAMA4GA1UdDwEB/wQEAwIBBjAPBgNVHRMB
Af8EBTADAQH/MB0GA1UdDgQWBBRH4F6BJwhOJlcC5xz9M1dTKxuPvzALBglghkgB
ZQMEAwIDRwAwRAIgVpeoKwFwHVDhGwKuY/JMOOzDNiusfjzwUwEY//tmOLwCICVp
Uhq5nhjW5pPXiky6tDNQ2kGC0KdRQIL22iQQIvDr
-----END CERTIFICATE-----
