Certificate:
    Data:
        Version: 3 (0x2)
        Serial Number: 1 (0x1)
    Signature Algorithm: sha1WithRSAEncryption
        Issuer: C=US, O=GeoTrust Inc., CN=GeoTrust Global CA 2
        Validity
            Not Before: Mar  4 05:00:00 2004 GMT
            Not After : Mar  4 05:00:00 2019 GMT
        Subject: C=US, O=GeoTrust Inc., CN=GeoTrust Global CA 2
        Subject Public Key Info:
            Public Key Algorithm: rsaEncryption
                Public-Key: (2048 bit)
                Modulus:
                    00:ef:3c:4d:40:3d:10:df:3b:53:00:e1:67:fe:94:
                    60:15:3e:85:88:f1:89:0d:90:c8:28:23:99:05:e8:
                    2b:20:9d:c6:f3:60:46:d8:c1:b2:d5:8c:31:d9:dc:
                    20:79:24:81:bf:35:32:fc:63:69:db:b1:2a:6b:ee:
                    21:58:f2:08:e9:78:cb:6f:cb:fc:16:52:c8:91:c4:
                    ff:3d:73:de:b1:3e:a7:c2:7d:66:c1:f5:7e:52:24:
                    1a:e2:d5:67:91:d0:82:10:d7:78:4b:4f:2b:42:39:
                    bd:64:2d:40:a0:b0:10:d3:38:48:46:88:a1:0c:bb:
                    3a:33:2a:62:98:fb:00:9d:13:59:7f:6f:3b:72:aa:
                    ee:a6:0f:86:f9:05:61:ea:67:7f:0c:37:96:8b:e6:
                    69:16:47:11:c2:27:59:03:b3:a6:60:c2:21:40:56:
                    fa:a0:c7:7d:3a:13:e3:ec:57:c7:b3:d6:ae:9d:89:
                    80:f7:01:e7:2c:f6:96:2b:13:0d:79:2c:d9:c0:e4:
                    86:7b:4b:8c:0c:72:82:8a:fb:17:cd:00:6c:3a:13:
                    3c:b0:84:87:4b:16:7a:29:b2:4f:db:1d:d4:0b:f3:
                    66:37:bd:d8:f6:57:bb:5e:24:7a:b8:3c:8b:b9:fa:
                    92:1a:1a:84:9e:d8:74:8f:aa:1b:7f:5e:f4:fe:45:
                    22:21
                Exponent: 65537 (0x10001)
        X509v3 extensions:
            X509v3 Basic Constraints: critical
                CA:TRUE
            X509v3 Subject Key Identifier: 
                71:38:36:F2:02:31:53:47:2B:6E:BA:65:46:A9:10:15:58:20:05:09
            X509v3 Authority Key Identifier: 
                keyid:71:38:36:F2:02:31:53:47:2B:6E:BA:65:46:A9:10:15:58:20:05:09

            X509v3 Key Usage: critical
                Digital Signature, Certificate Sign, CRL Sign
    Signature Algorithm: sha1WithRSAEncryption
         03:f7:b5:2b:ab:5d:10:fc:7b:b2:b2:5e:ac:9b:0e:7e:53:78:
         59:3e:42:04:fe:75:a3:ad:ac:81:4e:d7:02:8b:5e:c4:2d:c8:
         52:76:c7:2c:1f:fc:81:32:98:d1:4b:c6:92:93:33:35:31:2f:
         fc:d8:1d:44:dd:e0:81:7f:9d:e9:8b:e1:64:91:62:0b:39:08:
         8c:ac:74:9d:59:d9:7a:59:52:97:11:b9:16:7b:6f:45:d3:96:
         d9:31:7d:02:36:0f:9c:3b:6e:cf:2c:0d:03:46:45:eb:a0:f4:
         7f:48:44:c6:08:40:cc:de:1b:70:b5:29:ad:ba:8b:3b:34:65:
         75:1b:71:21:1d:2c:14:0a:b0:96:95:b8:d6:ea:f2:65:fb:29:
         ba:4f:ea:91:93:74:69:b6:f2:ff:e1:1a:d0:0c:d1:76:85:cb:
         8a:25:bd:97:5e:2c:6f:15:99:26:e7:b6:29:ff:22:ec:c9:02:
         c7:56:00:cd:49:b9:b3:6c:7b:53:04:1a:e2:a8:c9:aa:12:05:
         23:c2:ce:e7:bb:04:02:cc:c0:47:a2:e4:c4:29:2f:5b:45:57:
         89:51:ee:3c:eb:52:08:ff:07:35:1e:9f:35:6a:47:4a:56:98:
         d1:5a:85:1f:8c:f5:22:bf:ab:ce:83:f3:e2:22:29:ae:7d:83:
         40:a8:ba:6c
-----BEGIN CERTIFICATE-----
MIIDZjCCAk6gAwIBAgIBATANBgkqhkiG9w0BAQUFADBEMQswCQYDVQQGEwJVUzEW
MBQGA1UEChMNR2VvVHJ1c3QgSW5jLjEdMBsGA1UEAxMUR2VvVHJ1c3QgR2xvYmFs
IENBIDIwHhcNMDQwMzA0MDUwMDAwWhcNMTkwMzA0MDUwMDAwWjBEMQswCQYDVQQG
EwJVUzEWMBQGA1UEChMNR2VvVHJ1c3QgSW5jLjEdMBsGA1UEAxMUR2VvVHJ1c3Qg
R2xvYmFsIENBIDIwggEiMA0GCSqGSIb3DQEBAQUAA4IBDwAwggEKAoIBAQDvPE1A
PRDfO1MA4Wf+lGAVPoWI8YkNkMgoI5kF6CsgncbzYEbYwbLVjDHZ3CB5JIG/NTL8
Y2nbsSpr7iFY8gjpeMtvy/wWUsiRxP89c96xPqfCfWbB9X5SJBri1WeR0IIQ13hL
TytCOb1kLUCgsBDTOEhGiKEMuzozKmKY+wCdE1l/bztyqu6mD4b5BWHqZ38MN5aL
5mkWRxHCJ1kDs6ZgwiFAVvqgx306E+PsV8ez1q6diYD3Aecs9pYrEw15LNnA5IZ7
S4wMcoKK+xfNAGw6EzywhIdLFnopsk/bHdQL82Y3vdj2V7teJHq4PIu5+pIaGoSe
2HSPqht/XvT+RSIhAgMBAAGjYzBhMA8GA1UdEwEB/wQFMAMBAf8wHQYDVR0OBBYE
FHE4NvICMVNHK266ZUapEBVYIAUJMB8GA1UdIwQYMBaAFHE4NvICMVNHK266ZUap
EBVYIAUJMA4GA1UdDwEB/wQEAwIBhjANBgkqhkiG9w0BAQUFAAOCAQEAA/e1K6td
EPx7srJerJsOflN4WT5CBP51o62sgU7XAotexC3IUnbHLB/8gTKY0UvGkpMzNTEv
/NgdRN3ggX+d6YvhZJFiCzkIjKx0nVnZellSlxG5FntvRdOW2TF9AjYPnDtuzywN
A0ZF66D0f0hExghAzN4bcLUprbqLOzRldRtxIR0sFAqwlpW41uryZfspuk/qkZN0
abby/+Ea0AzRdoXLiiW9l14sbxWZJue2Kf8i7MkCx1YAzUm5s2x7UwQa4qjJqhIF
I8LO57sEAszAR6LkxCkvW0VXiVHuPOtSCP8HNR6fNWpHSlaY0VqFH4z1Ir+rzoPz
4iIprn2DQKi6bA==
-----END CERTIFICATE-----
