Certificate:
    Data:
        Version: 3 (0x2)
        Serial Number:
            67:c8:e1:e8:e3:be:1c:bd:fc:91:3b:8e:a6:23:87:49
    Signature Algorithm: sha1WithRSAEncryption
        Issuer: C=ZA, ST=Western Cape, L=Durbanville, O=Thawte, OU=Thawte Certification, CN=Thawte Timestamping CA
        Validity
            Not Before: Jan  1 00:00:00 1997 GMT
            Not After : Jan  1 23:59:59 2021 GMT
        Subject: C=ZA, ST=Western Cape, L=Durbanville, O=Thawte, OU=Thawte Certification, CN=Thawte Timestamping CA
        Subject Public Key Info:
            Public Key Algorithm: rsaEncryption
                Public-Key: (1024 bit)
                Modulus:
                    00:d6:2b:58:78:61:45:86:53:ea:34:7b:51:9c:ed:
                    b0:e6:2e:18:0e:fe:e0:5f:a8:27:d3:b4:c9:e0:7c:
                    59:4e:16:0e:73:54:60:c1:7f:f6:9f:2e:e9:3a:85:
                    24:15:3c:db:47:04:63:c3:9e:c4:94:1a:5a:df:4c:
                    7a:f3:d9:43:1d:3c:10:7a:79:25:db:90:fe:f0:51:
                    e7:30:d6:41:00:fd:9f:28:df:79:be:94:bb:9d:b6:
                    14:e3:23:85:d7:a9:41:e0:4c:a4:79:b0:2b:1a:8b:
                    f2:f8:3b:8a:3e:45:ac:71:92:00:b4:90:41:98:fb:
                    5f:ed:fa:b7:2e:8a:f8:88:37
                Exponent: 65537 (0x10001)
        X509v3 extensions:
            X509v3 Basic Constraints: critical
                CA:TRUE
    Signature Algorithm: sha1WithRSAEncryption
         4b:e9:aa:17:81:05:fb:79:0a:31:9f:c5:41:f4:56:54:ab:e9:
         c2:e5:97:8e:18:fe:91:c9:0c:3e:26:64:c9:a1:4c:27:64:a7:
         bd:01:93:55:71:6e:17:4f:39:dc:1b:dc:49:35:10:39:23:ff:
         ca:9b:c8:cf:66:3f:dc:4c:1a:d4:81:06:42:52:1f:e1:26:b1:
         16:17:ba:e6:70:72:31:44:e8:4e:8d:5b:e4:d3:f9:d0:e3:8f:
         25:64:31:e7:2a:f8:18:88:36:1a:52:c5:0d:41:35:1b:69:b7:
         26:f5:17:cc:c1:19:5e:4b:7c:5c:e2:83:80:91:fa:2f:fb:9a:
         b7:16
-----BEGIN CERTIFICATE-----
MIICsDCCAhmgAwIBAgIQZ8jh6OO+HL38kTuOpiOHSTANBgkqhkiG9w0BAQUFADCB
izELMAkGA1UEBhMCWkExFTATBgNVBAgTDFdlc3Rlcm4gQ2FwZTEUMBIGA1UEBxML
RHVyYmFudmlsbGUxDzANBgNVBAoTBlRoYXd0ZTEdMBsGA1UECxMUVGhhd3RlIENl
cnRpZmljYXRpb24xHzAdBgNVBAMTFlRoYXd0ZSBUaW1lc3RhbXBpbmcgQ0EwHhcN
OTcwMTAxMDAwMDAwWhcNMjEwMTAxMjM1OTU5WjCBizELMAkGA1UEBhMCWkExFTAT
BgNVBAgTDFdlc3Rlcm4gQ2FwZTEUMBIGA1UEBxMLRHVyYmFudmlsbGUxDzANBgNV
BAoTBlRoYXd0ZTEdMBsGA1UECxMUVGhhd3RlIENlcnRpZmljYXRpb24xHzAdBgNV
BAMTFlRoYXd0ZSBUaW1lc3RhbXBpbmcgQ0EwgZ8wDQYJKoZIhvcNAQEBBQADgY0A
MIGJAoGBANYrWHhhRYZT6jR7UZztsOYuGA7+4F+oJ9O0yeB8WU4WDnNUYMF/9p8u
6TqFJBU820cEY8OexJQaWt9MevPZQx08EHp5JduQ/vBR5zDWQQD9nyjfeb6Uu522
FOMjhdepQeBMpHmwKxqL8vg7ij5FrHGSALSQQZj7X+36ty6K+Ig3AgMBAAGjEzAR
MA8GA1UdEwEB/wQFMAMBAf8wDQYJKoZIhvcNAQEFBQADgYEAS+mqF4EF+3kKMZ/F
QfRWVKvpwuWXjhj+kckMPiZkyaFMJ2SnvQGTVXFuF0853BvcSTUQOSP/ypvIz2Y/
3Ewa1IEGQlIf4SaxFhe65nByMUToTo1b5NP50OOPJWQx5yr4GIg2GlLFDUE1G2m3
JvUXzMEZXkt8XOKDgJH6L/uatxY=
-----END CERTIFICATE-----
