Certificate:
    Data:
        Version: 3 (0x2)
        Serial Number:
            2e:4f:f4:bc:24:1f:d1:96:7f:1f:dd:a4:4f:fb:65:fe
    Signature Algorithm: dsa_with_SHA256
        Issuer: C=US, O=thawte, Inc., OU=Certification Services Division, OU=(c) 2012 thawte, Inc. - For authorized use only, CN=thawte Primary Root CA - G4
        Validity
            Not Before: Oct 15 00:00:00 2012 GMT
            Not After : Dec  1 23:59:59 2037 GMT
        Subject: C=US, O=thawte, Inc., OU=Certification Services Division, OU=(c) 2012 thawte, Inc. - For authorized use only, CN=thawte Primary Root CA - G4
        Subject Public Key Info:
            Public Key Algorithm: dsaEncryption
                pub: 
                    53:0b:ff:7f:e2:f6:56:7a:26:b3:74:0f:ee:8d:6a:
                    d3:fd:9c:a9:a8:71:43:20:05:da:21:ef:e5:f3:23:
                    21:64:99:c0:c6:42:46:96:c2:b5:68:6c:0c:b5:c5:
                    42:ce:bc:6b:45:05:cc:a1:cb:cd:9e:d3:53:bf:94:
                    88:03:6c:a0:e4:79:07:3b:5c:ff:da:66:f7:eb:45:
                    f8:bb:7e:f8:71:59:8d:6d:93:7a:bc:a8:b6:47:02:
                    27:81:5f:db:e1:22:a9:4f:ca:42:c1:45:ce:38:ef:
                    70:1d:96:10:26:2f:da:1d:71:81:c2:49:2b:1c:b9:
                    27:4b:d4:6f:11:76:87:77:e3:46:09:c4:dc:dc:c4:
                    69:00:da:46:97:9a:e2:e0:54:34:68:37:70:f0:e4:
                    f7:21:31:ef:a5:4c:5f:9a:fe:73:ef:3e:94:dd:93:
                    30:9e:2a:3b:64:25:45:8f:46:01:0f:dd:34:a2:21:
                    e1:96:9c:18:2d:b6:c9:89:52:16:bf:37:be:87:1b:
                    08:04:ec:55:08:91:df:ee:fa:f4:16:a3:7e:f0:12:
                    4a:e1:21:ca:1e:00:08:fc:81:ce:cf:7b:cc:e9:f5:
                    c0:7a:f0:e3:fc:5f:45:ec:84:18:87:de:13:ea:61:
                    ae:7a:a6:32:94:1f:62:6f:f7:62:35:ca:9f:3b:b3:
                    6a
                P:   
                    00:b8:a5:46:ee:ab:1c:62:bc:1a:fa:04:54:54:85:
                    14:68:86:d8:a3:78:3c:75:4f:39:23:67:66:77:ad:
                    a3:65:ce:84:e0:ce:c2:9c:b9:a2:98:8d:65:61:e4:
                    3c:42:11:89:bc:d1:a1:bc:86:50:a0:ae:b6:2a:d8:
                    8a:02:64:7b:09:9f:05:78:33:ee:8e:f3:31:82:1f:
                    cd:89:69:a2:4d:71:ca:50:00:73:47:da:d3:5f:e1:
                    85:5c:62:33:2a:9c:0b:81:81:07:f9:a5:f8:4f:c0:
                    c6:38:96:d3:d4:d4:23:be:da:d4:0f:e3:a3:52:ff:
                    ed:32:50:bb:49:ff:bf:44:69:50:7b:db:da:9d:32:
                    81:d7:07:a7:0c:42:9a:3b:ff:50:82:57:84:db:d0:
                    2d:a5:dc:ee:1b:34:d5:23:65:70:2f:59:0d:03:c1:
                    33:f5:77:44:af:a5:93:60:e2:3e:09:7f:f3:f4:ef:
                    e2:b6:f5:d3:4e:1a:4f:6c:7a:17:37:c9:5b:38:42:
                    87:4a:72:0d:41:e5:11:85:4e:1d:7d:c4:c2:94:b8:
                    f4:d5:3f:23:e3:b2:ce:ca:0e:d6:c6:5a:51:58:63:
                    63:46:1f:c5:01:e5:3a:11:36:6f:77:85:04:d5:9a:
                    bb:52:ae:97:56:7c:60:73:7a:78:ee:f9:29:5d:d2:
                    d5:2d
                Q:   
                    00:b3:e8:95:61:57:94:f5:02:60:7e:f8:23:f8:f1:
                    33:7f:d9:ce:ec:3d:3d:5a:fc:6f:7a:24:6c:81:70:
                    36:af:a1
                G:   
                    11:20:cd:ef:8f:d1:15:b2:dd:66:72:d7:0e:ab:78:
                    d3:88:d2:7e:50:b7:08:b0:bc:29:c3:1a:df:c7:3c:
                    ee:cd:78:1d:2a:87:22:d7:97:d3:70:55:d8:f5:3a:
                    63:7d:8e:7d:e6:7c:04:c6:ae:9b:89:64:e0:50:92:
                    80:1f:4e:9f:98:af:3e:92:37:d9:d2:f6:2b:72:22:
                    f0:e9:66:ee:fe:5c:4a:7c:a9:4f:79:c6:c2:7a:f6:
                    b4:bb:95:19:5e:da:a3:d3:e6:2a:25:1c:62:80:e1:
                    cc:db:c0:e2:de:a6:18:3c:18:62:28:22:8a:d0:73:
                    18:14:55:11:d7:16:1b:ec:c2:07:00:c4:7b:f9:7c:
                    6d:ef:5f:e6:13:9f:27:2b:bc:fb:15:b7:e5:2f:e6:
                    fb:5e:21:4c:81:0f:92:7a:c9:b3:a0:c4:41:20:b5:
                    27:81:2a:4a:c4:0c:74:d3:41:4f:fc:67:12:51:d5:
                    67:77:0a:66:09:5c:80:af:6c:6e:c6:9d:b5:f9:05:
                    25:52:a0:fa:82:e7:c2:81:aa:a8:d8:f6:3f:85:23:
                    20:15:fd:5c:a2:d5:5a:95:af:ea:b1:7f:3a:f0:5e:
                    ac:52:d1:ee:9e:65:72:1e:e3:fc:ed:92:71:4e:c2:
                    b7:f2:50:12:e7:b1:09:1f:1b:b7:3c:11:6b:dc:32:
                    c0
        X509v3 extensions:
            X509v3 Key Usage: critical
                Certificate Sign, CRL Sign
            X509v3 Basic Constraints: critical
                CA:TRUE
            X509v3 Subject Key Identifier: 
                C7:67:89:64:22:F1:9D:B1:F3:8B:83:A6:C2:0E:99:93:51:76:EB:96
    Signature Algorithm: dsa_with_SHA256
         r:   
             00:ae:e6:3a:d2:95:b1:76:78:ce:3d:51:2a:0b:43:
             7e:a3:f2:94:c7:64:a2:2f:2e:f5:80:47:17:cc:e9:
             db:eb:73
         s:   
             5c:a6:b1:2f:e9:f8:c6:5b:8b:eb:ef:09:dd:b6:22:
             13:fc:1b:e7:05:28:0b:c8:65:49:f8:3c:da:0c:cb:
             31:df
-----BEGIN CERTIFICATE-----
MIIFjzCCBTSgAwIBAgIQLk/0vCQf0ZZ/H92kT/tl/jALBglghkgBZQMEAwIwga4x
CzAJBgNVBAYTAlVTMRUwEwYDVQQKEwx0aGF3dGUsIEluYy4xKDAmBgNVBAsTH0Nl
cnRpZmljYXRpb24gU2VydmljZXMgRGl2aXNpb24xODA2BgNVBAsTLyhjKSAyMDEy
IHRoYXd0ZSwgSW5jLiAtIEZvciBhdXRob3JpemVkIHVzZSBvbmx5MSQwIgYDVQQD
Ext0aGF3dGUgUHJpbWFyeSBSb290IENBIC0gRzQwHhcNMTIxMDE1MDAwMDAwWhcN
MzcxMjAxMjM1OTU5WjCBrjELMAkGA1UEBhMCVVMxFTATBgNVBAoTDHRoYXd0ZSwg
SW5jLjEoMCYGA1UECxMfQ2VydGlmaWNhdGlvbiBTZXJ2aWNlcyBEaXZpc2lvbjE4
MDYGA1UECxMvKGMpIDIwMTIgdGhhd3RlLCBJbmMuIC0gRm9yIGF1dGhvcml6ZWQg
dXNlIG9ubHkxJDAiBgNVBAMTG3RoYXd0ZSBQcmltYXJ5IFJvb3QgQ0EgLSBHNDCC
A0YwggI5BgcqhkjOOAQBMIICLAKCAQEAuKVG7qscYrwa+gRUVIUUaIbYo3g8dU85
I2dmd62jZc6E4M7CnLmimI1lYeQ8QhGJvNGhvIZQoK62KtiKAmR7CZ8FeDPujvMx
gh/NiWmiTXHKUABzR9rTX+GFXGIzKpwLgYEH+aX4T8DGOJbT1NQjvtrUD+OjUv/t
MlC7Sf+/RGlQe9vanTKB1wenDEKaO/9QgleE29AtpdzuGzTVI2VwL1kNA8Ez9XdE
r6WTYOI+CX/z9O/itvXTThpPbHoXN8lbOEKHSnINQeURhU4dfcTClLj01T8j47LO
yg7WxlpRWGNjRh/FAeU6ETZvd4UE1Zq7Uq6XVnxgc3p47vkpXdLVLQIhALPolWFX
lPUCYH74I/jxM3/Zzuw9PVr8b3okbIFwNq+hAoIBABEgze+P0RWy3WZy1w6reNOI
0n5QtwiwvCnDGt/HPO7NeB0qhyLXl9NwVdj1OmN9jn3mfATGrpuJZOBQkoAfTp+Y
rz6SN9nS9ityIvDpZu7+XEp8qU95xsJ69rS7lRle2qPT5iolHGKA4czbwOLephg8
GGIoIorQcxgUVRHXFhvswgcAxHv5fG3vX+YTnycrvPsVt+Uv5vteIUyBD5J6ybOg
xEEgtSeBKkrEDHTTQU/8ZxJR1Wd3CmYJXICvbG7GnbX5BSVSoPqC58KBqqjY9j+F
IyAV/Vyi1VqVr+qxfzrwXqxS0e6eZXIe4/ztknFOwrfyUBLnsQkfG7c8EWvcMsAD
ggEFAAKCAQBTC/9/4vZWeiazdA/ujWrT/ZypqHFDIAXaIe/l8yMhZJnAxkJGlsK1
aGwMtcVCzrxrRQXMocvNntNTv5SIA2yg5HkHO1z/2mb360X4u374cVmNbZN6vKi2
RwIngV/b4SKpT8pCwUXOOO9wHZYQJi/aHXGBwkkrHLknS9RvEXaHd+NGCcTc3MRp
ANpGl5ri4FQ0aDdw8OT3ITHvpUxfmv5z7z6U3ZMwnio7ZCVFj0YBD900oiHhlpwY
LbbJiVIWvze+hxsIBOxVCJHf7vr0FqN+8BJK4SHKHgAI/IHOz3vM6fXAevDj/F9F
7IQYh94T6mGueqYylB9ib/diNcqfO7Nqo0IwQDAOBgNVHQ8BAf8EBAMCAQYwDwYD
VR0TAQH/BAUwAwEB/zAdBgNVHQ4EFgQUx2eJZCLxnbHzi4Omwg6Zk1F265YwCwYJ
YIZIAWUDBAMCA0gAMEUCIQCu5jrSlbF2eM49USoLQ36j8pTHZKIvLvWARxfM6dvr
cwIgXKaxL+n4xluL6+8J3bYiE/wb5wUoC8hlSfg82gzLMd8=
-----END CERTIFICATE-----
