Certificate:
    Data:
        Version: 3 (0x2)
        Serial Number: 4 (0x4)
    Signature Algorithm: md5WithRSAEncryption
        Issuer: C=US, O=Equifax Secure Inc., CN=Equifax Secure eBusiness CA-1
        Validity
            Not Before: Jun 21 04:00:00 1999 GMT
            Not After : Jun 21 04:00:00 2020 GMT
        Subject: C=US, O=Equifax Secure Inc., CN=Equifax Secure eBusiness CA-1
        Subject Public Key Info:
            Public Key Algorithm: rsaEncryption
                Public-Key: (1024 bit)
                Modulus:
                    00:ce:2f:19:bc:17:b7:77:de:93:a9:5f:5a:0d:17:
                    4f:34:1a:0c:98:f4:22:d9:59:d4:c4:68:46:f0:b4:
                    35:c5:85:03:20:c6:af:45:a5:21:51:45:41:eb:16:
                    58:36:32:6f:e2:50:62:64:f9:fd:51:9c:aa:24:d9:
                    f4:9d:83:2a:87:0a:21:d3:12:38:34:6c:8d:00:6e:
                    5a:a0:d9:42:ee:1a:21:95:f9:52:4c:55:5a:c5:0f:
                    38:4f:46:fa:6d:f8:2e:35:d6:1d:7c:eb:e2:f0:b0:
                    75:80:c8:a9:13:ac:be:88:ef:3a:6e:ab:5f:2a:38:
                    62:02:b0:12:7b:fe:8f:a6:03
                Exponent: 65537 (0x10001)
        X509v3 extensions:
            Netscape Cert Type: 
                SSL CA, S/MIME CA, Object Signing CA
            X509v3 Basic Constraints: critical
                CA:TRUE
            X509v3 Authority Key Identifier: 
                keyid:4A:78:32:52:11:DB:59:16:36:5E:DF:C1:14:36:40:6A:47:7C:4C:A1

            X509v3 Subject Key Identifier: 
                4A:78:32:52:11:DB:59:16:36:5E:DF:C1:14:36:40:6A:47:7C:4C:A1
    Signature Algorithm: md5WithRSAEncryption
         75:5b:a8:9b:03:11:e6:e9:56:4c:cd:f9:a9:4c:c0:0d:9a:f3:
         cc:65:69:e6:25:76:cc:59:b7:d6:54:c3:1d:cd:99:ac:19:dd:
         b4:85:d5:e0:3d:fc:62:20:a7:84:4b:58:65:f1:e2:f9:95:21:
         3f:f5:d4:7e:58:1e:47:87:54:3e:58:a1:b5:b5:f8:2a:ef:71:
         e7:bc:c3:f6:b1:49:46:e2:d7:a0:6b:e5:56:7a:9a:27:98:7c:
         46:62:14:e7:c9:fc:6e:03:12:79:80:38:1d:48:82:8d:fc:17:
         fe:2a:96:2b:b5:62:a6:a6:3d:bd:7f:92:59:cd:5a:2a:82:b2:
         37:79
-----BEGIN CERTIFICATE-----
MIICgjCCAeugAwIBAgIBBDANBgkqhkiG9w0BAQQFADBTMQswCQYDVQQGEwJVUzEc
MBoGA1UEChMTRXF1aWZheCBTZWN1cmUgSW5jLjEmMCQGA1UEAxMdRXF1aWZheCBT
ZWN1cmUgZUJ1c2luZXNzIENBLTEwHhcNOTkwNjIxMDQwMDAwWhcNMjAwNjIxMDQw
MDAwWjBTMQswCQYDVQQGEwJVUzEcMBoGA1UEChMTRXF1aWZheCBTZWN1cmUgSW5j
LjEmMCQGA1UEAxMdRXF1aWZheCBTZWN1cmUgZUJ1c2luZXNzIENBLTEwgZ8wDQYJ
KoZIhvcNAQEBBQADgY0AMIGJAoGBAM4vGbwXt3fek6lfWg0XTzQaDJj0ItlZ1MRo
RvC0NcWFAyDGr0WlIVFFQesWWDYyb+JQYmT5/VGcqiTZ9J2DKocKIdMSODRsjQBu
WqDZQu4aIZX5UkxVWsUPOE9G+m34LjXWHXzr4vCwdYDIqROsvojvOm6rXyo4YgKw
Env+j6YDAgMBAAGjZjBkMBEGCWCGSAGG+EIBAQQEAwIABzAPBgNVHRMBAf8EBTAD
AQH/MB8GA1UdIwQYMBaAFEp4MlIR21kWNl7fwRQ2QGpHfEyhMB0GA1UdDgQWBBRK
eDJSEdtZFjZe38EUNkBqR3xMoTANBgkqhkiG9w0BAQQFAAOBgQB1W6ibAxHm6VZM
zfmpTMANmvPMZWnmJXbMWbfWVMMdzZmsGd20hdXgPfxiIKeES1hl8eL5lSE/9dR+
WB5Hh1Q+WKG1tfgq73HnvMP2sUlG4tega+VWeponmHxGYhTnyfxuAxJ5gDgdSIKN
/Bf+KpYrtWKmpj29f5JZzVoqgrI3eQ==
-----END CERTIFICATE-----
