Certificate:
    Data:
        Version: 1 (0x0)
        Serial Number:
            cd:ba:7f:56:f0:df:e4:bc:54:fe:22:ac:b3:72:aa:55
    Signature Algorithm: md2WithRSAEncryption
        Issuer: C=US, O=VeriSign, Inc., OU=Class 1 Public Primary Certification Authority
        Validity
            Not Before: Jan 29 00:00:00 1996 GMT
            Not After : Aug  1 23:59:59 2028 GMT
        Subject: C=US, O=VeriSign, Inc., OU=Class 1 Public Primary Certification Authority
        Subject Public Key Info:
            Public Key Algorithm: rsaEncryption
                Public-Key: (1024 bit)
                Modulus:
                    00:e5:19:bf:6d:a3:56:61:2d:99:48:71:f6:67:de:
                    b9:8d:eb:b7:9e:86:80:0a:91:0e:fa:38:25:af:46:
                    88:82:e5:73:a8:a0:9b:24:5d:0d:1f:cc:65:6e:0c:
                    b0:d0:56:84:18:87:9a:06:9b:10:a1:73:df:b4:58:
                    39:6b:6e:c1:f6:15:d5:a8:a8:3f:aa:12:06:8d:31:
                    ac:7f:b0:34:d7:8f:34:67:88:09:cd:14:11:e2:4e:
                    45:56:69:1f:78:02:80:da:dc:47:91:29:bb:36:c9:
                    63:5c:c5:e0:d7:2d:87:7b:a1:b7:32:b0:7b:30:ba:
                    2a:2f:31:aa:ee:a3:67:da:db
                Exponent: 65537 (0x10001)
    Signature Algorithm: md2WithRSAEncryption
         4c:3f:b8:8b:c6:68:df:ee:43:33:0e:5d:e9:a6:cb:07:84:4d:
         7a:33:ff:92:1b:f4:36:ad:d8:95:22:36:68:11:6c:7c:42:cc:
         f3:9c:2e:c4:07:3f:14:b0:0f:4f:ff:90:92:76:f9:e2:bc:4a:
         e9:8f:cd:a0:80:0a:f7:c5:29:f1:82:22:5d:b8:b1:dd:81:23:
         a3:7b:25:15:46:30:79:16:f8:ea:05:4b:94:7f:1d:c2:1c:c8:
         e3:b7:f4:10:40:3c:13:c3:5f:1f:53:e8:48:e4:86:b4:7b:a1:
         35:b0:7b:25:ba:b8:d3:8e:ab:3f:38:9d:00:34:00:98:f3:d1:
         71:94
-----BEGIN CERTIFICATE-----
MIICPTCCAaYCEQDNun9W8N/kvFT+IqyzcqpVMA0GCSqGSIb3DQEBAgUAMF8xCzAJ
BgNVBAYTAlVTMRcwFQYDVQQKEw5WZXJpU2lnbiwgSW5jLjE3MDUGA1UECxMuQ2xh
c3MgMSBQdWJsaWMgUHJpbWFyeSBDZXJ0aWZpY2F0aW9uIEF1dGhvcml0eTAeFw05
NjAxMjkwMDAwMDBaFw0yODA4MDEyMzU5NTlaMF8xCzAJBgNVBAYTAlVTMRcwFQYD
VQQKEw5WZXJpU2lnbiwgSW5jLjE3MDUGA1UECxMuQ2xhc3MgMSBQdWJsaWMgUHJp
bWFyeSBDZXJ0aWZpY2F0aW9uIEF1dGhvcml0eTCBnzANBgkqhkiG9w0BAQEFAAOB
jQAwgYkCgYEA5Rm/baNWYS2ZSHH2Z965jeu3noaACpEO+jglr0aIguVzqKCbJF0N
H8xlbgyw0FaEGIeaBpsQoXPftFg5a27B9hXVqKg/qhIGjTGsf7A01480Z4gJzRQR
4k5FVmkfeAKA2txHkSm7NsljXMXg1y2He6G3MrB7MLoqLzGq7qNn2tsCAwEAATAN
BgkqhkiG9w0BAQIFAAOBgQBMP7iLxmjf7kMzDl3ppssHhE16M/+SG/Q2rdiVIjZo
EWx8QszznC7EBz8UsA9P/5CSdvnivErpj82ggAr3xSnxgiJduLHdgSOjeyUVRjB5
FvjqBUuUfx3CHMjjt/QQQDwTw18fU+hI5Ia0e6E1sHslurjTjqs/OJ0ANACY89Fx
lA==
-----END CERTIFICATE-----
