Certificate:
    Data:
        Version: 3 (0x2)
        Serial Number:
            60:ce:3f:73:2f:c8:3e:92:ec:e4:4d:70:a5:75:e2:04
    Signature Algorithm: dsa_with_SHA256
        Issuer: C=US, O=Symantec Corporation, OU=Symantec Trust Network, CN=Symantec Class 2 Public Primary Certification Authority - G7
        Validity
            Not Before: Oct 15 00:00:00 2012 GMT
            Not After : Dec  1 23:59:59 2037 GMT
        Subject: C=US, O=Symantec Corporation, OU=Symantec Trust Network, CN=Symantec Class 2 Public Primary Certification Authority - G7
        Subject Public Key Info:
            Public Key Algorithm: dsaEncryption
                pub: 
                    00:d8:cd:95:4b:32:88:d8:ee:f2:c2:8e:73:d0:65:
                    73:d6:83:da:58:f6:0a:d4:aa:f6:77:49:8c:d0:d1:
                    50:44:59:52:9c:ea:0c:8c:8e:7e:ea:77:5b:5c:8a:
                    35:05:13:96:cc:b3:ca:89:a6:d2:60:43:e4:0f:4e:
                    1b:1e:07:6f:da:1c:b6:e5:3c:06:ab:e5:9f:2f:03:
                    82:3b:08:45:07:d1:01:54:69:2c:81:f6:aa:af:a6:
                    0e:10:8f:c0:0e:9d:ad:88:c9:58:bf:0b:d4:a2:36:
                    ae:e0:e3:95:4d:07:cf:f2:d6:64:56:db:c9:04:4b:
                    e8:d9:63:f3:0f:42:42:0b:48:53:98:76:e9:db:61:
                    c3:b8:b3:de:5f:71:fa:3a:1c:ee:4f:7c:fa:b6:a6:
                    ba:d1:ea:88:97:2d:7b:6d:32:5e:b6:41:a4:68:53:
                    46:ab:28:a9:46:b5:cc:2a:5e:d6:ac:c5:5f:8a:ae:
                    4f:0e:e7:54:ed:7d:d3:f9:65:4e:6b:4a:73:65:2d:
                    50:e1:57:26:ee:93:4f:b9:b4:3c:ff:b5:8e:8b:2f:
                    83:ab:76:3e:3d:45:f1:75:ac:ce:ad:23:de:59:e0:
                    a1:71:1c:d0:9e:32:1a:e6:90:85:c7:12:23:5d:99:
                    67:cb:5d:b5:47:70:03:7e:ea:cc:35:07:a1:bb:52:
                    06:c4
                P:   
                    00:f2:92:8b:59:14:77:be:c4:04:05:ea:de:e0:31:
                    57:9f:6b:1c:ce:7c:6a:42:35:32:fc:c0:46:fc:9f:
                    07:88:2e:c7:03:4a:80:b2:84:91:c9:bb:87:9d:e0:
                    11:2d:29:ee:d7:58:bd:b0:a0:7c:cf:b3:f4:d6:08:
                    c4:fb:fe:ea:2d:87:3a:df:33:c9:e3:21:40:58:1b:
                    f1:d3:91:68:51:b5:d6:dd:da:d3:ba:c1:4f:c8:d0:
                    2e:2c:ad:c9:fe:3a:10:37:d4:a1:be:c3:9e:21:7e:
                    df:01:d5:c6:5b:41:ec:fb:b4:f3:9c:88:4c:84:99:
                    bc:84:7b:41:76:17:c1:5e:2c:7f:2b:3c:81:dc:70:
                    71:ad:41:c0:4d:30:27:d5:ee:39:bc:c8:bf:40:bb:
                    22:b4:19:b6:bc:17:3a:0f:aa:6e:15:3d:c8:c8:bb:
                    e6:b4:df:68:6f:f8:4d:42:b6:05:c5:9a:bf:1e:56:
                    17:08:08:44:59:66:e0:1a:46:e9:6d:0b:24:a9:eb:
                    9b:67:a4:ae:50:a1:f5:84:5a:47:f7:81:73:cb:42:
                    b5:ab:dc:a8:00:b8:97:66:69:57:96:5b:e5:8d:cf:
                    8c:10:27:23:e3:1f:0b:26:1b:b2:a8:98:ba:03:a3:
                    d9:b6:b1:fd:d4:c4:b5:b7:0a:ef:5f:70:36:5f:90:
                    21:ef
                Q:   
                    00:eb:f2:dd:c3:92:3d:c8:0b:bd:aa:c6:ec:68:2e:
                    37:fc:9c:79:75:18:0e:2a:e2:73:d7:ce:fb:8e:74:
                    27:99:01
                G:   
                    00:99:5c:1e:7d:dc:6a:9e:ef:45:f2:80:ca:fe:37:
                    0f:ef:23:91:42:62:28:74:19:05:0a:38:f1:e1:38:
                    84:03:6a:4a:71:51:12:79:0d:af:fd:a6:2f:ea:33:
                    55:1c:12:07:52:b7:01:9f:fc:0d:10:cd:d4:2e:de:
                    c1:5d:5f:25:63:ce:95:b1:75:71:94:96:03:b0:cd:
                    18:49:77:ec:95:d4:f2:0c:59:b0:60:18:4c:37:38:
                    14:00:b0:b8:1b:28:11:01:2a:97:18:b3:6a:87:b9:
                    1c:27:ca:91:2a:ea:f7:f8:8a:cb:fb:19:48:8f:c1:
                    16:79:02:9b:c5:c6:42:65:14:c7:01:a4:fd:8c:0e:
                    3d:3a:0e:c5:30:e9:f7:30:6e:e7:50:4d:b3:eb:10:
                    5e:a2:3a:78:15:48:64:94:48:30:10:ab:9d:98:18:
                    20:55:a9:97:fd:17:10:5a:dd:f3:8c:e0:72:9a:cf:
                    95:51:16:82:ff:27:0b:6a:b8:b2:1b:5e:d0:40:84:
                    fe:81:40:64:52:cb:60:8c:26:01:d5:28:55:f8:ac:
                    f8:6a:57:04:f9:3a:e3:72:85:6b:bc:f3:dc:33:8f:
                    14:fd:72:32:85:a5:ba:8e:07:0c:b4:69:ef:85:25:
                    41:20:52:99:e3:9a:37:69:92:f6:ec:91:01:61:fa:
                    79:b4
        X509v3 extensions:
            X509v3 Key Usage: critical
                Certificate Sign, CRL Sign
            X509v3 Basic Constraints: critical
                CA:TRUE
            X509v3 Subject Key Identifier: 
                67:21:32:17:49:65:78:E5:6C:0C:73:9A:9F:42:BC:38:59:7B:F1:9D
    Signature Algorithm: dsa_with_SHA256
         r:   
             30:f1:5f:bb:b9:72:55:aa:d0:bc:ab:c5:1c:1d:e7:
             16:d0:04:50:8b:8a:a6:c7:12:c0:8d:48:47:e7:c7:
             39:64
         s:   
             18:1b:22:4d:7a:78:ab:1a:ec:05:a6:70:a0:36:26:
             88:8c:56:8f:0e:4e:00:3c:83:46:b5:6f:89:a8:e0:
             0c:08
-----BEGIN CERTIFICATE-----
MIIFXDCCBQKgAwIBAgIQYM4/cy/IPpLs5E1wpXXiBDALBglghkgBZQMEAwIwgZQx
CzAJBgNVBAYTAlVTMR0wGwYDVQQKExRTeW1hbnRlYyBDb3Jwb3JhdGlvbjEfMB0G
A1UECxMWU3ltYW50ZWMgVHJ1c3QgTmV0d29yazFFMEMGA1UEAxM8U3ltYW50ZWMg
Q2xhc3MgMiBQdWJsaWMgUHJpbWFyeSBDZXJ0aWZpY2F0aW9uIEF1dGhvcml0eSAt
IEc3MB4XDTEyMTAxNTAwMDAwMFoXDTM3MTIwMTIzNTk1OVowgZQxCzAJBgNVBAYT
AlVTMR0wGwYDVQQKExRTeW1hbnRlYyBDb3Jwb3JhdGlvbjEfMB0GA1UECxMWU3lt
YW50ZWMgVHJ1c3QgTmV0d29yazFFMEMGA1UEAxM8U3ltYW50ZWMgQ2xhc3MgMiBQ
dWJsaWMgUHJpbWFyeSBDZXJ0aWZpY2F0aW9uIEF1dGhvcml0eSAtIEc3MIIDSDCC
AjoGByqGSM44BAEwggItAoIBAQDykotZFHe+xAQF6t7gMVefaxzOfGpCNTL8wEb8
nweILscDSoCyhJHJu4ed4BEtKe7XWL2woHzPs/TWCMT7/uothzrfM8njIUBYG/HT
kWhRtdbd2tO6wU/I0C4srcn+OhA31KG+w54hft8B1cZbQez7tPOciEyEmbyEe0F2
F8FeLH8rPIHccHGtQcBNMCfV7jm8yL9AuyK0Gba8FzoPqm4VPcjIu+a032hv+E1C
tgXFmr8eVhcICERZZuAaRultCySp65tnpK5QofWEWkf3gXPLQrWr3KgAuJdmaVeW
W+WNz4wQJyPjHwsmG7KomLoDo9m2sf3UxLW3Cu9fcDZfkCHvAiEA6/Ldw5I9yAu9
qsbsaC43/Jx5dRgOKuJz1877jnQnmQECggEBAJlcHn3cap7vRfKAyv43D+8jkUJi
KHQZBQo48eE4hANqSnFREnkNr/2mL+ozVRwSB1K3AZ/8DRDN1C7ewV1fJWPOlbF1
cZSWA7DNGEl37JXU8gxZsGAYTDc4FACwuBsoEQEqlxizaoe5HCfKkSrq9/iKy/sZ
SI/BFnkCm8XGQmUUxwGk/YwOPToOxTDp9zBu51BNs+sQXqI6eBVIZJRIMBCrnZgY
IFWpl/0XEFrd84zgcprPlVEWgv8nC2q4shte0ECE/oFAZFLLYIwmAdUoVfis+GpX
BPk643KFa7zz3DOPFP1yMoWluo4HDLRp74UlQSBSmeOaN2mS9uyRAWH6ebQDggEG
AAKCAQEA2M2VSzKI2O7ywo5z0GVz1oPaWPYK1Kr2d0mM0NFQRFlSnOoMjI5+6ndb
XIo1BROWzLPKiabSYEPkD04bHgdv2hy25TwGq+WfLwOCOwhFB9EBVGksgfaqr6YO
EI/ADp2tiMlYvwvUojau4OOVTQfP8tZkVtvJBEvo2WPzD0JCC0hTmHbp22HDuLPe
X3H6OhzuT3z6tqa60eqIly17bTJetkGkaFNGqyipRrXMKl7WrMVfiq5PDudU7X3T
+WVOa0pzZS1Q4Vcm7pNPubQ8/7WOiy+Dq3Y+PUXxdazOrSPeWeChcRzQnjIa5pCF
xxIjXZlny121R3ADfurMNQehu1IGxKNCMEAwDgYDVR0PAQH/BAQDAgEGMA8GA1Ud
EwEB/wQFMAMBAf8wHQYDVR0OBBYEFGchMhdJZXjlbAxzmp9CvDhZe/GdMAsGCWCG
SAFlAwQDAgNHADBEAiAw8V+7uXJVqtC8q8UcHecW0ARQi4qmxxLAjUhH58c5ZAIg
GBsiTXp4qxrsBaZwoDYmiIxWjw5OADyDRrVviajgDAg=
-----END CERTIFICATE-----
