Certificate:
    Data:
        Version: 1 (0x0)
        Serial Number:
            ec:a0:a7:8b:6e:75:6a:01:cf:c4:7c:cc:2f:94:5e:d7
    Signature Algorithm: sha1WithRSAEncryption
        Issuer: C=US, O=VeriSign, Inc., OU=VeriSign Trust Network, OU=(c) 1999 VeriSign, Inc. - For authorized use only, CN=VeriSign Class 4 Public Primary Certification Authority - G3
        Validity
            Not Before: Oct  1 00:00:00 1999 GMT
            Not After : Jul 16 23:59:59 2036 GMT
        Subject: C=US, O=VeriSign, Inc., OU=VeriSign Trust Network, OU=(c) 1999 VeriSign, Inc. - For authorized use only, CN=VeriSign Class 4 Public Primary Certification Authority - G3
        Subject Public Key Info:
            Public Key Algorithm: rsaEncryption
                Public-Key: (2048 bit)
                Modulus:
                    00:ad:cb:a5:11:69:c6:59:ab:f1:8f:b5:19:0f:56:
                    ce:cc:b5:1f:20:e4:9e:26:25:4b:e0:73:65:89:59:
                    de:d0:83:e4:f5:0f:b5:bb:ad:f1:7c:e8:21:fc:e4:
                    e8:0c:ee:7c:45:22:19:76:92:b4:13:b7:20:5b:09:
                    fa:61:ae:a8:f2:a5:8d:85:c2:2a:d6:de:66:36:d2:
                    9b:02:f4:a8:92:60:7c:9c:69:b4:8f:24:1e:d0:86:
                    52:f6:32:9c:41:58:1e:22:bd:cd:45:62:95:08:6e:
                    d0:66:dd:53:a2:cc:f0:10:dc:54:73:8b:04:a1:46:
                    33:33:5c:17:40:b9:9e:4d:d3:f3:be:55:83:e8:b1:
                    89:8e:5a:7c:9a:96:22:90:3b:88:25:f2:d2:53:88:
                    02:0c:0b:78:f2:e6:37:17:4b:30:46:07:e4:80:6d:
                    a6:d8:96:2e:e8:2c:f8:11:b3:38:0d:66:a6:9b:ea:
                    c9:23:5b:db:8e:e2:f3:13:8e:1a:59:2d:aa:02:f0:
                    ec:a4:87:66:dc:c1:3f:f5:d8:b9:f4:ec:82:c6:d2:
                    3d:95:1d:e5:c0:4f:84:c9:d9:a3:44:28:06:6a:d7:
                    45:ac:f0:6b:6a:ef:4e:5f:f8:11:82:1e:38:63:34:
                    66:50:d4:3e:93:73:fa:30:c3:66:ad:ff:93:2d:97:
                    ef:03
                Exponent: 65537 (0x10001)
    Signature Algorithm: sha1WithRSAEncryption
         8f:fa:25:6b:4f:5b:e4:a4:4e:27:55:ab:22:15:59:3c:ca:b5:
         0a:d4:4a:db:ab:dd:a1:5f:53:c5:a0:57:39:c2:ce:47:2b:be:
         3a:c8:56:bf:c2:d9:27:10:3a:b1:05:3c:c0:77:31:bb:3a:d3:
         05:7b:6d:9a:1c:30:8c:80:cb:93:93:2a:83:ab:05:51:82:02:
         00:11:67:6b:f3:88:61:47:5f:03:93:d5:5b:0d:e0:f1:d4:a1:
         32:35:85:b2:3a:db:b0:82:ab:d1:cb:0a:bc:4f:8c:5b:c5:4b:
         00:3b:1f:2a:82:a6:7e:36:85:dc:7e:3c:67:00:b5:e4:3b:52:
         e0:a8:eb:5d:15:f9:c6:6d:f0:ad:1d:0e:85:b7:a9:9a:73:14:
         5a:5b:8f:41:28:c0:d5:e8:2d:4d:a4:5e:cd:aa:d9:ed:ce:dc:
         d8:d5:3c:42:1d:17:c1:12:5d:45:38:c3:38:f3:fc:85:2e:83:
         46:48:b2:d7:20:5f:92:36:8f:e7:79:0f:98:5e:99:e8:f0:d0:
         a4:bb:f5:53:bd:2a:ce:59:b0:af:6e:7f:6c:bb:d2:1e:00:b0:
         21:ed:f8:41:62:82:b9:d8:b2:c4:bb:46:50:f3:31:c5:8f:01:
         a8:74:eb:f5:78:27:da:e7:f7:66:43:f3:9e:83:3e:20:aa:c3:
         35:60:91:ce
-----BEGIN CERTIFICATE-----
MIIEGjCCAwICEQDsoKeLbnVqAc/EfMwvlF7XMA0GCSqGSIb3DQEBBQUAMIHKMQsw
CQYDVQQGEwJVUzEXMBUGA1UEChMOVmVyaVNpZ24sIEluYy4xHzAdBgNVBAsTFlZl
cmlTaWduIFRydXN0IE5ldHdvcmsxOjA4BgNVBAsTMShjKSAxOTk5IFZlcmlTaWdu
LCBJbmMuIC0gRm9yIGF1dGhvcml6ZWQgdXNlIG9ubHkxRTBDBgNVBAMTPFZlcmlT
aWduIENsYXNzIDQgUHVibGljIFByaW1hcnkgQ2VydGlmaWNhdGlvbiBBdXRob3Jp
dHkgLSBHMzAeFw05OTEwMDEwMDAwMDBaFw0zNjA3MTYyMzU5NTlaMIHKMQswCQYD
VQQGEwJVUzEXMBUGA1UEChMOVmVyaVNpZ24sIEluYy4xHzAdBgNVBAsTFlZlcmlT
aWduIFRydXN0IE5ldHdvcmsxOjA4BgNVBAsTMShjKSAxOTk5IFZlcmlTaWduLCBJ
bmMuIC0gRm9yIGF1dGhvcml6ZWQgdXNlIG9ubHkxRTBDBgNVBAMTPFZlcmlTaWdu
IENsYXNzIDQgUHVibGljIFByaW1hcnkgQ2VydGlmaWNhdGlvbiBBdXRob3JpdHkg
LSBHMzCCASIwDQYJKoZIhvcNAQEBBQADggEPADCCAQoCggEBAK3LpRFpxlmr8Y+1
GQ9Wzsy1HyDkniYlS+BzZYlZ3tCD5PUPtbut8XzoIfzk6AzufEUiGXaStBO3IFsJ
+mGuqPKljYXCKtbeZjbSmwL0qJJgfJxptI8kHtCGUvYynEFYHiK9zUVilQhu0Gbd
U6LM8BDcVHOLBKFGMzNcF0C5nk3T875Vg+ixiY5afJqWIpA7iCXy0lOIAgwLePLm
NxdLMEYH5IBtptiWLugs+BGzOA1mppvqySNb247i8xOOGlktqgLw7KSHZtzBP/XY
ufTsgsbSPZUd5cBPhMnZo0QoBmrXRazwa2rvTl/4EYIeOGM0ZlDUPpNz+jDDZq3/
ky2X7wMCAwEAATANBgkqhkiG9w0BAQUFAAOCAQEAj/ola09b5KROJ1WrIhVZPMq1
CtRK26vdoV9TxaBXOcLORyu+OshWv8LZJxA6sQU8wHcxuzrTBXttmhwwjIDLk5Mq
g6sFUYICABFna/OIYUdfA5PVWw3g8dShMjWFsjrbsIKr0csKvE+MW8VLADsfKoKm
fjaF3H48ZwC15DtS4KjrXRX5xm3wrR0OhbepmnMUWluPQSjA1egtTaRezarZ7c7c
2NU8Qh0XwRJdRTjDOPP8hS6DRkiy1yBfkjaP53kPmF6Z6PDQpLv1U70qzlmwr25/
bLvSHgCwIe34QWKCudiyxLtGUPMxxY8BqHTr9Xgn2uf3ZkPznoM+IKrDNWCRzg==
-----END CERTIFICATE-----
