Certificate:
    Data:
        Version: 3 (0x2)
        Serial Number:
            0f:6b:55:2f:9e:bf:90:7b:0f:66:29:a9:bd:f4:d8:ce
    Signature Algorithm: sha256WithRSAEncryption
        Issuer: C=US, O=Symantec Corporation, CN=Symantec Enterprise Mobile Root for Microsoft
        Validity
            Not Before: Mar 15 00:00:00 2012 GMT
            Not After : Mar 14 23:59:59 2032 GMT
        Subject: C=US, O=Symantec Corporation, CN=Symantec Enterprise Mobile Root for Microsoft
        Subject Public Key Info:
            Public Key Algorithm: rsaEncryption
                Public-Key: (2048 bit)
                Modulus:
                    00:b5:3d:b0:72:ee:91:e9:a5:69:9c:11:4d:7a:f9:
                    b3:fa:3d:f2:94:9b:23:b7:a6:03:ec:62:18:fc:85:
                    12:22:fe:c1:71:7d:54:93:b9:91:7d:62:f6:ca:a8:
                    38:15:65:f8:77:3d:e5:82:20:3a:d4:b5:d1:6e:8d:
                    06:49:bd:df:82:0e:24:85:e7:ef:78:2d:18:f2:e0:
                    0b:68:46:3e:24:10:c8:57:ee:0e:6d:71:a6:d3:b1:
                    56:1c:d7:29:d5:b2:ea:54:05:0a:a8:3c:a1:b8:25:
                    52:07:05:a0:df:e7:dc:ee:5c:3b:41:b5:ab:5c:33:
                    32:d2:ce:eb:e9:96:f8:40:f4:0a:ba:33:1d:f8:56:
                    03:09:82:f5:67:07:c4:c0:34:c1:5d:fc:45:bb:ea:
                    3c:9a:d5:74:71:6d:d5:86:d3:c2:fc:85:bc:54:eb:
                    a3:d5:f2:4f:d5:45:af:57:bc:f0:22:c0:8f:a2:45:
                    c8:75:34:77:de:a1:6d:37:72:b3:73:8d:0c:6b:53:
                    ba:59:e1:a8:3e:80:57:d2:5f:59:ee:68:75:cf:81:
                    9c:a3:ca:45:8c:37:db:05:72:34:1c:32:02:f8:d5:
                    f9:2c:0d:da:58:9e:c4:17:b4:9b:c9:90:c4:88:59:
                    3f:71:91:90:44:18:be:22:8b:79:92:2e:42:b0:8b:
                    97:5b
                Exponent: 65537 (0x10001)
        X509v3 extensions:
            X509v3 Basic Constraints: critical
                CA:TRUE
            X509v3 Key Usage: critical
                Certificate Sign, CRL Sign
            X509v3 Subject Alternative Name: 
                DirName:/CN=MPKI-2048-1-111
            X509v3 Subject Key Identifier: 
                4D:EC:DF:26:06:DC:24:10:C0:B6:99:F4:D7:39:C7:6F:19:F8:26:28
    Signature Algorithm: sha256WithRSAEncryption
         a9:57:59:d0:01:54:14:46:af:c7:79:54:0c:6a:2a:5b:d8:3a:
         1d:81:e4:88:a3:31:b4:f1:f3:35:f1:46:73:5c:43:c9:fe:bc:
         a2:6a:19:c0:bd:2f:5f:cb:38:a3:6d:6e:e8:14:5e:f2:78:7e:
         45:7a:e1:bb:f4:2e:9b:45:eb:e0:1d:50:1c:34:5b:7f:98:8a:
         86:0f:87:da:e4:64:26:77:fc:09:df:23:41:4f:0e:9f:fa:0e:
         fa:44:85:f0:29:97:a4:94:e2:f4:40:2d:91:1c:76:f4:a8:60:
         de:71:a6:b0:05:e2:4f:69:d9:19:0b:89:3a:e0:fa:ab:2b:fa:
         f1:b3:32:ed:fc:7c:70:65:5e:d0:7b:11:7b:9d:e8:5b:1a:4a:
         76:a4:7b:51:39:ac:7d:a9:0c:74:38:e8:bb:55:df:c4:ce:c0:
         a7:21:5a:b8:1b:9f:01:c5:a7:10:fe:7d:f9:6a:08:99:01:d1:
         f6:35:50:38:e4:f6:43:e4:18:d8:80:4c:ec:c7:04:e2:61:8c:
         7d:49:ed:cf:b4:a5:f1:f2:90:92:09:08:35:73:a0:23:32:ca:
         e9:9c:9e:1c:be:0b:07:2c:77:5e:17:4c:da:9c:82:e1:80:1b:
         a5:f3:da:f7:88:bf:bf:39:27:f8:24:fe:b1:4b:c8:97:ed:e4:
         12:14:25:88
-----BEGIN CERTIFICATE-----
MIIDvTCCAqWgAwIBAgIQD2tVL56/kHsPZimpvfTYzjANBgkqhkiG9w0BAQsFADBk
MQswCQYDVQQGEwJVUzEdMBsGA1UEChMUU3ltYW50ZWMgQ29ycG9yYXRpb24xNjA0
BgNVBAMTLVN5bWFudGVjIEVudGVycHJpc2UgTW9iaWxlIFJvb3QgZm9yIE1pY3Jv
c29mdDAeFw0xMjAzMTUwMDAwMDBaFw0zMjAzMTQyMzU5NTlaMGQxCzAJBgNVBAYT
AlVTMR0wGwYDVQQKExRTeW1hbnRlYyBDb3Jwb3JhdGlvbjE2MDQGA1UEAxMtU3lt
YW50ZWMgRW50ZXJwcmlzZSBNb2JpbGUgUm9vdCBmb3IgTWljcm9zb2Z0MIIBIjAN
BgkqhkiG9w0BAQEFAAOCAQ8AMIIBCgKCAQEAtT2wcu6R6aVpnBFNevmz+j3ylJsj
t6YD7GIY/IUSIv7BcX1Uk7mRfWL2yqg4FWX4dz3lgiA61LXRbo0GSb3fgg4khefv
eC0Y8uALaEY+JBDIV+4ObXGm07FWHNcp1bLqVAUKqDyhuCVSBwWg3+fc7lw7QbWr
XDMy0s7r6Zb4QPQKujMd+FYDCYL1ZwfEwDTBXfxFu+o8mtV0cW3VhtPC/IW8VOuj
1fJP1UWvV7zwIsCPokXIdTR33qFtN3Kzc40Ma1O6WeGoPoBX0l9Z7mh1z4Gco8pF
jDfbBXI0HDIC+NX5LA3aWJ7EF7SbyZDEiFk/cZGQRBi+Iot5ki5CsIuXWwIDAQAB
o2swaTAPBgNVHRMBAf8EBTADAQH/MA4GA1UdDwEB/wQEAwIBBjAnBgNVHREEIDAe
pBwwGjEYMBYGA1UEAxMPTVBLSS0yMDQ4LTEtMTExMB0GA1UdDgQWBBRN7N8mBtwk
EMC2mfTXOcdvGfgmKDANBgkqhkiG9w0BAQsFAAOCAQEAqVdZ0AFUFEavx3lUDGoq
W9g6HYHkiKMxtPHzNfFGc1xDyf68omoZwL0vX8s4o21u6BRe8nh+RXrhu/Qum0Xr
4B1QHDRbf5iKhg+H2uRkJnf8Cd8jQU8On/oO+kSF8CmXpJTi9EAtkRx29Khg3nGm
sAXiT2nZGQuJOuD6qyv68bMy7fx8cGVe0HsRe53oWxpKdqR7UTmsfakMdDjou1Xf
xM7ApyFauBufAcWnEP59+WoImQHR9jVQOOT2Q+QY2IBM7McE4mGMfUntz7Sl8fKQ
kgkINXOgIzLK6ZyeHL4LByx3XhdM2pyC4YAbpfPa94i/vzkn+CT+sUvIl+3kEhQl
iA==
-----END CERTIFICATE-----
