Certificate:
    Data:
        Version: 3 (0x2)
        Serial Number:
            2e:6a:00:01:00:02:1f:d7:52:21:2c:11:5c:3b
    Signature Algorithm: sha1WithRSAEncryption
        Issuer: C=DE, O=TC TrustCenter GmbH, OU=TC TrustCenter Class 2 CA, CN=TC TrustCenter Class 2 CA II
        Validity
            Not Before: Jan 12 14:38:43 2006 GMT
            Not After : Dec 31 22:59:59 2025 GMT
        Subject: C=DE, O=TC TrustCenter GmbH, OU=TC TrustCenter Class 2 CA, CN=TC TrustCenter Class 2 CA II
        Subject Public Key Info:
            Public Key Algorithm: rsaEncryption
                Public-Key: (2048 bit)
                Modulus:
                    00:ab:80:87:9b:8e:f0:c3:7c:87:d7:e8:24:82:11:
                    b3:3c:dd:43:62:ee:f8:c3:45:da:e8:e1:a0:5f:d1:
                    2a:b2:ea:93:68:df:b4:c8:d6:43:e9:c4:75:59:7f:
                    fc:e1:1d:f8:31:70:23:1b:88:9e:27:b9:7b:fd:3a:
                    d2:c9:a9:e9:14:2f:90:be:03:52:c1:49:cd:f6:fd:
                    e4:08:66:0b:57:8a:a2:42:a0:b8:d5:7f:69:5c:90:
                    32:b2:97:0d:ca:4a:dc:46:3e:02:55:89:53:e3:1a:
                    5a:cb:36:c6:07:56:f7:8c:cf:11:f4:4c:bb:30:70:
                    04:95:a5:f6:39:8c:fd:73:81:08:7d:89:5e:32:1e:
                    22:a9:22:45:4b:b0:66:2e:30:cc:9f:65:fd:fc:cb:
                    81:a9:f1:e0:3b:af:a3:86:d1:89:ea:c4:45:79:50:
                    5d:ae:e9:21:74:92:4d:8b:59:82:8f:94:e3:e9:4a:
                    f1:e7:49:b0:14:e3:f5:62:cb:d5:72:bd:1f:b9:d2:
                    9f:a0:cd:a8:fa:01:c8:d9:0d:df:da:fc:47:9d:b3:
                    c8:54:df:49:4a:f1:21:a9:fe:18:4e:ee:48:d4:19:
                    bb:ef:7d:e4:e2:9d:cb:5b:b6:6e:ff:e3:cd:5a:e7:
                    74:82:05:ba:80:25:38:cb:e4:69:9e:af:41:aa:1a:
                    84:f5
                Exponent: 65537 (0x10001)
        X509v3 extensions:
            X509v3 Basic Constraints: critical
                CA:TRUE
            X509v3 Key Usage: critical
                Certificate Sign, CRL Sign
            X509v3 Subject Key Identifier: 
                E3:AB:54:4C:80:A1:DB:56:43:B7:91:4A:CB:F3:82:7A:13:5C:08:AB
            X509v3 CRL Distribution Points: 

                Full Name:
                  URI:http://www.trustcenter.de/crl/v2/tc_class_2_ca_II.crl
                  URI:ldap://www.trustcenter.de/CN=TC%20TrustCenter%20Class%202%20CA%20II,O=TC%20TrustCenter%20GmbH,OU=rootcerts,DC=trustcenter,DC=de?certificateRevocationList?base?

    Signature Algorithm: sha1WithRSAEncryption
         8c:d7:df:7e:ee:1b:80:10:b3:83:f5:db:11:ea:6b:4b:a8:92:
         18:d9:f7:07:39:f5:2c:be:06:75:7a:68:53:15:1c:ea:4a:ed:
         5e:fc:23:b2:13:a0:d3:09:ff:f6:f6:2e:6b:41:71:79:cd:e2:
         6d:fd:ae:59:6b:85:1d:b8:4e:22:9a:ed:66:39:6e:4b:94:e6:
         55:fc:0b:1b:8b:77:c1:53:13:66:89:d9:28:d6:8b:f3:45:4a:
         63:b7:fd:7b:0b:61:5d:b8:6d:be:c3:dc:5b:79:d2:ed:86:e5:
         a2:4d:be:5e:74:7c:6a:ed:16:38:1f:7f:58:81:5a:1a:eb:32:
         88:2d:b2:f3:39:77:80:af:5e:b6:61:75:29:db:23:4d:88:ca:
         50:28:cb:85:d2:d3:10:a2:59:6e:d3:93:54:00:7a:a2:46:95:
         86:05:9c:a9:19:98:e5:31:72:0c:00:e2:67:d9:40:e0:24:33:
         7b:6f:2c:b9:5c:ab:65:9d:2c:ac:76:ea:35:99:f5:97:b9:0f:
         24:ec:c7:76:21:28:65:ae:57:e8:07:88:75:4a:56:a0:d2:05:
         3a:a4:e6:8d:92:88:2c:f3:f2:e1:c1:c6:61:db:41:c5:c7:9b:
         f7:0e:1a:51:45:c2:61:6b:dc:64:27:17:8c:5a:b7:da:74:28:
         cd:97:e4:bd
-----BEGIN CERTIFICATE-----
MIIEqjCCA5KgAwIBAgIOLmoAAQACH9dSISwRXDswDQYJKoZIhvcNAQEFBQAwdjEL
MAkGA1UEBhMCREUxHDAaBgNVBAoTE1RDIFRydXN0Q2VudGVyIEdtYkgxIjAgBgNV
BAsTGVRDIFRydXN0Q2VudGVyIENsYXNzIDIgQ0ExJTAjBgNVBAMTHFRDIFRydXN0
Q2VudGVyIENsYXNzIDIgQ0EgSUkwHhcNMDYwMTEyMTQzODQzWhcNMjUxMjMxMjI1
OTU5WjB2MQswCQYDVQQGEwJERTEcMBoGA1UEChMTVEMgVHJ1c3RDZW50ZXIgR21i
SDEiMCAGA1UECxMZVEMgVHJ1c3RDZW50ZXIgQ2xhc3MgMiBDQTElMCMGA1UEAxMc
VEMgVHJ1c3RDZW50ZXIgQ2xhc3MgMiBDQSBJSTCCASIwDQYJKoZIhvcNAQEBBQAD
ggEPADCCAQoCggEBAKuAh5uO8MN8h9foJIIRszzdQ2Lu+MNF2ujhoF/RKrLqk2jf
tMjWQ+nEdVl//OEd+DFwIxuInie5e/060smp6RQvkL4DUsFJzfb95AhmC1eKokKg
uNV/aVyQMrKXDcpK3EY+AlWJU+MaWss2xgdW94zPEfRMuzBwBJWl9jmM/XOBCH2J
XjIeIqkiRUuwZi4wzJ9l/fzLganx4Duvo4bRierERXlQXa7pIXSSTYtZgo+U4+lK
8edJsBTj9WLL1XK9H7nSn6DNqPoByNkN39r8R52zyFTfSUrxIan+GE7uSNQZu+99
5OKdy1u2bv/jzVrndIIFuoAlOMvkaZ6vQaoahPUCAwEAAaOCATQwggEwMA8GA1Ud
EwEB/wQFMAMBAf8wDgYDVR0PAQH/BAQDAgEGMB0GA1UdDgQWBBTjq1RMgKHbVkO3
kUrL84J6E1wIqzCB7QYDVR0fBIHlMIHiMIHfoIHcoIHZhjVodHRwOi8vd3d3LnRy
dXN0Y2VudGVyLmRlL2NybC92Mi90Y19jbGFzc18yX2NhX0lJLmNybIaBn2xkYXA6
Ly93d3cudHJ1c3RjZW50ZXIuZGUvQ049VEMlMjBUcnVzdENlbnRlciUyMENsYXNz
JTIwMiUyMENBJTIwSUksTz1UQyUyMFRydXN0Q2VudGVyJTIwR21iSCxPVT1yb290
Y2VydHMsREM9dHJ1c3RjZW50ZXIsREM9ZGU/Y2VydGlmaWNhdGVSZXZvY2F0aW9u
TGlzdD9iYXNlPzANBgkqhkiG9w0BAQUFAAOCAQEAjNfffu4bgBCzg/XbEeprS6iS
GNn3Bzn1LL4GdXpoUxUc6krtXvwjshOg0wn/9vYua0Fxec3ibf2uWWuFHbhOIprt
ZjluS5TmVfwLG4t3wVMTZonZKNaL80VKY7f9ewthXbhtvsPcW3nS7Yblok2+XnR8
au0WOB9/WIFaGusyiC2y8zl3gK9etmF1KdsjTYjKUCjLhdLTEKJZbtOTVAB6okaV
hgWcqRmY5TFyDADiZ9lA4CQze28suVyrZZ0srHbqNZn1l7kPJOzHdiEoZa5X6AeI
dUpWoNIFOqTmjZKILPPy4cHGYdtBxceb9w4aUUXCYWvcZCcXjFq32nQozZfkvQ==
-----END CERTIFICATE-----
