Certificate:
    Data:
        Version: 3 (0x2)
        Serial Number:
            1d:a2:00:01:00:02:ec:b7:60:80:78:8d:b6:06
    Signature Algorithm: sha1WithRSAEncryption
        Issuer: C=DE, O=TC TrustCenter GmbH, OU=TC TrustCenter Universal CA, CN=TC TrustCenter Universal CA I
        Validity
            Not Before: Mar 22 15:54:28 2006 GMT
            Not After : Dec 31 22:59:59 2025 GMT
        Subject: C=DE, O=TC TrustCenter GmbH, OU=TC TrustCenter Universal CA, CN=TC TrustCenter Universal CA I
        Subject Public Key Info:
            Public Key Algorithm: rsaEncryption
                Public-Key: (2048 bit)
                Modulus:
                    00:a4:77:23:96:44:af:90:f4:31:a7:10:f4:26:87:
                    9c:f3:38:d9:0f:5e:de:cf:41:e8:31:ad:c6:74:91:
                    24:96:78:1e:09:a0:9b:9a:95:4a:4a:f5:62:7c:02:
                    a8:ca:ac:fb:5a:04:76:39:de:5f:f1:f9:b3:bf:f3:
                    03:58:55:d2:aa:b7:e3:04:22:d1:f8:94:da:22:08:
                    00:8d:d3:7c:26:5d:cc:77:79:e7:2c:78:39:a8:26:
                    73:0e:a2:5d:25:69:85:4f:55:0e:9a:ef:c6:b9:44:
                    e1:57:3d:df:1f:54:22:e5:6f:65:aa:33:84:3a:f3:
                    ce:7a:be:55:97:ae:8d:12:0f:14:33:e2:50:70:c3:
                    49:87:13:bc:51:de:d7:98:12:5a:ef:3a:83:33:92:
                    06:75:8b:92:7c:12:68:7b:70:6a:0f:b5:9b:b6:77:
                    5b:48:59:9d:e4:ef:5a:ad:f3:c1:9e:d4:d7:45:4e:
                    ca:56:34:21:bc:3e:17:5b:6f:77:0c:48:01:43:29:
                    b0:dd:3f:96:6e:e6:95:aa:0c:c0:20:b6:fd:3e:36:
                    27:9c:e3:5c:cf:4e:81:dc:19:bb:91:90:7d:ec:e6:
                    97:04:1e:93:cc:22:49:d7:97:86:b6:13:0a:3c:43:
                    23:77:7e:f0:dc:e6:cd:24:1f:3b:83:9b:34:3a:83:
                    34:e3
                Exponent: 65537 (0x10001)
        X509v3 extensions:
            X509v3 Authority Key Identifier: 
                keyid:92:A4:75:2C:A4:9E:BE:81:44:EB:79:FC:8A:C5:95:A5:EB:10:75:73

            X509v3 Basic Constraints: critical
                CA:TRUE
            X509v3 Key Usage: critical
                Digital Signature, Certificate Sign, CRL Sign
            X509v3 Subject Key Identifier: 
                92:A4:75:2C:A4:9E:BE:81:44:EB:79:FC:8A:C5:95:A5:EB:10:75:73
    Signature Algorithm: sha1WithRSAEncryption
         28:d2:e0:86:d5:e6:f8:7b:f0:97:dc:22:6b:3b:95:14:56:0f:
         11:30:a5:9a:4f:3a:b0:3a:e0:06:cb:65:f5:ed:c6:97:27:fe:
         25:f2:57:e6:5e:95:8c:3e:64:60:15:5a:7f:2f:0d:01:c5:b1:
         60:fd:45:35:cf:f0:b2:bf:06:d9:ef:5a:be:b3:62:21:b4:d7:
         ab:35:7c:53:3e:a6:27:f1:a1:2d:da:1a:23:9d:cc:dd:ec:3c:
         2d:9e:27:34:5d:0f:c2:36:79:bc:c9:4a:62:2d:ed:6b:d9:7d:
         41:43:7c:b6:aa:ca:ed:61:b1:37:82:15:09:1a:8a:16:30:d8:
         ec:c9:d6:47:72:78:4b:10:46:14:8e:5f:0e:af:ec:c7:2f:ab:
         10:d7:b6:f1:6e:ec:86:b2:c2:e8:0d:92:73:dc:a2:f4:0f:3a:
         bf:61:23:10:89:9c:48:40:6e:70:00:b3:d3:ba:37:44:58:11:
         7a:02:6a:88:f0:37:34:f0:19:e9:ac:d4:65:73:f6:69:8c:64:
         94:3a:79:85:29:b0:16:2b:0c:82:3f:06:9c:c7:fd:10:2b:9e:
         0f:2c:b6:9e:e3:15:bf:d9:36:1c:ba:25:1a:52:3d:1a:ec:22:
         0c:1c:e0:a4:a2:3d:f0:e8:39:cf:81:c0:7b:ed:5d:1f:6f:c5:
         d0:0b:d7:98
-----BEGIN CERTIFICATE-----
MIID3TCCAsWgAwIBAgIOHaIAAQAC7LdggHiNtgYwDQYJKoZIhvcNAQEFBQAweTEL
MAkGA1UEBhMCREUxHDAaBgNVBAoTE1RDIFRydXN0Q2VudGVyIEdtYkgxJDAiBgNV
BAsTG1RDIFRydXN0Q2VudGVyIFVuaXZlcnNhbCBDQTEmMCQGA1UEAxMdVEMgVHJ1
c3RDZW50ZXIgVW5pdmVyc2FsIENBIEkwHhcNMDYwMzIyMTU1NDI4WhcNMjUxMjMx
MjI1OTU5WjB5MQswCQYDVQQGEwJERTEcMBoGA1UEChMTVEMgVHJ1c3RDZW50ZXIg
R21iSDEkMCIGA1UECxMbVEMgVHJ1c3RDZW50ZXIgVW5pdmVyc2FsIENBMSYwJAYD
VQQDEx1UQyBUcnVzdENlbnRlciBVbml2ZXJzYWwgQ0EgSTCCASIwDQYJKoZIhvcN
AQEBBQADggEPADCCAQoCggEBAKR3I5ZEr5D0MacQ9CaHnPM42Q9e3s9B6DGtxnSR
JJZ4Hgmgm5qVSkr1YnwCqMqs+1oEdjneX/H5s7/zA1hV0qq34wQi0fiU2iIIAI3T
fCZdzHd55yx4Oagmcw6iXSVphU9VDprvxrlE4Vc93x9UIuVvZaozhDrzznq+VZeu
jRIPFDPiUHDDSYcTvFHe15gSWu86gzOSBnWLknwSaHtwag+1m7Z3W0hZneTvWq3z
wZ7U10VOylY0Ibw+F1tvdwxIAUMpsN0/lm7mlaoMwCC2/T42J5zjXM9OgdwZu5GQ
fezmlwQek8wiSdeXhrYTCjxDI3d+8NzmzSQfO4ObNDqDNOMCAwEAAaNjMGEwHwYD
VR0jBBgwFoAUkqR1LKSevoFE63n8isWVpesQdXMwDwYDVR0TAQH/BAUwAwEB/zAO
BgNVHQ8BAf8EBAMCAYYwHQYDVR0OBBYEFJKkdSyknr6BROt5/IrFlaXrEHVzMA0G
CSqGSIb3DQEBBQUAA4IBAQAo0uCG1eb4e/CX3CJrO5UUVg8RMKWaTzqwOuAGy2X1
7caXJ/4l8lfmXpWMPmRgFVp/Lw0BxbFg/UU1z/CyvwbZ71q+s2IhtNerNXxTPqYn
8aEt2hojnczd7Dwtnic0XQ/CNnm8yUpiLe1r2X1BQ3y2qsrtYbE3ghUJGooWMNjs
ydZHcnhLEEYUjl8Or+zHL6sQ17bxbuyGssLoDZJz3KL0Dzq/YSMQiZxIQG5wALPT
ujdEWBF6AmqI8Dc08BnprNRlc/ZpjGSUOnmFKbAWKwyCPwacx/0QK54PLLae4xW/
2TYcuiUaUj0a7CIMHOCkoj3w6DnPgcB77V0fb8XQC9eY
-----END CERTIFICATE-----
