Certificate:
    Data:
        Version: 3 (0x2)
        Serial Number:
            40:05:b2:53:a0:1a:46:43:50:09:81:8f:12:10:76:ec
    Signature Algorithm: sha1WithRSAEncryption
        Issuer: C=ZA, ST=Western Cape, L=Cape Town, O=Thawte Consulting, OU=Certification Services Division, CN=Thawte Personal Premium CA/emailAddress=personal-premium@thawte.com
        Validity
            Not Before: Jan  1 00:00:00 1996 GMT
            Not After : Jan  1 23:59:59 2021 GMT
        Subject: C=ZA, ST=Western Cape, L=Cape Town, O=Thawte Consulting, OU=Certification Services Division, CN=Thawte Personal Premium CA/emailAddress=personal-premium@thawte.com
        Subject Public Key Info:
            Public Key Algorithm: rsaEncryption
                Public-Key: (1024 bit)
                Modulus:
                    00:c9:66:d9:f8:07:44:cf:b9:8c:2e:f0:a1:ef:13:
                    45:6c:05:df:de:27:16:51:36:41:11:6c:6c:3b:ed:
                    fe:10:7d:12:9e:e5:9b:42:9a:fe:60:31:c3:66:b7:
                    73:3a:48:ae:4e:d0:32:37:94:88:b5:0d:b6:d9:f3:
                    f2:44:d9:d5:88:12:dd:76:4d:f2:1a:fc:6f:23:1e:
                    7a:f1:d8:98:45:4e:07:10:ef:16:42:d0:43:75:6d:
                    4a:de:e2:aa:c9:31:ff:1f:00:70:7c:66:cf:10:25:
                    08:ba:fa:ee:00:e9:46:03:66:27:11:15:3b:aa:5b:
                    f2:98:dd:36:42:b2:da:88:75
                Exponent: 65537 (0x10001)
        X509v3 extensions:
            X509v3 Basic Constraints: critical
                CA:TRUE
    Signature Algorithm: sha1WithRSAEncryption
         ba:64:0a:e8:f3:b4:31:c9:27:6f:a2:76:a0:2d:36:71:c7:86:
         c0:08:c2:4e:ed:da:9a:24:19:87:fc:5a:23:9c:72:4d:08:df:
         ad:5c:c3:3b:24:81:1d:57:8f:b6:12:a5:22:03:ef:12:bd:d1:
         2d:5e:96:8f:26:26:4f:4b:1b:7c:3b:a0:52:1a:a5:a8:37:86:
         c4:47:2a:ca:dd:41:f8:68:f5:c2:13:41:29:9a:f0:0c:a8:cd:
         a1:fc:15:23:02:db:7a:2b:d4:62:51:42:47:c4:a3:1f:f4:d2:
         c5:4d:54:10:eb:da:f0:cc:a7:4f:37:0c:bd:3c:cb:10:e3:1a:
         e8:15
-----BEGIN CERTIFICATE-----
MIIDODCCAqGgAwIBAgIQQAWyU6AaRkNQCYGPEhB27DANBgkqhkiG9w0BAQUFADCB
zzELMAkGA1UEBhMCWkExFTATBgNVBAgTDFdlc3Rlcm4gQ2FwZTESMBAGA1UEBxMJ
Q2FwZSBUb3duMRowGAYDVQQKExFUaGF3dGUgQ29uc3VsdGluZzEoMCYGA1UECxMf
Q2VydGlmaWNhdGlvbiBTZXJ2aWNlcyBEaXZpc2lvbjEjMCEGA1UEAxMaVGhhd3Rl
IFBlcnNvbmFsIFByZW1pdW0gQ0ExKjAoBgkqhkiG9w0BCQEWG3BlcnNvbmFsLXBy
ZW1pdW1AdGhhd3RlLmNvbTAeFw05NjAxMDEwMDAwMDBaFw0yMTAxMDEyMzU5NTla
MIHPMQswCQYDVQQGEwJaQTEVMBMGA1UECBMMV2VzdGVybiBDYXBlMRIwEAYDVQQH
EwlDYXBlIFRvd24xGjAYBgNVBAoTEVRoYXd0ZSBDb25zdWx0aW5nMSgwJgYDVQQL
Ex9DZXJ0aWZpY2F0aW9uIFNlcnZpY2VzIERpdmlzaW9uMSMwIQYDVQQDExpUaGF3
dGUgUGVyc29uYWwgUHJlbWl1bSBDQTEqMCgGCSqGSIb3DQEJARYbcGVyc29uYWwt
cHJlbWl1bUB0aGF3dGUuY29tMIGfMA0GCSqGSIb3DQEBAQUAA4GNADCBiQKBgQDJ
Ztn4B0TPuYwu8KHvE0VsBd/eJxZRNkERbGw77f4QfRKe5ZtCmv5gMcNmt3M6SK5O
0DI3lIi1DbbZ8/JE2dWIEt12TfIa/G8jHnrx2JhFTgcQ7xZC0EN1bUre4qrJMf8f
AHB8Zs8QJQi6+u4A6UYDZicRFTuqW/KY3TZCstqIdQIDAQABoxMwETAPBgNVHRMB
Af8EBTADAQH/MA0GCSqGSIb3DQEBBQUAA4GBALpkCujztDHJJ2+idqAtNnHHhsAI
wk7t2pokGYf8WiOcck0I361cwzskgR1Xj7YSpSID7xK90S1elo8mJk9LG3w7oFIa
pag3hsRHKsrdQfho9cITQSma8AyozaH8FSMC23or1GJRQkfEox/00sVNVBDr2vDM
p083DL08yxDjGugV
-----END CERTIFICATE-----
