Certificate:
    Data:
        Version: 3 (0x2)
        Serial Number:
            0d:8e:15:12:e1:ac:bb:77:8d:38:e3:24:df:8c:30:f2
    Signature Algorithm: sha1WithRSAEncryption
        Issuer: C=ZA, ST=Western Cape, L=Cape Town, O=Thawte Consulting, OU=Certification Services Division, CN=Thawte Personal Basic CA/emailAddress=personal-basic@thawte.com
        Validity
            Not Before: Jan  1 00:00:00 1996 GMT
            Not After : Jan  1 23:59:59 2021 GMT
        Subject: C=ZA, ST=Western Cape, L=Cape Town, O=Thawte Consulting, OU=Certification Services Division, CN=Thawte Personal Basic CA/emailAddress=personal-basic@thawte.com
        Subject Public Key Info:
            Public Key Algorithm: rsaEncryption
                Public-Key: (1024 bit)
                Modulus:
                    00:bc:bc:93:53:6d:c0:50:4f:82:15:e6:48:94:35:
                    a6:5a:be:6f:42:fa:0f:47:ee:77:75:72:dd:8d:49:
                    9b:96:57:a0:78:d4:ca:3f:51:b3:69:0b:91:76:17:
                    22:07:97:6a:c4:51:93:4b:e0:8d:ef:37:95:a1:0c:
                    4d:da:34:90:1d:17:89:97:e0:35:38:57:4a:c0:f4:
                    08:70:e9:3c:44:7b:50:7e:61:9a:90:e3:23:d3:88:
                    11:46:27:f5:0b:07:0e:bb:dd:d1:7f:20:0a:88:b9:
                    56:0b:2e:1c:80:da:f1:e3:9e:29:ef:14:bd:0a:44:
                    fb:1b:5b:18:d1:bf:23:93:21
                Exponent: 65537 (0x10001)
        X509v3 extensions:
            X509v3 Basic Constraints: critical
                CA:TRUE
    Signature Algorithm: sha1WithRSAEncryption
         88:3b:fe:b8:f9:7a:42:46:11:a0:a4:a2:64:85:cd:48:1c:9c:
         d5:8a:51:cd:2f:c1:7d:b1:07:cf:d7:01:de:32:3f:96:e4:84:
         fe:d1:5e:ad:0c:7e:0e:63:49:6a:0e:10:e4:97:d0:3f:c5:a7:
         29:d9:a6:53:1e:4b:1e:3f:54:fa:c0:84:35:73:ea:91:a9:dc:
         5d:93:57:05:06:0c:07:b9:af:0b:44:39:88:21:a0:ee:82:73:
         a9:46:2f:69:6c:25:74:a9:cd:df:a7:d7:fd:85:30:04:94:35:
         4a:a7:1b:33:24:2c:44:16:ed:0a:c4:df:80:aa:65:1a:bf:71:
         26:f0
-----BEGIN CERTIFICATE-----
MIIDMDCCApmgAwIBAgIQDY4VEuGsu3eNOOMk34ww8jANBgkqhkiG9w0BAQUFADCB
yzELMAkGA1UEBhMCWkExFTATBgNVBAgTDFdlc3Rlcm4gQ2FwZTESMBAGA1UEBxMJ
Q2FwZSBUb3duMRowGAYDVQQKExFUaGF3dGUgQ29uc3VsdGluZzEoMCYGA1UECxMf
Q2VydGlmaWNhdGlvbiBTZXJ2aWNlcyBEaXZpc2lvbjEhMB8GA1UEAxMYVGhhd3Rl
IFBlcnNvbmFsIEJhc2ljIENBMSgwJgYJKoZIhvcNAQkBFhlwZXJzb25hbC1iYXNp
Y0B0aGF3dGUuY29tMB4XDTk2MDEwMTAwMDAwMFoXDTIxMDEwMTIzNTk1OVowgcsx
CzAJBgNVBAYTAlpBMRUwEwYDVQQIEwxXZXN0ZXJuIENhcGUxEjAQBgNVBAcTCUNh
cGUgVG93bjEaMBgGA1UEChMRVGhhd3RlIENvbnN1bHRpbmcxKDAmBgNVBAsTH0Nl
cnRpZmljYXRpb24gU2VydmljZXMgRGl2aXNpb24xITAfBgNVBAMTGFRoYXd0ZSBQ
ZXJzb25hbCBCYXNpYyBDQTEoMCYGCSqGSIb3DQEJARYZcGVyc29uYWwtYmFzaWNA
dGhhd3RlLmNvbTCBnzANBgkqhkiG9w0BAQEFAAOBjQAwgYkCgYEAvLyTU23AUE+C
FeZIlDWmWr5vQvoPR+53dXLdjUmbllegeNTKP1GzaQuRdhciB5dqxFGTS+CN7zeV
oQxN2jSQHReJl+A1OFdKwPQIcOk8RHtQfmGakOMj04gRRif1CwcOu93RfyAKiLlW
Cy4cgNrx454p7xS9CkT7G1sY0b8jkyECAwEAAaMTMBEwDwYDVR0TAQH/BAUwAwEB
/zANBgkqhkiG9w0BAQUFAAOBgQCIO/64+XpCRhGgpKJkhc1IHJzVilHNL8F9sQfP
1wHeMj+W5IT+0V6tDH4OY0lqDhDkl9A/xacp2aZTHkseP1T6wIQ1c+qRqdxdk1cF
BgwHua8LRDmIIaDugnOpRi9pbCV0qc3fp9f9hTAElDVKpxszJCxEFu0KxN+AqmUa
v3Em8A==
-----END CERTIFICATE-----
