Generated by generate-certs.py.
Refer to generator script docstring for details.
Certificate:
    Data:
        Version: 3 (0x2)
        Serial Number: 1 (0x1)
    Signature Algorithm: sha256WithRSAEncryption
        Issuer: CN=I1
        Validity
            Not Before: Jan  1 12:00:00 2015 GMT
            Not After : Jan  1 12:00:00 2016 GMT
        Subject: CN=C1
        Subject Public Key Info:
            Public Key Algorithm: rsaEncryption
                Public-Key: (2048 bit)
                Modulus:
                    00:ae:71:64:ba:9f:1d:b4:bc:c9:8a:c7:ed:ef:a5:
                    f4:42:5d:c6:db:d5:c9:b0:77:45:83:d1:15:bf:2f:
                    9b:19:a3:7c:fb:fd:70:62:0d:95:a7:bd:58:9f:2c:
                    d5:c5:78:fc:fa:23:e0:97:3d:9d:0c:a1:d9:71:8f:
                    03:28:c7:7c:d1:09:7f:94:90:74:c1:db:c6:ec:ae:
                    da:cd:51:45:20:23:3d:f2:23:f5:f6:53:23:86:b0:
                    16:84:4a:ea:bd:d4:0a:1a:70:91:70:8d:21:06:b9:
                    9e:fc:2f:a2:ad:80:24:b2:06:ed:6b:55:ac:cb:ad:
                    70:44:f1:ed:d4:21:e5:cd:fe:1c:42:e8:79:0e:7d:
                    87:18:08:c1:85:3c:32:f6:ee:96:dc:5a:84:63:90:
                    e3:67:a3:fe:31:52:ec:bc:43:24:86:77:a5:56:a3:
                    4c:fe:39:2f:ed:d2:75:64:53:30:1a:a3:ce:30:cd:
                    f2:7b:13:71:be:b4:80:95:9a:a3:8e:f1:3a:f5:15:
                    65:a8:a3:91:34:12:67:dc:34:cf:25:5d:8f:ef:79:
                    64:49:af:0a:3c:17:89:b5:95:da:85:2b:df:7a:f1:
                    57:1f:0f:b0:c1:bc:e1:5b:4a:86:a7:2e:c8:6b:a3:
                    96:c6:28:29:d6:33:7c:f2:e7:5e:19:09:6c:93:cb:
                    14:cd
                Exponent: 65537 (0x10001)
        X509v3 extensions:
            X509v3 Subject Key Identifier: 
                43:56:C8:D4:66:24:6F:71:A2:C8:6F:A6:A1:0B:0F:53:F2:16:15:5B
            X509v3 Authority Key Identifier: 
                keyid:1B:26:D0:C4:43:00:72:E2:A4:AB:01:D1:A4:68:D5:E5:B2:1E:9C:0D

            Authority Information Access: 
                CA Issuers - URI:http://url-for-aia/I1.cer

            X509v3 CRL Distribution Points: 

                Full Name:
                  URI:http://url-for-crl/I1.crl

            X509v3 Key Usage: critical
                Digital Signature, Key Encipherment
            X509v3 Extended Key Usage: 
                TLS Web Server Authentication, TLS Web Client Authentication
    Signature Algorithm: sha256WithRSAEncryption
         a8:bf:98:c5:72:b4:ae:9e:40:52:42:3c:a5:f9:7c:ff:3f:b2:
         71:f6:59:0c:86:66:02:74:7c:ff:59:a5:07:f8:38:fa:8d:d5:
         de:b7:e0:24:3c:70:f8:54:c9:a3:7e:6d:85:86:bf:54:0f:6f:
         c3:e9:c5:77:dc:42:b6:ad:97:f8:c0:1d:3f:ef:24:92:9f:d4:
         50:bc:0f:d0:82:03:f7:a3:60:b9:12:70:d7:61:25:65:c4:75:
         ca:17:15:c5:a6:54:7b:16:5a:3f:0d:55:72:61:16:0c:90:f3:
         77:2a:62:4a:a1:5c:09:c4:3c:4a:4f:dd:85:bc:ac:c6:6a:cb:
         07:0b:15:a5:50:15:05:b9:99:95:54:3f:3a:a2:a0:42:fe:8a:
         f6:9f:1b:c7:fc:9d:f2:0f:6e:c2:f6:a9:37:7a:27:8b:25:52:
         45:0e:aa:d5:ad:02:b0:a6:2e:a9:91:8b:6d:22:5a:e4:2a:91:
         1f:0d:f6:c0:88:8e:29:dc:b0:9e:26:8e:18:61:f0:42:bd:9e:
         73:75:f2:48:17:aa:ff:34:9b:38:d4:72:60:e9:38:f8:af:18:
         1c:a0:88:e3:25:cf:c6:22:2f:bf:1c:77:b6:b3:1e:88:d2:17:
         1f:f9:18:31:25:f9:4f:36:e1:51:e8:30:a2:42:f9:9e:cb:35:
         87:30:ce:68
-----BEGIN CERTIFICATE-----
MIIDazCCAlOgAwIBAgIBATANBgkqhkiG9w0BAQsFADANMQswCQYDVQQDDAJJMTAe
Fw0xNTAxMDExMjAwMDBaFw0xNjAxMDExMjAwMDBaMA0xCzAJBgNVBAMMAkMxMIIB
IjANBgkqhkiG9w0BAQEFAAOCAQ8AMIIBCgKCAQEArnFkup8dtLzJisft76X0Ql3G
29XJsHdFg9EVvy+bGaN8+/1wYg2Vp71YnyzVxXj8+iPglz2dDKHZcY8DKMd80Ql/
lJB0wdvG7K7azVFFICM98iP19lMjhrAWhErqvdQKGnCRcI0hBrme/C+irYAksgbt
a1Wsy61wRPHt1CHlzf4cQuh5Dn2HGAjBhTwy9u6W3FqEY5DjZ6P+MVLsvEMkhnel
VqNM/jkv7dJ1ZFMwGqPOMM3yexNxvrSAlZqjjvE69RVlqKORNBJn3DTPJV2P73lk
Sa8KPBeJtZXahSvfevFXHw+wwbzhW0qGpy7Ia6OWxigp1jN88udeGQlsk8sUzQID
AQABo4HVMIHSMB0GA1UdDgQWBBRDVsjUZiRvcaLIb6ahCw9T8hYVWzAfBgNVHSME
GDAWgBQbJtDEQwBy4qSrAdGkaNXlsh6cDTA1BggrBgEFBQcBAQQpMCcwJQYIKwYB
BQUHMAKGGWh0dHA6Ly91cmwtZm9yLWFpYS9JMS5jZXIwKgYDVR0fBCMwITAfoB2g
G4YZaHR0cDovL3VybC1mb3ItY3JsL0kxLmNybDAOBgNVHQ8BAf8EBAMCBaAwHQYD
VR0lBBYwFAYIKwYBBQUHAwEGCCsGAQUFBwMCMA0GCSqGSIb3DQEBCwUAA4IBAQCo
v5jFcrSunkBSQjyl+Xz/P7Jx9lkMhmYCdHz/WaUH+Dj6jdXet+AkPHD4VMmjfm2F
hr9UD2/D6cV33EK2rZf4wB0/7ySSn9RQvA/QggP3o2C5EnDXYSVlxHXKFxXFplR7
Flo/DVVyYRYMkPN3KmJKoVwJxDxKT92FvKzGassHCxWlUBUFuZmVVD86oqBC/or2
nxvH/J3yD27C9qk3eieLJVJFDqrVrQKwpi6pkYttIlrkKpEfDfbAiI4p3LCeJo4Y
YfBCvZ5zdfJIF6r/NJs41HJg6Tj4rxgcoIjjJc/GIi+/HHe2sx6I0hcf+RgxJflP
NuFR6DCiQvmeyzWHMM5o
-----END CERTIFICATE-----
