Generated by generate-certs.py.
Refer to generator script docstring for details.
Certificate:
    Data:
        Version: 3 (0x2)
        Serial Number: 1 (0x1)
    Signature Algorithm: sha256WithRSAEncryption
        Issuer: CN=i1
        Validity
            Not Before: Jan  1 12:00:00 2015 GMT
            Not After : Jan  1 12:00:00 2016 GMT
        Subject: CN=C2
        Subject Public Key Info:
            Public Key Algorithm: rsaEncryption
                Public-Key: (2048 bit)
                Modulus:
                    00:b9:9e:f6:53:ca:8c:31:b4:0a:6a:26:23:11:03:
                    cc:e1:e3:93:9e:d8:76:52:89:2f:0c:42:15:21:c0:
                    d9:bc:16:ea:6e:bc:39:c0:2f:62:8a:35:c9:95:71:
                    4d:a3:45:ac:7f:b3:7e:ec:fa:ac:f3:e8:bf:66:02:
                    1a:b1:bd:ce:79:17:6a:19:12:96:eb:b1:9d:dd:e3:
                    1c:69:15:e1:f6:34:ed:ba:4d:af:0a:50:03:43:2f:
                    9d:7c:8e:79:fa:92:13:2d:73:16:a8:de:72:c2:61:
                    19:54:4b:01:2f:5c:a1:77:fc:f7:82:0b:aa:cb:8f:
                    55:0d:19:d8:ab:2c:af:35:b4:f7:eb:52:26:97:5e:
                    5b:00:f3:a8:12:fa:ce:0d:0d:56:cd:15:1c:7a:67:
                    82:9f:b3:fb:5f:05:9c:b7:9f:35:66:3b:18:93:b8:
                    2d:1d:47:9b:4b:5e:f3:20:6f:83:c7:5d:91:d2:2b:
                    19:9d:a9:f3:46:ff:93:eb:3f:fb:5b:40:a0:8d:5d:
                    ab:a5:de:d1:02:d4:6b:3e:1a:24:5c:86:a2:ec:9d:
                    50:1b:c3:92:22:27:5f:a7:79:5b:40:97:cc:ca:10:
                    ff:ed:06:2a:51:11:e5:cb:b1:0a:82:84:92:2f:00:
                    10:6d:19:af:db:66:53:8d:f7:10:b3:bc:4a:52:83:
                    eb:b1
                Exponent: 65537 (0x10001)
        X509v3 extensions:
            X509v3 Subject Key Identifier: 
                37:6E:35:3A:24:04:92:08:FF:D2:5F:88:1F:86:C1:9C:95:A9:0D:72
            X509v3 Authority Key Identifier: 
                keyid:E3:AC:1D:35:9E:1C:CC:C6:29:9F:37:59:41:C6:DA:C9:44:2C:B2:F3

            Authority Information Access: 
                CA Issuers - URI:http://url-for-aia/i1.cer

            X509v3 CRL Distribution Points: 

                Full Name:
                  URI:http://url-for-crl/i1.crl

            X509v3 Key Usage: critical
                Digital Signature, Key Encipherment
            X509v3 Extended Key Usage: 
                TLS Web Server Authentication, TLS Web Client Authentication
    Signature Algorithm: sha256WithRSAEncryption
         77:74:20:c3:57:de:ed:a9:59:2c:f2:c8:d2:19:28:ab:c6:4f:
         c5:49:80:be:ed:64:43:2e:74:4a:ec:87:90:9e:d2:03:23:3f:
         1f:de:18:7e:9e:20:62:f9:0f:b6:b7:2d:97:61:60:f6:c2:31:
         fc:20:9b:d5:b5:cc:3b:47:6f:4c:77:7b:17:99:71:cc:86:46:
         0f:6c:a9:33:3c:82:16:2b:f8:2b:b1:58:6b:44:d7:61:42:30:
         fc:e8:ea:ef:47:b0:63:c3:41:30:02:6d:0a:d5:af:0c:54:d1:
         a9:3f:d7:e4:98:77:f9:16:d4:81:87:ff:80:69:29:a4:0b:9d:
         61:c1:28:e9:0a:9e:76:5a:78:0e:a1:03:86:a9:88:81:76:94:
         93:ac:64:5d:7f:51:d3:68:3e:61:33:19:cd:f7:50:c3:c8:42:
         60:85:21:44:98:9e:23:97:4d:21:d1:14:a2:9a:b3:99:1c:fb:
         7e:92:1c:10:99:e6:01:e7:38:aa:c2:6d:8a:d3:1a:b7:56:cc:
         81:86:31:53:5b:4d:0c:15:a4:f1:0f:cd:9a:ee:5f:ec:b8:12:
         20:36:eb:1b:8b:b5:82:3e:43:7e:24:43:8e:d5:1a:9e:5c:41:
         0b:50:c8:1c:aa:8c:4e:69:91:3e:11:94:35:9c:3b:c3:bd:1a:
         0b:dd:a9:aa
-----BEGIN CERTIFICATE-----
MIIDazCCAlOgAwIBAgIBATANBgkqhkiG9w0BAQsFADANMQswCQYDVQQDDAJpMTAe
Fw0xNTAxMDExMjAwMDBaFw0xNjAxMDExMjAwMDBaMA0xCzAJBgNVBAMMAkMyMIIB
IjANBgkqhkiG9w0BAQEFAAOCAQ8AMIIBCgKCAQEAuZ72U8qMMbQKaiYjEQPM4eOT
nth2UokvDEIVIcDZvBbqbrw5wC9iijXJlXFNo0Wsf7N+7Pqs8+i/ZgIasb3OeRdq
GRKW67Gd3eMcaRXh9jTtuk2vClADQy+dfI55+pITLXMWqN5ywmEZVEsBL1yhd/z3
gguqy49VDRnYqyyvNbT361Iml15bAPOoEvrODQ1WzRUcemeCn7P7XwWct581ZjsY
k7gtHUebS17zIG+Dx12R0isZnanzRv+T6z/7W0CgjV2rpd7RAtRrPhokXIai7J1Q
G8OSIidfp3lbQJfMyhD/7QYqURHly7EKgoSSLwAQbRmv22ZTjfcQs7xKUoPrsQID
AQABo4HVMIHSMB0GA1UdDgQWBBQ3bjU6JASSCP/SX4gfhsGclakNcjAfBgNVHSME
GDAWgBTjrB01nhzMximfN1lBxtrJRCyy8zA1BggrBgEFBQcBAQQpMCcwJQYIKwYB
BQUHMAKGGWh0dHA6Ly91cmwtZm9yLWFpYS9pMS5jZXIwKgYDVR0fBCMwITAfoB2g
G4YZaHR0cDovL3VybC1mb3ItY3JsL2kxLmNybDAOBgNVHQ8BAf8EBAMCBaAwHQYD
VR0lBBYwFAYIKwYBBQUHAwEGCCsGAQUFBwMCMA0GCSqGSIb3DQEBCwUAA4IBAQB3
dCDDV97tqVks8sjSGSirxk/FSYC+7WRDLnRK7IeQntIDIz8f3hh+niBi+Q+2ty2X
YWD2wjH8IJvVtcw7R29Md3sXmXHMhkYPbKkzPIIWK/grsVhrRNdhQjD86OrvR7Bj
w0EwAm0K1a8MVNGpP9fkmHf5FtSBh/+AaSmkC51hwSjpCp52WngOoQOGqYiBdpST
rGRdf1HTaD5hMxnN91DDyEJghSFEmJ4jl00h0RSimrOZHPt+khwQmeYB5ziqwm2K
0xq3VsyBhjFTW00MFaTxD82a7l/suBIgNusbi7WCPkN+JEOO1RqeXEELUMgcqoxO
aZE+EZQ1nDvDvRoL3amq
-----END CERTIFICATE-----
