Generated by generate-certs.py.
Refer to generator script docstring for details.
Certificate:
    Data:
        Version: 3 (0x2)
        Serial Number: 1 (0x1)
    Signature Algorithm: sha256WithRSAEncryption
        Issuer: CN=I2
        Validity
            Not Before: Jan  1 12:00:00 2015 GMT
            Not After : Jan  1 12:00:00 2016 GMT
        Subject: CN=D
        Subject Public Key Info:
            Public Key Algorithm: rsaEncryption
                Public-Key: (2048 bit)
                Modulus:
                    00:c2:ae:07:4a:35:ce:ea:26:bf:b9:d4:ac:b8:c2:
                    4b:40:c7:99:e2:52:d5:24:8a:83:1a:31:fd:dd:b4:
                    ec:b9:8a:90:67:d9:7f:d3:ea:7f:8a:96:d6:ab:a5:
                    e8:ee:59:61:6d:f3:7f:26:14:82:19:90:f4:65:21:
                    68:22:45:58:5a:2e:d4:94:31:a7:13:2c:27:0f:07:
                    26:9a:77:dc:47:9a:d7:04:18:94:bd:09:e3:fc:fa:
                    ef:44:61:f0:b6:c6:65:37:95:8e:c5:67:86:7f:cc:
                    58:e7:e8:43:de:ee:cb:de:ad:68:00:95:f4:cd:21:
                    e7:db:33:09:c1:6d:6b:53:eb:8d:f3:53:cc:7a:a3:
                    f0:86:bb:0f:2c:3f:94:11:d5:dd:52:44:96:c1:97:
                    4a:d3:ca:48:40:b5:67:95:3d:c6:58:44:ac:6d:a3:
                    2f:a4:60:eb:72:48:b8:1d:cb:3d:6b:0a:b0:bf:3d:
                    42:68:cc:7d:29:78:29:9e:3d:ec:16:ae:84:98:31:
                    fe:ce:b2:b5:f7:ac:89:e8:df:c7:f1:ad:86:38:22:
                    fc:24:66:56:cc:5f:09:d8:23:eb:d2:67:96:b1:67:
                    de:f6:ae:bb:8e:db:88:a9:39:fc:9c:82:35:8b:b8:
                    49:54:b4:5f:78:5b:94:c3:4f:9f:bc:bf:0b:06:fc:
                    04:65
                Exponent: 65537 (0x10001)
        X509v3 extensions:
            X509v3 Subject Key Identifier: 
                D1:6E:9D:B4:88:56:98:C2:B2:A3:45:F5:95:3E:49:A0:70:45:13:EA
            X509v3 Authority Key Identifier: 
                keyid:3C:E2:AD:12:A1:C0:96:C8:53:4A:6B:B2:49:5C:5A:A6:1E:A9:19:EC

            Authority Information Access: 
                CA Issuers - URI:http://url-for-aia/I2.cer

            X509v3 CRL Distribution Points: 

                Full Name:
                  URI:http://url-for-crl/I2.crl

            X509v3 Key Usage: critical
                Digital Signature, Key Encipherment
            X509v3 Extended Key Usage: 
                TLS Web Server Authentication, TLS Web Client Authentication
    Signature Algorithm: sha256WithRSAEncryption
         36:b1:65:08:c1:02:03:41:4e:6f:94:df:7a:70:d9:e0:a2:53:
         81:3c:6e:c0:91:2d:c7:73:5d:3f:69:f6:da:93:65:1b:01:c1:
         a1:5a:ac:d4:0b:0b:0a:22:b3:56:ad:dc:f0:f3:3c:63:21:3d:
         ad:f2:d3:71:d7:26:71:b6:a8:02:a0:e0:bb:f4:27:39:93:f6:
         78:d7:fb:1c:ad:9c:ff:48:b0:a6:00:cd:4c:ce:87:45:2b:19:
         15:6c:89:45:46:bc:7b:4b:0a:d0:11:ae:fd:cb:30:b7:15:1c:
         37:96:f2:0d:86:99:24:a9:01:bc:f9:7f:1b:73:b9:15:c3:c8:
         ba:25:fc:c7:96:ee:83:b7:39:c3:f0:d8:80:90:58:a8:15:bf:
         dd:16:bf:62:83:a0:a3:5d:0f:38:0b:78:0b:4a:83:17:88:67:
         20:ca:70:f8:a2:26:89:15:aa:21:8a:b4:ac:7e:29:49:a8:2a:
         8f:72:65:7c:06:6b:a9:d8:f3:c8:3c:b6:03:27:e3:61:ea:3a:
         51:cd:e4:5c:7f:69:9f:9a:c2:f3:c0:0f:16:5a:99:92:c5:1f:
         cd:c1:9f:7e:03:18:e3:4f:65:be:56:38:26:2a:f5:18:68:57:
         9f:84:f9:87:f3:9c:34:04:a4:5b:0f:53:4f:5c:ad:c4:6f:5c:
         06:2b:c4:15
-----BEGIN CERTIFICATE-----
MIIDajCCAlKgAwIBAgIBATANBgkqhkiG9w0BAQsFADANMQswCQYDVQQDDAJJMjAe
Fw0xNTAxMDExMjAwMDBaFw0xNjAxMDExMjAwMDBaMAwxCjAIBgNVBAMMAUQwggEi
MA0GCSqGSIb3DQEBAQUAA4IBDwAwggEKAoIBAQDCrgdKNc7qJr+51Ky4wktAx5ni
UtUkioMaMf3dtOy5ipBn2X/T6n+KltarpejuWWFt838mFIIZkPRlIWgiRVhaLtSU
MacTLCcPByaad9xHmtcEGJS9CeP8+u9EYfC2xmU3lY7FZ4Z/zFjn6EPe7sverWgA
lfTNIefbMwnBbWtT643zU8x6o/CGuw8sP5QR1d1SRJbBl0rTykhAtWeVPcZYRKxt
oy+kYOtySLgdyz1rCrC/PUJozH0peCmePewWroSYMf7OsrX3rIno38fxrYY4Ivwk
ZlbMXwnYI+vSZ5axZ972rruO24ipOfycgjWLuElUtF94W5TDT5+8vwsG/ARlAgMB
AAGjgdUwgdIwHQYDVR0OBBYEFNFunbSIVpjCsqNF9ZU+SaBwRRPqMB8GA1UdIwQY
MBaAFDzirRKhwJbIU0prsklcWqYeqRnsMDUGCCsGAQUFBwEBBCkwJzAlBggrBgEF
BQcwAoYZaHR0cDovL3VybC1mb3ItYWlhL0kyLmNlcjAqBgNVHR8EIzAhMB+gHaAb
hhlodHRwOi8vdXJsLWZvci1jcmwvSTIuY3JsMA4GA1UdDwEB/wQEAwIFoDAdBgNV
HSUEFjAUBggrBgEFBQcDAQYIKwYBBQUHAwIwDQYJKoZIhvcNAQELBQADggEBADax
ZQjBAgNBTm+U33pw2eCiU4E8bsCRLcdzXT9p9tqTZRsBwaFarNQLCwois1at3PDz
PGMhPa3y03HXJnG2qAKg4Lv0JzmT9njX+xytnP9IsKYAzUzOh0UrGRVsiUVGvHtL
CtARrv3LMLcVHDeW8g2GmSSpAbz5fxtzuRXDyLol/MeW7oO3OcPw2ICQWKgVv90W
v2KDoKNdDzgLeAtKgxeIZyDKcPiiJokVqiGKtKx+KUmoKo9yZXwGa6nY88g8tgMn
42HqOlHN5Fx/aZ+awvPADxZamZLFH83Bn34DGONPZb5WOCYq9RhoV5+E+YfznDQE
pFsPU09crcRvXAYrxBU=
-----END CERTIFICATE-----
