Generated by generate-certs.py.
Refer to generator script docstring for details.
Certificate:
    Data:
        Version: 3 (0x2)
        Serial Number: 1 (0x1)
    Signature Algorithm: sha256WithRSAEncryption
        Issuer: CN=I3
        Validity
            Not Before: Jan  1 12:00:00 2015 GMT
            Not After : Jan  1 12:00:00 2016 GMT
        Subject: CN=E1
        Subject Public Key Info:
            Public Key Algorithm: rsaEncryption
                Public-Key: (2048 bit)
                Modulus:
                    00:ae:91:6b:78:fb:33:11:82:bb:52:ce:22:b5:28:
                    a4:c1:bb:17:65:49:6f:85:08:98:3f:2b:e1:b6:d5:
                    43:42:5c:9f:30:b5:91:9c:28:6a:66:13:62:b2:cf:
                    01:90:1b:0c:c6:58:81:9b:78:f6:77:12:e2:1a:32:
                    9f:a9:f3:d0:59:56:95:8b:bf:6b:b8:39:d5:77:04:
                    46:66:49:dd:1e:65:11:8d:51:a7:b5:25:d1:d0:25:
                    73:00:27:98:3a:02:31:90:86:cf:a8:53:dd:10:fc:
                    a5:f6:29:85:cd:ea:c9:d9:08:7b:58:87:c3:6a:72:
                    f2:17:7d:e7:e2:be:f7:88:c8:79:b5:29:43:2e:9a:
                    e8:3c:e0:0b:42:47:c2:0e:3e:b1:6f:2e:a9:78:f0:
                    33:0c:b1:b9:67:3c:3f:ac:47:14:33:1d:2a:5a:37:
                    7d:24:7f:ca:a7:4d:7c:a9:28:82:86:3b:ab:6f:d2:
                    65:6e:e3:cc:f6:7a:96:65:81:7c:e9:8d:64:46:45:
                    46:fc:f4:9f:6f:67:f8:9a:2b:df:cc:a9:3a:de:31:
                    13:a9:08:99:d1:fd:44:99:be:28:cd:74:bc:84:58:
                    f5:d9:df:bd:f5:2b:a9:bb:ec:f3:50:e2:75:bb:19:
                    da:d4:f9:89:55:0f:33:1f:5e:ec:48:1d:e0:91:2d:
                    83:a1
                Exponent: 65537 (0x10001)
        X509v3 extensions:
            X509v3 Subject Key Identifier: 
                7B:31:A7:9B:6B:7F:0F:2F:2E:F1:FC:54:09:FB:1A:5F:66:8D:EC:8E
            X509v3 Authority Key Identifier: 
                keyid:02:D2:01:6B:5B:63:DC:4E:54:01:08:CD:A7:27:A0:85:29:78:E1:D3

            Authority Information Access: 
                CA Issuers - URI:http://url-for-aia/I3.cer

            X509v3 CRL Distribution Points: 

                Full Name:
                  URI:http://url-for-crl/I3.crl

            X509v3 Key Usage: critical
                Digital Signature, Key Encipherment
            X509v3 Extended Key Usage: 
                TLS Web Server Authentication, TLS Web Client Authentication
    Signature Algorithm: sha256WithRSAEncryption
         91:1b:ee:94:8b:1b:b9:a4:80:55:9f:83:f3:ee:a2:82:db:71:
         df:53:39:07:05:61:7f:37:07:f9:f0:12:66:ef:28:a1:ac:8a:
         84:9f:3f:4f:6b:35:f3:53:a5:6d:24:4f:cb:a7:47:83:72:f2:
         e8:05:0f:7e:c2:f1:d1:89:c4:a0:70:13:97:d4:3e:56:0b:4a:
         b9:45:63:d1:0a:64:d8:6b:72:4f:e3:52:d5:f3:c2:23:a3:ec:
         bb:4f:c4:4d:eb:f5:5c:bd:6e:91:17:cb:93:9a:cb:34:44:88:
         9f:3f:bc:ce:36:44:0a:c9:cc:e3:64:c2:20:60:9c:f8:f8:ab:
         9d:b2:c6:93:0c:bf:57:03:ff:d4:8a:ed:b2:ed:36:18:cc:ad:
         77:59:fc:42:18:a6:5d:d5:0c:5d:01:3c:86:28:83:ac:b5:bd:
         c8:f3:05:99:56:7a:b3:19:c9:bb:06:a5:a2:b4:b6:a4:84:0d:
         32:ec:31:de:32:86:ef:ed:b1:c3:6b:33:c3:98:db:12:78:2e:
         eb:ad:3f:20:04:b1:1b:74:0c:79:e8:f8:73:2f:80:f3:f0:0d:
         27:35:19:ca:62:ae:fc:50:b4:39:11:99:8a:1b:57:54:9e:d3:
         59:45:ee:bf:9a:54:8c:f9:28:9b:69:e8:0d:8f:1e:d2:9f:31:
         c3:9d:05:91
-----BEGIN CERTIFICATE-----
MIIDazCCAlOgAwIBAgIBATANBgkqhkiG9w0BAQsFADANMQswCQYDVQQDDAJJMzAe
Fw0xNTAxMDExMjAwMDBaFw0xNjAxMDExMjAwMDBaMA0xCzAJBgNVBAMMAkUxMIIB
IjANBgkqhkiG9w0BAQEFAAOCAQ8AMIIBCgKCAQEArpFrePszEYK7Us4itSikwbsX
ZUlvhQiYPyvhttVDQlyfMLWRnChqZhNiss8BkBsMxliBm3j2dxLiGjKfqfPQWVaV
i79ruDnVdwRGZkndHmURjVGntSXR0CVzACeYOgIxkIbPqFPdEPyl9imFzerJ2Qh7
WIfDanLyF33n4r73iMh5tSlDLproPOALQkfCDj6xby6pePAzDLG5Zzw/rEcUMx0q
Wjd9JH/Kp018qSiChjurb9JlbuPM9nqWZYF86Y1kRkVG/PSfb2f4mivfzKk63jET
qQiZ0f1Emb4ozXS8hFj12d+99Supu+zzUOJ1uxna1PmJVQ8zH17sSB3gkS2DoQID
AQABo4HVMIHSMB0GA1UdDgQWBBR7Maeba38PLy7x/FQJ+xpfZo3sjjAfBgNVHSME
GDAWgBQC0gFrW2PcTlQBCM2nJ6CFKXjh0zA1BggrBgEFBQcBAQQpMCcwJQYIKwYB
BQUHMAKGGWh0dHA6Ly91cmwtZm9yLWFpYS9JMy5jZXIwKgYDVR0fBCMwITAfoB2g
G4YZaHR0cDovL3VybC1mb3ItY3JsL0kzLmNybDAOBgNVHQ8BAf8EBAMCBaAwHQYD
VR0lBBYwFAYIKwYBBQUHAwEGCCsGAQUFBwMCMA0GCSqGSIb3DQEBCwUAA4IBAQCR
G+6Uixu5pIBVn4Pz7qKC23HfUzkHBWF/Nwf58BJm7yihrIqEnz9PazXzU6VtJE/L
p0eDcvLoBQ9+wvHRicSgcBOX1D5WC0q5RWPRCmTYa3JP41LV88Ijo+y7T8RN6/Vc
vW6RF8uTmss0RIifP7zONkQKyczjZMIgYJz4+KudssaTDL9XA//Uiu2y7TYYzK13
WfxCGKZd1QxdATyGKIOstb3I8wWZVnqzGcm7BqWitLakhA0y7DHeMobv7bHDazPD
mNsSeC7rrT8gBLEbdAx56PhzL4Dz8A0nNRnKYq78ULQ5EZmKG1dUntNZRe6/mlSM
+SibaegNjx7SnzHDnQWR
-----END CERTIFICATE-----
