Generated by generate-certs.py.
Refer to generator script docstring for details.
Certificate:
    Data:
        Version: 3 (0x2)
        Serial Number: 2 (0x2)
    Signature Algorithm: sha256WithRSAEncryption
        Issuer: CN=I3
        Validity
            Not Before: Jan  1 12:00:00 2015 GMT
            Not After : Jan  1 12:00:00 2016 GMT
        Subject: CN=E2
        Subject Public Key Info:
            Public Key Algorithm: rsaEncryption
                Public-Key: (2048 bit)
                Modulus:
                    00:cd:3f:ae:a0:40:34:21:a1:4f:e4:72:59:5f:97:
                    23:a3:bd:f1:64:c4:c5:9d:73:a6:61:bb:68:12:30:
                    97:33:a1:86:4a:a3:bc:e7:9e:43:3a:de:be:06:16:
                    6e:c0:5c:fa:9e:e4:ed:b9:43:1a:e2:58:0c:b9:92:
                    8f:c3:d3:2b:59:c4:92:c0:32:db:3b:40:3f:b5:5a:
                    21:a4:72:18:fa:79:ae:8b:9e:2a:2d:f0:ed:20:0b:
                    a0:72:af:8c:01:ff:f3:13:83:4d:8a:14:7e:67:4e:
                    f7:52:40:f1:e9:69:b8:46:51:5b:1f:e9:3e:34:f0:
                    87:9a:f2:a4:c4:24:34:ca:b9:52:f4:8b:4b:16:bd:
                    db:be:27:1d:1e:32:71:7c:a3:2c:8a:e5:44:d0:31:
                    21:39:fc:56:e6:c7:bd:2f:36:f7:ef:b4:36:3e:a2:
                    35:2e:65:3b:4a:ac:30:ae:47:57:49:58:e4:f1:e6:
                    43:53:d4:ec:cf:3a:46:ed:19:00:9f:d9:fa:e2:08:
                    ca:20:93:d7:11:36:4a:91:89:34:d0:c7:11:11:99:
                    4d:3f:8d:c7:e3:9a:90:57:ee:0f:2b:a0:ea:c7:54:
                    74:1b:39:71:2e:6b:4a:c4:bc:79:0c:2b:cb:15:30:
                    06:e8:ac:8a:74:d3:46:72:82:ff:5a:bc:52:a2:a6:
                    e6:f3
                Exponent: 65537 (0x10001)
        X509v3 extensions:
            X509v3 Subject Key Identifier: 
                EF:94:D6:BF:45:A2:19:EC:07:A8:F7:DC:48:48:D0:A3:9C:FE:C8:84
            X509v3 Authority Key Identifier: 
                keyid:40:F8:36:2C:4C:E3:28:99:C2:3E:78:F2:EA:68:AB:4F:01:7C:FC:28

            Authority Information Access: 
                CA Issuers - URI:http://url-for-aia/I3.cer

            X509v3 CRL Distribution Points: 

                Full Name:
                  URI:http://url-for-crl/I3.crl

            X509v3 Key Usage: critical
                Digital Signature, Key Encipherment
            X509v3 Extended Key Usage: 
                TLS Web Server Authentication, TLS Web Client Authentication
    Signature Algorithm: sha256WithRSAEncryption
         48:7a:ea:12:b8:8e:de:f7:bc:bd:1a:67:8e:0a:b3:0e:90:a1:
         ff:29:25:36:4f:9d:db:8c:83:91:67:b6:fe:bd:30:e0:ca:f6:
         d9:e3:cb:6e:80:08:4a:a7:d3:fa:51:4f:e8:05:3c:ae:31:5c:
         fe:3f:0f:1e:18:21:fc:cf:b3:27:65:53:92:5f:e4:20:4a:b9:
         08:41:04:1e:a2:7d:81:47:6c:ff:4d:1b:c7:3a:d4:32:84:5d:
         9b:35:1a:37:d6:41:fc:00:6e:bf:20:e5:bb:81:d2:b2:16:3b:
         e9:38:7a:ca:48:91:66:51:70:db:f9:b4:b8:84:ce:9f:0e:e5:
         22:58:cb:dc:7f:1e:a9:51:be:cb:d0:d1:9c:ce:2a:8b:c1:bf:
         39:24:38:a6:d4:63:06:ba:27:89:04:d9:a9:6a:c4:01:c9:a1:
         de:94:be:02:2c:80:f3:b2:60:4b:02:47:c5:bc:4e:8f:12:99:
         b3:10:68:63:ed:27:56:64:0d:66:67:54:28:18:f4:4d:0b:52:
         69:b2:c4:39:04:f1:91:17:db:01:80:14:7f:30:33:1d:5a:b4:
         b0:e1:40:9c:b4:5b:da:bf:5c:e5:04:e4:67:11:33:e7:19:4c:
         78:76:ed:3c:66:72:9f:07:8c:78:db:33:60:1d:88:d1:1c:a6:
         39:01:f0:63
-----BEGIN CERTIFICATE-----
MIIDazCCAlOgAwIBAgIBAjANBgkqhkiG9w0BAQsFADANMQswCQYDVQQDDAJJMzAe
Fw0xNTAxMDExMjAwMDBaFw0xNjAxMDExMjAwMDBaMA0xCzAJBgNVBAMMAkUyMIIB
IjANBgkqhkiG9w0BAQEFAAOCAQ8AMIIBCgKCAQEAzT+uoEA0IaFP5HJZX5cjo73x
ZMTFnXOmYbtoEjCXM6GGSqO8555DOt6+BhZuwFz6nuTtuUMa4lgMuZKPw9MrWcSS
wDLbO0A/tVohpHIY+nmui54qLfDtIAugcq+MAf/zE4NNihR+Z073UkDx6Wm4RlFb
H+k+NPCHmvKkxCQ0yrlS9ItLFr3bvicdHjJxfKMsiuVE0DEhOfxW5se9Lzb377Q2
PqI1LmU7SqwwrkdXSVjk8eZDU9TszzpG7RkAn9n64gjKIJPXETZKkYk00McREZlN
P43H45qQV+4PK6Dqx1R0GzlxLmtKxLx5DCvLFTAG6KyKdNNGcoL/WrxSoqbm8wID
AQABo4HVMIHSMB0GA1UdDgQWBBTvlNa/RaIZ7Aeo99xISNCjnP7IhDAfBgNVHSME
GDAWgBRA+DYsTOMomcI+ePLqaKtPAXz8KDA1BggrBgEFBQcBAQQpMCcwJQYIKwYB
BQUHMAKGGWh0dHA6Ly91cmwtZm9yLWFpYS9JMy5jZXIwKgYDVR0fBCMwITAfoB2g
G4YZaHR0cDovL3VybC1mb3ItY3JsL0kzLmNybDAOBgNVHQ8BAf8EBAMCBaAwHQYD
VR0lBBYwFAYIKwYBBQUHAwEGCCsGAQUFBwMCMA0GCSqGSIb3DQEBCwUAA4IBAQBI
euoSuI7e97y9GmeOCrMOkKH/KSU2T53bjIORZ7b+vTDgyvbZ48tugAhKp9P6UU/o
BTyuMVz+Pw8eGCH8z7MnZVOSX+QgSrkIQQQeon2BR2z/TRvHOtQyhF2bNRo31kH8
AG6/IOW7gdKyFjvpOHrKSJFmUXDb+bS4hM6fDuUiWMvcfx6pUb7L0NGcziqLwb85
JDim1GMGuieJBNmpasQByaHelL4CLIDzsmBLAkfFvE6PEpmzEGhj7SdWZA1mZ1Qo
GPRNC1JpssQ5BPGRF9sBgBR/MDMdWrSw4UCctFvav1zlBORnETPnGUx4du08ZnKf
B4x42zNgHYjRHKY5AfBj
-----END CERTIFICATE-----
