Generated by generate-certs.py.
Refer to generator script docstring for details.
Certificate:
    Data:
        Version: 3 (0x2)
        Serial Number: 2 (0x2)
    Signature Algorithm: sha256WithRSAEncryption
        Issuer: CN=Root
        Validity
            Not Before: Jan  1 12:00:00 2015 GMT
            Not After : Jan  1 12:00:00 2016 GMT
        Subject: CN=I1
        Subject Public Key Info:
            Public Key Algorithm: rsaEncryption
                Public-Key: (2048 bit)
                Modulus:
                    00:b4:6e:db:61:6f:ec:1f:d1:6e:3d:fa:12:27:3b:
                    8c:f7:8c:c7:a7:7d:0d:5e:b5:2a:02:8d:97:29:9b:
                    7a:64:bd:0d:56:9b:1f:6e:71:ab:d3:af:10:37:90:
                    2b:3a:f0:ee:55:43:fd:50:ea:46:c9:d8:2a:a7:68:
                    7a:10:74:a1:cb:fc:b5:c4:b6:ee:67:b4:8b:f5:8d:
                    12:b5:3c:d9:0c:ab:e5:37:72:19:be:b2:9f:b9:65:
                    78:c1:d1:4e:88:86:10:57:aa:e5:0a:ef:1a:41:1d:
                    0a:55:49:34:5e:ae:f7:4e:29:07:c2:34:1f:79:0d:
                    f8:b7:26:dc:9b:de:a5:00:5c:0e:a3:53:a8:73:3f:
                    fd:df:ab:18:03:bb:0a:d6:dc:f7:3e:0b:28:c8:61:
                    51:71:68:48:fa:5c:87:54:82:19:20:d9:28:2d:fa:
                    33:89:4c:5b:dc:a6:d9:49:44:45:c6:af:3d:1a:f9:
                    28:45:10:58:a7:27:67:75:7b:8b:58:92:80:a3:ef:
                    81:ae:95:27:97:2b:5b:d3:dd:ea:7a:b7:ff:1c:d1:
                    de:c6:df:ea:d6:19:e0:fe:4f:96:d6:59:cf:85:52:
                    71:76:62:ec:fb:97:74:e3:5f:b5:29:62:cd:89:be:
                    03:30:5b:5a:35:5d:08:a2:3d:5f:b3:8b:60:0b:5e:
                    42:e7
                Exponent: 65537 (0x10001)
        X509v3 extensions:
            X509v3 Subject Key Identifier: 
                1B:26:D0:C4:43:00:72:E2:A4:AB:01:D1:A4:68:D5:E5:B2:1E:9C:0D
            X509v3 Authority Key Identifier: 
                keyid:5F:CF:54:BD:7C:38:9B:5F:A1:AC:FE:A6:6E:7A:83:80:A6:4B:F9:BF

            Authority Information Access: 
                CA Issuers - URI:http://url-for-aia/Root.cer

            X509v3 CRL Distribution Points: 

                Full Name:
                  URI:http://url-for-crl/Root.crl

            X509v3 Key Usage: critical
                Certificate Sign, CRL Sign
            X509v3 Basic Constraints: critical
                CA:TRUE
    Signature Algorithm: sha256WithRSAEncryption
         35:94:c4:ba:09:88:f4:25:f0:79:c4:35:36:6c:f1:0d:02:c0:
         b7:ff:1f:79:71:df:4c:4c:ff:81:3d:7e:74:8e:3a:e4:16:64:
         a1:b1:35:7a:ec:e2:2b:4c:d8:5c:bd:b6:29:4f:6c:86:0b:44:
         50:a2:5c:70:1c:69:e4:12:8e:4f:62:76:6b:27:f2:a2:ae:19:
         b1:23:b7:2f:d9:f1:5a:9e:15:70:da:83:71:3b:fe:64:56:b7:
         4b:ee:42:c8:ae:a4:7c:7f:a1:ea:98:1b:5d:e5:27:9d:07:f7:
         95:19:48:de:a9:89:04:1e:51:8e:77:da:d8:2c:60:8d:5c:59:
         d6:6f:5b:6e:cf:bf:eb:9c:20:53:14:75:40:01:5c:5a:8b:0f:
         01:68:4c:10:9d:3a:69:74:c4:ae:53:d5:a8:6c:f5:e7:5c:ad:
         15:e4:3d:79:a2:1a:5a:0f:c1:a3:e7:1f:80:44:24:10:ce:a5:
         09:71:77:02:c2:8d:94:98:ee:6d:61:f5:ea:79:ef:91:62:f6:
         80:4b:d3:5a:b6:0f:c4:d0:70:90:24:2a:30:3d:c5:65:dd:60:
         9c:a5:e6:24:e1:28:21:85:9e:57:da:33:7a:bc:26:36:39:82:
         68:9f:05:00:65:1c:b4:fa:d6:1e:78:3e:8a:43:5d:de:03:65:
         3e:88:9f:c1
-----BEGIN CERTIFICATE-----
MIIDYzCCAkugAwIBAgIBAjANBgkqhkiG9w0BAQsFADAPMQ0wCwYDVQQDDARSb290
MB4XDTE1MDEwMTEyMDAwMFoXDTE2MDEwMTEyMDAwMFowDTELMAkGA1UEAwwCSTEw
ggEiMA0GCSqGSIb3DQEBAQUAA4IBDwAwggEKAoIBAQC0btthb+wf0W49+hInO4z3
jMenfQ1etSoCjZcpm3pkvQ1Wmx9ucavTrxA3kCs68O5VQ/1Q6kbJ2CqnaHoQdKHL
/LXEtu5ntIv1jRK1PNkMq+U3chm+sp+5ZXjB0U6IhhBXquUK7xpBHQpVSTRervdO
KQfCNB95Dfi3Jtyb3qUAXA6jU6hzP/3fqxgDuwrW3Pc+CyjIYVFxaEj6XIdUghkg
2Sgt+jOJTFvcptlJREXGrz0a+ShFEFinJ2d1e4tYkoCj74GulSeXK1vT3ep6t/8c
0d7G3+rWGeD+T5bWWc+FUnF2Yuz7l3TjX7UpYs2JvgMwW1o1XQiiPV+zi2ALXkLn
AgMBAAGjgcswgcgwHQYDVR0OBBYEFBsm0MRDAHLipKsB0aRo1eWyHpwNMB8GA1Ud
IwQYMBaAFF/PVL18OJtfoaz+pm56g4CmS/m/MDcGCCsGAQUFBwEBBCswKTAnBggr
BgEFBQcwAoYbaHR0cDovL3VybC1mb3ItYWlhL1Jvb3QuY2VyMCwGA1UdHwQlMCMw
IaAfoB2GG2h0dHA6Ly91cmwtZm9yLWNybC9Sb290LmNybDAOBgNVHQ8BAf8EBAMC
AQYwDwYDVR0TAQH/BAUwAwEB/zANBgkqhkiG9w0BAQsFAAOCAQEANZTEugmI9CXw
ecQ1NmzxDQLAt/8feXHfTEz/gT1+dI465BZkobE1euziK0zYXL22KU9shgtEUKJc
cBxp5BKOT2J2ayfyoq4ZsSO3L9nxWp4VcNqDcTv+ZFa3S+5CyK6kfH+h6pgbXeUn
nQf3lRlI3qmJBB5Rjnfa2CxgjVxZ1m9bbs+/65wgUxR1QAFcWosPAWhMEJ06aXTE
rlPVqGz151ytFeQ9eaIaWg/Bo+cfgEQkEM6lCXF3AsKNlJjubWH16nnvkWL2gEvT
WrYPxNBwkCQqMD3FZd1gnKXmJOEoIYWeV9ozerwmNjmCaJ8FAGUctPrWHng+ikNd
3gNlPoifwQ==
-----END CERTIFICATE-----
