Generated by generate-certs.py.
Refer to generator script docstring for details.
Certificate:
    Data:
        Version: 3 (0x2)
        Serial Number: 3 (0x3)
    Signature Algorithm: sha256WithRSAEncryption
        Issuer: CN=Root
        Validity
            Not Before: Jan  1 12:00:00 2015 GMT
            Not After : Jan  1 12:00:00 2016 GMT
        Subject: CN=i1
        Subject Public Key Info:
            Public Key Algorithm: rsaEncryption
                Public-Key: (2048 bit)
                Modulus:
                    00:c9:e4:64:23:d2:71:36:4d:70:84:36:ec:bb:05:
                    57:35:56:0c:a0:61:1f:64:fc:87:35:4b:cd:3d:17:
                    9d:6a:f9:d5:ef:8f:99:30:36:db:97:e0:80:72:d2:
                    0e:30:42:f4:c6:67:3c:be:dc:8c:05:02:13:e2:9b:
                    ab:a0:45:6e:78:18:4f:34:ae:ee:5d:4e:bb:47:b1:
                    af:87:fc:d4:99:17:42:cb:06:b4:c5:5f:e1:a0:0c:
                    79:5f:f2:b4:ee:74:52:43:6f:6e:83:4e:00:e0:c9:
                    66:e1:ea:98:89:6d:85:23:1b:ed:2b:da:af:c5:6b:
                    42:35:48:25:f9:a7:2a:54:90:f8:f1:b1:d4:93:61:
                    c8:c3:0c:39:99:dd:c4:a6:b8:2e:cf:92:57:14:8c:
                    b9:45:ba:fb:76:40:d4:d8:fe:44:54:17:76:ba:e2:
                    d0:f2:24:64:14:12:65:a7:be:c6:1a:d7:48:b9:4a:
                    93:5f:b1:b3:76:53:f8:ad:5f:d2:44:19:03:0f:f3:
                    af:99:ee:96:b5:85:ed:2a:ae:b8:41:90:5c:dd:e0:
                    19:0c:2a:71:ae:16:59:19:5d:3f:45:44:5e:4a:b3:
                    e0:86:ea:15:e2:fb:0c:b8:b9:6f:24:a0:c6:bc:fc:
                    f3:0c:02:f2:52:d8:34:fd:dc:8d:37:08:01:6a:f9:
                    c4:31
                Exponent: 65537 (0x10001)
        X509v3 extensions:
            X509v3 Subject Key Identifier: 
                E3:AC:1D:35:9E:1C:CC:C6:29:9F:37:59:41:C6:DA:C9:44:2C:B2:F3
            X509v3 Authority Key Identifier: 
                keyid:5F:CF:54:BD:7C:38:9B:5F:A1:AC:FE:A6:6E:7A:83:80:A6:4B:F9:BF

            Authority Information Access: 
                CA Issuers - URI:http://url-for-aia/Root.cer

            X509v3 CRL Distribution Points: 

                Full Name:
                  URI:http://url-for-crl/Root.crl

            X509v3 Key Usage: critical
                Certificate Sign, CRL Sign
            X509v3 Basic Constraints: critical
                CA:TRUE
    Signature Algorithm: sha256WithRSAEncryption
         13:d2:3e:8f:dc:3b:75:cd:54:c9:87:d0:11:e1:9a:ee:2b:a5:
         7e:01:8e:e6:22:6f:56:db:d1:14:2a:9f:d1:f6:20:c1:79:7e:
         1e:04:8a:ae:de:b5:19:28:48:ea:5f:0c:dc:01:0b:1e:39:3f:
         cc:c7:83:2e:aa:e1:85:32:32:23:d9:e0:5c:53:4b:58:d2:25:
         07:ec:de:3d:ef:0a:34:d2:f2:46:8d:1d:c3:d5:17:67:09:fb:
         d5:d9:fc:86:74:fe:1c:6d:e1:ff:f2:28:ed:f8:6b:89:78:eb:
         46:c6:6c:be:f4:08:b5:36:a2:4b:bf:68:1a:24:a8:b2:1b:8d:
         74:5a:36:d1:34:57:c3:5f:43:2e:73:7f:ff:15:29:74:4b:41:
         0d:c0:fa:13:5a:3f:98:2e:43:c9:b4:ce:6e:e3:ea:1d:44:36:
         da:15:e4:de:8a:90:2c:48:16:14:a5:8d:ae:70:03:35:b7:65:
         18:74:4a:b6:d9:37:0a:9c:fd:d5:81:9d:89:c9:a9:7b:15:13:
         ce:0e:0f:c4:32:08:49:ec:81:b5:3c:18:69:62:be:c2:b6:05:
         89:52:4a:a9:0f:62:2b:f1:df:f5:ba:bd:2b:62:93:ce:27:5c:
         69:51:2c:d2:5c:c7:53:0f:8b:e1:3d:4a:90:e6:da:0e:f4:89:
         17:4d:72:fb
-----BEGIN CERTIFICATE-----
MIIDYzCCAkugAwIBAgIBAzANBgkqhkiG9w0BAQsFADAPMQ0wCwYDVQQDDARSb290
MB4XDTE1MDEwMTEyMDAwMFoXDTE2MDEwMTEyMDAwMFowDTELMAkGA1UEAwwCaTEw
ggEiMA0GCSqGSIb3DQEBAQUAA4IBDwAwggEKAoIBAQDJ5GQj0nE2TXCENuy7BVc1
VgygYR9k/Ic1S809F51q+dXvj5kwNtuX4IBy0g4wQvTGZzy+3IwFAhPim6ugRW54
GE80ru5dTrtHsa+H/NSZF0LLBrTFX+GgDHlf8rTudFJDb26DTgDgyWbh6piJbYUj
G+0r2q/Fa0I1SCX5pypUkPjxsdSTYcjDDDmZ3cSmuC7PklcUjLlFuvt2QNTY/kRU
F3a64tDyJGQUEmWnvsYa10i5SpNfsbN2U/itX9JEGQMP86+Z7pa1he0qrrhBkFzd
4BkMKnGuFlkZXT9FRF5Ks+CG6hXi+wy4uW8koMa8/PMMAvJS2DT93I03CAFq+cQx
AgMBAAGjgcswgcgwHQYDVR0OBBYEFOOsHTWeHMzGKZ83WUHG2slELLLzMB8GA1Ud
IwQYMBaAFF/PVL18OJtfoaz+pm56g4CmS/m/MDcGCCsGAQUFBwEBBCswKTAnBggr
BgEFBQcwAoYbaHR0cDovL3VybC1mb3ItYWlhL1Jvb3QuY2VyMCwGA1UdHwQlMCMw
IaAfoB2GG2h0dHA6Ly91cmwtZm9yLWNybC9Sb290LmNybDAOBgNVHQ8BAf8EBAMC
AQYwDwYDVR0TAQH/BAUwAwEB/zANBgkqhkiG9w0BAQsFAAOCAQEAE9I+j9w7dc1U
yYfQEeGa7iulfgGO5iJvVtvRFCqf0fYgwXl+HgSKrt61GShI6l8M3AELHjk/zMeD
LqrhhTIyI9ngXFNLWNIlB+zePe8KNNLyRo0dw9UXZwn71dn8hnT+HG3h//Io7fhr
iXjrRsZsvvQItTaiS79oGiSoshuNdFo20TRXw19DLnN//xUpdEtBDcD6E1o/mC5D
ybTObuPqHUQ22hXk3oqQLEgWFKWNrnADNbdlGHRKttk3Cpz91YGdicmpexUTzg4P
xDIISeyBtTwYaWK+wrYFiVJKqQ9iK/Hf9bq9K2KTzidcaVEs0lzHUw+L4T1KkOba
DvSJF01y+w==
-----END CERTIFICATE-----
