Generated by generate-certs.py.
Refer to generator script docstring for details.
Certificate:
    Data:
        Version: 3 (0x2)
        Serial Number: 4 (0x4)
    Signature Algorithm: sha256WithRSAEncryption
        Issuer: CN=Root
        Validity
            Not Before: Jan  1 12:00:00 2015 GMT
            Not After : Jan  1 12:00:00 2016 GMT
        Subject: CN=I2
        Subject Public Key Info:
            Public Key Algorithm: rsaEncryption
                Public-Key: (2048 bit)
                Modulus:
                    00:d1:69:29:58:fb:d8:7f:47:62:6f:d6:3f:4a:93:
                    d5:37:73:27:45:1d:e6:73:d5:7e:50:1b:e0:97:4a:
                    d9:69:90:68:7e:ab:26:f0:c5:2a:11:35:fd:cb:68:
                    cf:30:bd:b6:59:c5:d8:8b:0e:c8:19:c4:d7:61:d1:
                    64:60:41:12:6e:33:88:ac:b9:51:4f:0f:26:9f:4b:
                    71:a1:f8:b6:9d:bd:71:9f:37:4b:a6:db:a9:23:06:
                    f0:c3:22:b3:6b:b7:e5:e7:a1:fc:1f:29:48:4d:96:
                    a8:35:1e:0a:52:e5:c9:bd:eb:20:be:02:6b:fe:54:
                    ba:7c:98:20:45:f6:09:dc:64:5f:b3:11:ec:6b:46:
                    1e:ea:de:98:64:29:c2:98:c9:c2:e7:9c:23:85:74:
                    79:10:d1:b3:7b:c0:be:37:7c:eb:96:38:90:35:45:
                    f7:30:6f:40:8b:16:be:dd:0f:9d:8b:d4:b0:cb:e1:
                    41:6f:94:e7:e9:83:a5:a0:5a:4f:fd:cd:90:eb:c9:
                    63:b3:19:17:12:46:4a:63:48:93:44:2c:da:ea:8f:
                    6b:d7:28:28:5b:43:ee:82:2d:ce:0a:b9:35:6c:16:
                    0a:a8:0b:c2:12:b1:0e:32:ae:33:ec:3e:38:6d:74:
                    88:49:77:99:4f:78:59:96:f5:11:10:86:3b:be:2d:
                    d7:51
                Exponent: 65537 (0x10001)
        X509v3 extensions:
            X509v3 Subject Key Identifier: 
                3C:E2:AD:12:A1:C0:96:C8:53:4A:6B:B2:49:5C:5A:A6:1E:A9:19:EC
            X509v3 Authority Key Identifier: 
                keyid:5F:CF:54:BD:7C:38:9B:5F:A1:AC:FE:A6:6E:7A:83:80:A6:4B:F9:BF

            Authority Information Access: 
                CA Issuers - URI:http://url-for-aia/Root.cer

            X509v3 CRL Distribution Points: 

                Full Name:
                  URI:http://url-for-crl/Root.crl

            X509v3 Key Usage: critical
                Certificate Sign, CRL Sign
            X509v3 Basic Constraints: critical
                CA:TRUE
    Signature Algorithm: sha256WithRSAEncryption
         2c:26:73:e0:af:77:68:7c:80:1c:c4:a5:e2:5b:8d:85:d8:19:
         61:eb:8e:1f:d3:d5:d0:5a:76:e3:e0:73:e9:9d:96:89:7c:1e:
         7c:16:b1:22:8b:88:1e:c5:82:a9:b2:a2:d6:90:ca:5a:23:e3:
         d2:fa:c8:17:fb:ce:2f:c7:f2:a9:71:95:5b:0c:33:d1:88:d3:
         c8:80:9b:5c:ab:cf:9b:45:62:83:08:bf:b6:29:e8:0e:a5:77:
         3b:3b:f2:bc:15:8c:5d:1e:40:7a:69:2c:c4:0e:1a:78:81:67:
         d0:04:94:4b:d1:b9:8e:e6:91:0d:e3:6e:e1:e7:6b:e4:f2:76:
         05:b8:5e:a0:04:0a:5a:32:45:7a:e3:06:da:a9:60:96:cb:1b:
         7a:cf:93:f5:63:a0:4e:33:4a:94:47:9d:a7:9e:02:82:4b:83:
         1b:c3:65:be:a7:8a:30:0e:45:f9:12:1e:c6:ec:58:e0:8d:29:
         4c:02:6d:5a:16:c1:36:09:64:52:b8:e1:00:2f:78:ae:3d:2f:
         df:8d:da:fa:ee:d7:02:5d:0c:78:93:42:91:e1:b7:99:23:5e:
         a4:e5:5a:26:17:41:de:24:27:89:9f:00:e4:f4:1c:77:69:f0:
         e2:31:d2:69:2c:ee:c7:2f:33:86:5d:dc:fa:d3:d1:cc:1a:df:
         a9:0d:74:3d
-----BEGIN CERTIFICATE-----
MIIDYzCCAkugAwIBAgIBBDANBgkqhkiG9w0BAQsFADAPMQ0wCwYDVQQDDARSb290
MB4XDTE1MDEwMTEyMDAwMFoXDTE2MDEwMTEyMDAwMFowDTELMAkGA1UEAwwCSTIw
ggEiMA0GCSqGSIb3DQEBAQUAA4IBDwAwggEKAoIBAQDRaSlY+9h/R2Jv1j9Kk9U3
cydFHeZz1X5QG+CXStlpkGh+qybwxSoRNf3LaM8wvbZZxdiLDsgZxNdh0WRgQRJu
M4isuVFPDyafS3Gh+LadvXGfN0um26kjBvDDIrNrt+XnofwfKUhNlqg1HgpS5cm9
6yC+Amv+VLp8mCBF9gncZF+zEexrRh7q3phkKcKYycLnnCOFdHkQ0bN7wL43fOuW
OJA1Rfcwb0CLFr7dD52L1LDL4UFvlOfpg6WgWk/9zZDryWOzGRcSRkpjSJNELNrq
j2vXKChbQ+6CLc4KuTVsFgqoC8ISsQ4yrjPsPjhtdIhJd5lPeFmW9REQhju+LddR
AgMBAAGjgcswgcgwHQYDVR0OBBYEFDzirRKhwJbIU0prsklcWqYeqRnsMB8GA1Ud
IwQYMBaAFF/PVL18OJtfoaz+pm56g4CmS/m/MDcGCCsGAQUFBwEBBCswKTAnBggr
BgEFBQcwAoYbaHR0cDovL3VybC1mb3ItYWlhL1Jvb3QuY2VyMCwGA1UdHwQlMCMw
IaAfoB2GG2h0dHA6Ly91cmwtZm9yLWNybC9Sb290LmNybDAOBgNVHQ8BAf8EBAMC
AQYwDwYDVR0TAQH/BAUwAwEB/zANBgkqhkiG9w0BAQsFAAOCAQEALCZz4K93aHyA
HMSl4luNhdgZYeuOH9PV0Fp24+Bz6Z2WiXwefBaxIouIHsWCqbKi1pDKWiPj0vrI
F/vOL8fyqXGVWwwz0YjTyICbXKvPm0Vigwi/tinoDqV3OzvyvBWMXR5AemksxA4a
eIFn0ASUS9G5juaRDeNu4edr5PJ2BbheoAQKWjJFeuMG2qlglssbes+T9WOgTjNK
lEedp54CgkuDG8NlvqeKMA5F+RIexuxY4I0pTAJtWhbBNglkUrjhAC94rj0v343a
+u7XAl0MeJNCkeG3mSNepOVaJhdB3iQniZ8A5PQcd2nw4jHSaSzuxy8zhl3c+tPR
zBrfqQ10PQ==
-----END CERTIFICATE-----
