Generated by generate-certs.py.
Refer to generator script docstring for details.
Certificate:
    Data:
        Version: 3 (0x2)
        Serial Number: 5 (0x5)
    Signature Algorithm: sha256WithRSAEncryption
        Issuer: CN=Root
        Validity
            Not Before: Jan  1 12:00:00 2015 GMT
            Not After : Jan  1 12:00:00 2016 GMT
        Subject: CN=I3
        Subject Public Key Info:
            Public Key Algorithm: rsaEncryption
                Public-Key: (2048 bit)
                Modulus:
                    00:cc:ad:d0:52:c3:c3:db:22:c1:cf:d4:40:39:dc:
                    d1:75:c5:07:26:08:d7:99:df:06:dd:de:37:8c:94:
                    14:16:44:69:09:e7:5a:17:08:bf:d5:a2:ed:fd:d7:
                    e6:ae:bc:33:9c:42:4e:fb:20:5a:94:83:4f:60:71:
                    e8:b6:ff:68:78:c0:2f:09:05:cd:24:3e:f6:ee:f3:
                    8c:98:db:0a:15:98:1d:48:dc:ea:11:e7:0d:52:61:
                    0d:b4:d3:7a:55:40:bc:29:82:a0:1e:02:d3:00:ed:
                    9b:7a:a9:48:76:0d:37:a8:dd:40:f8:13:44:1e:1c:
                    3a:d5:db:ca:e7:40:d5:22:77:59:78:43:f5:b5:df:
                    d7:7e:db:73:2c:e6:73:7c:09:e1:a0:30:ed:8c:c1:
                    4e:7d:5d:4c:9b:3a:0f:13:33:a1:9f:3e:d8:06:50:
                    9e:0f:2f:59:d7:5b:7a:db:80:36:81:21:5b:7e:0b:
                    7d:c8:2d:8c:1c:1e:9f:c7:3b:b6:78:6e:97:40:b9:
                    55:04:1b:2b:a2:4b:7c:a1:6a:a6:46:c2:0d:70:07:
                    60:9b:e4:52:12:6a:f5:f9:40:44:0c:bd:35:f0:fd:
                    00:d7:dc:ba:9e:9e:ed:30:c4:c8:e8:8b:cd:4e:5c:
                    50:66:12:00:db:43:4f:d6:67:d6:4f:7f:68:57:55:
                    5f:f9
                Exponent: 65537 (0x10001)
        X509v3 extensions:
            X509v3 Subject Key Identifier: 
                02:D2:01:6B:5B:63:DC:4E:54:01:08:CD:A7:27:A0:85:29:78:E1:D3
            X509v3 Authority Key Identifier: 
                keyid:5F:CF:54:BD:7C:38:9B:5F:A1:AC:FE:A6:6E:7A:83:80:A6:4B:F9:BF

            Authority Information Access: 
                CA Issuers - URI:http://url-for-aia/Root.cer

            X509v3 CRL Distribution Points: 

                Full Name:
                  URI:http://url-for-crl/Root.crl

            X509v3 Key Usage: critical
                Certificate Sign, CRL Sign
            X509v3 Basic Constraints: critical
                CA:TRUE
    Signature Algorithm: sha256WithRSAEncryption
         3f:cd:3f:c5:b9:85:e0:de:50:f7:99:23:7a:76:2c:4f:d5:5d:
         f2:8a:49:c9:4d:e8:37:76:09:05:61:f9:69:72:22:3e:49:68:
         ac:1f:cb:d8:b7:91:6c:97:ae:cc:73:03:f5:b0:8f:3f:ac:32:
         bc:fd:d5:42:f0:73:36:84:02:a8:01:de:9d:36:f3:e6:5b:bf:
         23:0f:a6:46:f9:6f:85:5c:c6:06:bc:d8:99:f1:56:56:74:94:
         53:86:01:9e:46:83:a6:5d:9d:6a:f0:75:b8:0d:ae:46:d9:dc:
         36:2f:2d:75:9b:1b:71:ec:0c:75:90:29:6f:92:9c:77:75:c7:
         bf:84:82:21:16:ba:93:5f:48:16:cf:7e:6a:20:91:01:f2:0d:
         0f:fb:e8:11:7e:65:9d:8c:72:91:7b:e0:02:fd:e1:fa:31:80:
         f0:2f:ad:73:f7:8c:d7:f4:3f:33:96:a7:e1:e1:38:a7:e7:e2:
         e5:bc:5a:51:d0:7a:45:49:56:82:8f:b0:89:75:6b:5e:b7:0d:
         75:9c:48:db:9a:84:38:26:e4:39:bb:b3:8f:13:48:58:43:45:
         6a:56:54:cc:60:88:2e:f2:ee:f0:0d:a1:f5:24:e0:9f:19:b1:
         ae:1c:31:f7:ef:22:a5:ce:b0:6b:22:70:06:24:e9:f0:78:7e:
         05:90:46:71
-----BEGIN CERTIFICATE-----
MIIDYzCCAkugAwIBAgIBBTANBgkqhkiG9w0BAQsFADAPMQ0wCwYDVQQDDARSb290
MB4XDTE1MDEwMTEyMDAwMFoXDTE2MDEwMTEyMDAwMFowDTELMAkGA1UEAwwCSTMw
ggEiMA0GCSqGSIb3DQEBAQUAA4IBDwAwggEKAoIBAQDMrdBSw8PbIsHP1EA53NF1
xQcmCNeZ3wbd3jeMlBQWRGkJ51oXCL/Vou391+auvDOcQk77IFqUg09gcei2/2h4
wC8JBc0kPvbu84yY2woVmB1I3OoR5w1SYQ2003pVQLwpgqAeAtMA7Zt6qUh2DTeo
3UD4E0QeHDrV28rnQNUid1l4Q/W139d+23Ms5nN8CeGgMO2MwU59XUybOg8TM6Gf
PtgGUJ4PL1nXW3rbgDaBIVt+C33ILYwcHp/HO7Z4bpdAuVUEGyuiS3yhaqZGwg1w
B2Cb5FISavX5QEQMvTXw/QDX3Lqenu0wxMjoi81OXFBmEgDbQ0/WZ9ZPf2hXVV/5
AgMBAAGjgcswgcgwHQYDVR0OBBYEFALSAWtbY9xOVAEIzacnoIUpeOHTMB8GA1Ud
IwQYMBaAFF/PVL18OJtfoaz+pm56g4CmS/m/MDcGCCsGAQUFBwEBBCswKTAnBggr
BgEFBQcwAoYbaHR0cDovL3VybC1mb3ItYWlhL1Jvb3QuY2VyMCwGA1UdHwQlMCMw
IaAfoB2GG2h0dHA6Ly91cmwtZm9yLWNybC9Sb290LmNybDAOBgNVHQ8BAf8EBAMC
AQYwDwYDVR0TAQH/BAUwAwEB/zANBgkqhkiG9w0BAQsFAAOCAQEAP80/xbmF4N5Q
95kjenYsT9Vd8opJyU3oN3YJBWH5aXIiPklorB/L2LeRbJeuzHMD9bCPP6wyvP3V
QvBzNoQCqAHenTbz5lu/Iw+mRvlvhVzGBrzYmfFWVnSUU4YBnkaDpl2davB1uA2u
RtncNi8tdZsbcewMdZApb5Kcd3XHv4SCIRa6k19IFs9+aiCRAfIND/voEX5lnYxy
kXvgAv3h+jGA8C+tc/eM1/Q/M5an4eE4p+fi5bxaUdB6RUlWgo+wiXVrXrcNdZxI
25qEOCbkObuzjxNIWENFalZUzGCILvLu8A2h9STgnxmxrhwx9+8ipc6wayJwBiTp
8Hh+BZBGcQ==
-----END CERTIFICATE-----
