Generated by generate-certs.py.
Refer to generator script docstring for details.
Certificate:
    Data:
        Version: 3 (0x2)
        Serial Number: 6 (0x6)
    Signature Algorithm: sha256WithRSAEncryption
        Issuer: CN=Root
        Validity
            Not Before: Jan  1 12:00:00 2015 GMT
            Not After : Jan  1 12:00:00 2016 GMT
        Subject: CN=I3
        Subject Public Key Info:
            Public Key Algorithm: rsaEncryption
                Public-Key: (2048 bit)
                Modulus:
                    00:db:69:2a:fa:fb:3f:74:eb:e7:a8:42:19:92:88:
                    30:f7:1d:0b:77:09:d0:74:17:3e:2e:93:57:1a:49:
                    4a:10:e5:37:11:13:0f:25:fc:2c:11:eb:8f:95:86:
                    9f:c0:67:b4:be:5b:58:71:d3:66:09:ba:c5:db:5e:
                    43:4b:62:b3:6a:c1:41:fa:a4:e2:80:3d:72:0a:48:
                    26:e4:f9:96:ae:4b:b6:b4:2c:c6:5f:53:bc:80:65:
                    13:5e:a1:04:f1:e8:18:9b:e5:db:15:04:29:2d:c5:
                    97:7b:9f:a2:6a:f0:bd:ac:f7:89:c5:6f:5b:61:39:
                    97:82:eb:19:02:eb:56:a2:f7:2f:e8:56:72:26:f2:
                    8e:d8:6b:6d:4f:0c:4c:4d:bb:46:b7:f1:4f:37:33:
                    d4:9d:8b:5e:35:92:7c:e2:79:1a:55:fc:01:17:b1:
                    26:2d:af:e3:16:e4:96:2d:a6:41:81:ab:16:b0:74:
                    37:39:65:ba:12:0c:f1:8d:a9:1e:3f:51:91:a8:50:
                    c9:16:b3:ef:78:25:67:e5:c0:22:ec:93:64:50:a7:
                    81:78:10:00:28:df:17:c6:35:cc:9c:f8:50:83:36:
                    1f:a1:24:f4:44:c6:2f:69:a7:bc:36:73:69:3d:bb:
                    24:d8:19:74:1e:10:25:e3:0c:fc:d9:e2:95:2e:bf:
                    8d:c7
                Exponent: 65537 (0x10001)
        X509v3 extensions:
            X509v3 Subject Key Identifier: 
                40:F8:36:2C:4C:E3:28:99:C2:3E:78:F2:EA:68:AB:4F:01:7C:FC:28
            X509v3 Authority Key Identifier: 
                keyid:5F:CF:54:BD:7C:38:9B:5F:A1:AC:FE:A6:6E:7A:83:80:A6:4B:F9:BF

            Authority Information Access: 
                CA Issuers - URI:http://url-for-aia/Root.cer

            X509v3 CRL Distribution Points: 

                Full Name:
                  URI:http://url-for-crl/Root.crl

            X509v3 Key Usage: critical
                Certificate Sign, CRL Sign
            X509v3 Basic Constraints: critical
                CA:TRUE
    Signature Algorithm: sha256WithRSAEncryption
         92:92:f6:0d:81:05:42:33:98:64:ac:2d:b0:74:24:6b:2a:0e:
         9e:c3:3d:d7:0c:06:48:83:1b:34:d8:7b:27:09:a9:20:c8:ae:
         64:96:02:63:b2:35:a8:91:e8:51:1d:1a:2b:e9:ba:d1:75:dd:
         4f:3a:52:50:22:84:82:3f:23:d1:51:0c:92:6c:4e:87:d1:96:
         ef:d3:3e:f7:9f:9a:db:1a:5c:61:62:d3:32:2f:20:1a:c1:53:
         e3:3e:38:6b:44:cd:2a:51:b9:dd:8c:3f:1d:14:94:68:23:e7:
         90:ed:4d:24:ea:14:c5:79:7f:dc:a3:3c:d9:9e:77:ce:90:6a:
         da:92:3d:31:cc:e2:30:c1:66:a8:a2:11:78:bf:11:58:43:16:
         e8:bc:f1:66:29:0c:20:97:79:bf:06:02:d9:9f:38:59:89:41:
         fd:a0:27:ea:c1:91:06:99:54:f8:5f:3e:35:ef:92:bd:43:04:
         c6:df:38:e6:42:7d:58:23:04:bc:d4:a0:0f:a6:f9:a2:c9:9b:
         c2:36:ba:8f:6c:5a:25:4f:7e:ec:4b:99:ff:b1:48:08:b0:82:
         cb:95:eb:dd:ec:94:db:da:81:ea:68:b5:03:46:7c:67:10:f9:
         1c:dc:74:8a:4c:77:08:f0:92:2d:07:12:c8:5a:86:35:9c:2b:
         2a:85:fe:4d
-----BEGIN CERTIFICATE-----
MIIDYzCCAkugAwIBAgIBBjANBgkqhkiG9w0BAQsFADAPMQ0wCwYDVQQDDARSb290
MB4XDTE1MDEwMTEyMDAwMFoXDTE2MDEwMTEyMDAwMFowDTELMAkGA1UEAwwCSTMw
ggEiMA0GCSqGSIb3DQEBAQUAA4IBDwAwggEKAoIBAQDbaSr6+z906+eoQhmSiDD3
HQt3CdB0Fz4uk1caSUoQ5TcREw8l/CwR64+Vhp/AZ7S+W1hx02YJusXbXkNLYrNq
wUH6pOKAPXIKSCbk+ZauS7a0LMZfU7yAZRNeoQTx6Bib5dsVBCktxZd7n6Jq8L2s
94nFb1thOZeC6xkC61ai9y/oVnIm8o7Ya21PDExNu0a38U83M9Sdi141knzieRpV
/AEXsSYtr+MW5JYtpkGBqxawdDc5ZboSDPGNqR4/UZGoUMkWs+94JWflwCLsk2RQ
p4F4EAAo3xfGNcyc+FCDNh+hJPRExi9pp7w2c2k9uyTYGXQeECXjDPzZ4pUuv43H
AgMBAAGjgcswgcgwHQYDVR0OBBYEFED4NixM4yiZwj548upoq08BfPwoMB8GA1Ud
IwQYMBaAFF/PVL18OJtfoaz+pm56g4CmS/m/MDcGCCsGAQUFBwEBBCswKTAnBggr
BgEFBQcwAoYbaHR0cDovL3VybC1mb3ItYWlhL1Jvb3QuY2VyMCwGA1UdHwQlMCMw
IaAfoB2GG2h0dHA6Ly91cmwtZm9yLWNybC9Sb290LmNybDAOBgNVHQ8BAf8EBAMC
AQYwDwYDVR0TAQH/BAUwAwEB/zANBgkqhkiG9w0BAQsFAAOCAQEAkpL2DYEFQjOY
ZKwtsHQkayoOnsM91wwGSIMbNNh7JwmpIMiuZJYCY7I1qJHoUR0aK+m60XXdTzpS
UCKEgj8j0VEMkmxOh9GW79M+95+a2xpcYWLTMi8gGsFT4z44a0TNKlG53Yw/HRSU
aCPnkO1NJOoUxXl/3KM82Z53zpBq2pI9McziMMFmqKIReL8RWEMW6LzxZikMIJd5
vwYC2Z84WYlB/aAn6sGRBplU+F8+Ne+SvUMExt845kJ9WCMEvNSgD6b5osmbwja6
j2xaJU9+7EuZ/7FICLCCy5Xr3eyU29qB6mi1A0Z8ZxD5HNx0ikx3CPCSLQcSyFqG
NZwrKoX+TQ==
-----END CERTIFICATE-----
