Generated by generate-certs.py.
Refer to generator script docstring for details.
Certificate:
    Data:
        Version: 3 (0x2)
        Serial Number: 1 (0x1)
    Signature Algorithm: sha256WithRSAEncryption
        Issuer: CN=Root
        Validity
            Not Before: Jan  1 12:00:00 2015 GMT
            Not After : Jan  1 12:00:00 2016 GMT
        Subject: CN=Root
        Subject Public Key Info:
            Public Key Algorithm: rsaEncryption
                Public-Key: (2048 bit)
                Modulus:
                    00:9e:7b:4a:e0:a1:87:18:da:df:76:0a:f9:9f:e9:
                    d1:e3:9b:2a:e5:ea:67:7e:5a:29:c5:19:ae:a4:5f:
                    f1:46:eb:ab:cc:43:36:fd:d3:a6:1e:cd:31:f5:a7:
                    c4:05:1b:f6:15:07:66:69:5f:bc:9c:a3:94:1a:35:
                    b4:f8:70:ce:46:e2:71:48:87:ff:d3:50:01:95:9b:
                    48:24:d9:41:71:90:9a:ca:8f:5b:e3:f9:11:2d:7d:
                    69:d1:29:54:4d:6b:5f:44:36:38:8c:22:57:8a:63:
                    b8:13:c5:02:73:78:a1:76:d8:c4:41:89:57:62:e2:
                    fe:cb:ac:bf:30:21:95:ff:d6:b7:a3:4b:d5:40:8c:
                    0f:a9:ef:29:e2:7f:cd:a1:56:89:5e:80:50:94:68:
                    13:45:00:e4:db:01:0c:0f:29:be:6b:5b:6a:29:a4:
                    d5:a4:50:9a:15:8d:1e:28:bd:5e:cd:92:48:73:3c:
                    a5:4e:83:b6:3b:bf:d8:c0:3b:67:1a:a2:bb:cb:0f:
                    26:34:40:9b:f9:ba:3c:33:95:2b:b2:a0:70:b9:27:
                    c5:c1:1f:bc:2a:5d:46:d0:39:a2:51:c5:88:90:dd:
                    1b:ce:84:dc:ae:cc:60:a6:37:7d:0e:c2:cf:63:4f:
                    be:96:94:2b:cb:23:0f:88:38:43:52:74:fa:16:54:
                    e9:29
                Exponent: 65537 (0x10001)
        X509v3 extensions:
            X509v3 Subject Key Identifier: 
                5F:CF:54:BD:7C:38:9B:5F:A1:AC:FE:A6:6E:7A:83:80:A6:4B:F9:BF
            X509v3 Authority Key Identifier: 
                keyid:5F:CF:54:BD:7C:38:9B:5F:A1:AC:FE:A6:6E:7A:83:80:A6:4B:F9:BF

            Authority Information Access: 
                CA Issuers - URI:http://url-for-aia/Root.cer

            X509v3 CRL Distribution Points: 

                Full Name:
                  URI:http://url-for-crl/Root.crl

            X509v3 Key Usage: critical
                Certificate Sign, CRL Sign
            X509v3 Basic Constraints: critical
                CA:TRUE
    Signature Algorithm: sha256WithRSAEncryption
         4f:05:de:55:b9:52:4b:e8:cb:2e:54:8d:a7:63:80:0a:48:02:
         63:b6:dd:f2:22:95:52:89:ef:4f:55:58:7e:32:07:d1:8a:46:
         e6:00:6d:73:3c:20:8b:b9:12:b7:8e:04:14:49:b2:9e:58:f8:
         d7:07:14:6f:4d:9f:c8:78:db:3f:c4:61:e3:a9:a1:97:e5:9f:
         dc:a3:4e:9b:d6:15:66:5a:19:1a:94:1e:97:ba:67:2a:1f:ac:
         97:7c:26:c4:e7:42:b8:c2:d2:34:b4:80:2e:27:6e:99:ad:3f:
         ce:d2:e0:9f:26:66:a7:46:43:a9:f3:a7:96:95:67:e5:34:08:
         3d:0c:2c:aa:ca:22:87:52:f1:25:3c:72:57:70:eb:d9:5f:77:
         3b:7d:a6:9d:cc:b5:f5:60:3f:69:2f:07:25:94:16:2a:92:9b:
         fb:b6:26:56:62:1d:bb:6f:c5:03:28:93:b0:e5:c0:57:c6:d5:
         78:a3:2a:1f:23:6c:f1:3a:88:14:bb:10:a0:d6:0c:91:05:54:
         4b:cc:8a:d0:8f:c4:f2:1b:99:8f:c9:0f:41:5c:3f:8c:81:9e:
         0c:aa:55:2c:af:f2:e6:d7:22:cd:d9:a6:e2:00:b4:5e:90:7e:
         ee:f6:3c:80:e1:35:9d:cf:dd:f2:ba:3b:43:00:c5:05:a4:5e:
         52:88:58:57
-----BEGIN CERTIFICATE-----
MIIDZTCCAk2gAwIBAgIBATANBgkqhkiG9w0BAQsFADAPMQ0wCwYDVQQDDARSb290
MB4XDTE1MDEwMTEyMDAwMFoXDTE2MDEwMTEyMDAwMFowDzENMAsGA1UEAwwEUm9v
dDCCASIwDQYJKoZIhvcNAQEBBQADggEPADCCAQoCggEBAJ57SuChhxja33YK+Z/p
0eObKuXqZ35aKcUZrqRf8Ubrq8xDNv3Tph7NMfWnxAUb9hUHZmlfvJyjlBo1tPhw
zkbicUiH/9NQAZWbSCTZQXGQmsqPW+P5ES19adEpVE1rX0Q2OIwiV4pjuBPFAnN4
oXbYxEGJV2Li/susvzAhlf/Wt6NL1UCMD6nvKeJ/zaFWiV6AUJRoE0UA5NsBDA8p
vmtbaimk1aRQmhWNHii9Xs2SSHM8pU6Dtju/2MA7Zxqiu8sPJjRAm/m6PDOVK7Kg
cLknxcEfvCpdRtA5olHFiJDdG86E3K7MYKY3fQ7Cz2NPvpaUK8sjD4g4Q1J0+hZU
6SkCAwEAAaOByzCByDAdBgNVHQ4EFgQUX89UvXw4m1+hrP6mbnqDgKZL+b8wHwYD
VR0jBBgwFoAUX89UvXw4m1+hrP6mbnqDgKZL+b8wNwYIKwYBBQUHAQEEKzApMCcG
CCsGAQUFBzAChhtodHRwOi8vdXJsLWZvci1haWEvUm9vdC5jZXIwLAYDVR0fBCUw
IzAhoB+gHYYbaHR0cDovL3VybC1mb3ItY3JsL1Jvb3QuY3JsMA4GA1UdDwEB/wQE
AwIBBjAPBgNVHRMBAf8EBTADAQH/MA0GCSqGSIb3DQEBCwUAA4IBAQBPBd5VuVJL
6MsuVI2nY4AKSAJjtt3yIpVSie9PVVh+MgfRikbmAG1zPCCLuRK3jgQUSbKeWPjX
BxRvTZ/IeNs/xGHjqaGX5Z/co06b1hVmWhkalB6XumcqH6yXfCbE50K4wtI0tIAu
J26ZrT/O0uCfJmanRkOp86eWlWflNAg9DCyqyiKHUvElPHJXcOvZX3c7faadzLX1
YD9pLwcllBYqkpv7tiZWYh27b8UDKJOw5cBXxtV4oyofI2zxOogUuxCg1gyRBVRL
zIrQj8TyG5mPyQ9BXD+MgZ4MqlUsr/Lm1yLN2abiALRekH7u9jyA4TWdz93yujtD
AMUFpF5SiFhX
-----END CERTIFICATE-----
