Certificate:
    Data:
        Version: 3 (0x2)
        Serial Number:
            85:bd:4b:f3:d8:da:e3:69:f6:94:d7:5f:c3:a5:44:23
    Signature Algorithm: sha1WithRSAEncryption
        Issuer: C=FR, O=Certplus, CN=Class 2 Primary CA
        Validity
            Not Before: Jul  7 17:05:00 1999 GMT
            Not After : Jul  6 23:59:59 2019 GMT
        Subject: C=FR, O=Certplus, CN=Class 2 Primary CA
        Subject Public Key Info:
            Public Key Algorithm: rsaEncryption
                Public-Key: (2048 bit)
                Modulus:
                    00:dc:50:96:d0:12:f8:35:d2:08:78:7a:b6:52:70:
                    fd:6f:ee:cf:b9:11:cb:5d:77:e1:ec:e9:7e:04:8d:
                    d6:cc:6f:73:43:57:60:ac:33:0a:44:ec:03:5f:1c:
                    80:24:91:e5:a8:91:56:12:82:f7:e0:2b:f4:db:ae:
                    61:2e:89:10:8d:6b:6c:ba:b3:02:bd:d5:36:c5:48:
                    37:23:e2:f0:5a:37:52:33:17:12:e2:d1:60:4d:be:
                    2f:41:11:e3:f6:17:25:0c:8b:91:c0:1b:99:7b:99:
                    56:0d:af:ee:d2:bc:47:57:e3:79:49:7b:34:89:27:
                    24:84:de:b1:ec:e9:58:4e:fe:4e:df:5a:be:41:ad:
                    ac:08:c5:18:0e:ef:d2:53:ee:6c:d0:9d:12:01:13:
                    8d:dc:80:62:f7:95:a9:44:88:4a:71:4e:60:55:9e:
                    db:23:19:79:56:07:0c:3f:63:0b:5c:b0:e2:be:7e:
                    15:fc:94:33:58:41:38:74:c4:e1:8f:8b:df:26:ac:
                    1f:b5:8b:3b:b7:43:59:6b:b0:24:a6:6d:90:8b:c4:
                    72:ea:5d:33:98:b7:cb:de:5e:7b:ef:94:f1:1b:3e:
                    ca:c9:21:c1:c5:98:02:aa:a2:f6:5b:77:9b:f5:7e:
                    96:55:34:1c:67:69:c0:f1:42:e3:47:ac:fc:28:1c:
                    66:55
                Exponent: 65537 (0x10001)
        X509v3 extensions:
            X509v3 Basic Constraints: 
                CA:TRUE, pathlen:10
            X509v3 Key Usage: 
                Certificate Sign, CRL Sign
            X509v3 Subject Key Identifier: 
                E3:73:2D:DF:CB:0E:28:0C:DE:DD:B3:A4:CA:79:B8:8E:BB:E8:30:89
            Netscape Cert Type: 
                SSL CA, S/MIME CA
            X509v3 CRL Distribution Points: 

                Full Name:
                  URI:http://www.certplus.com/CRL/class2.crl

    Signature Algorithm: sha1WithRSAEncryption
         a7:54:cf:88:44:19:cb:df:d4:7f:00:df:56:33:62:b5:f7:51:
         01:90:eb:c3:3f:d1:88:44:e9:24:5d:ef:e7:14:bd:20:b7:9a:
         3c:00:fe:6d:9f:db:90:dc:d7:f4:62:d6:8b:70:5d:e7:e5:04:
         48:a9:68:7c:c9:f1:42:f3:6c:7f:c5:7a:7c:1d:51:88:ba:d2:
         0a:3e:27:5d:de:2d:51:4e:d3:13:64:69:e4:2e:e3:d3:e7:9b:
         09:99:a6:e0:95:9b:ce:1a:d7:7f:be:3c:ce:52:b3:11:15:c1:
         0f:17:cd:03:bb:9c:25:15:ba:a2:76:89:fc:06:f1:18:d0:93:
         4b:0e:7c:82:b7:a5:f4:f6:5f:fe:ed:40:a6:9d:84:74:39:b9:
         dc:1e:85:16:da:29:1b:86:23:00:c9:bb:89:7e:6e:80:88:1e:
         2f:14:b4:03:24:a8:32:6f:03:9a:47:2c:30:be:56:c6:a7:42:
         02:70:1b:ea:40:d8:ba:05:03:70:07:a4:96:ff:fd:48:33:0a:
         e1:dc:a5:81:90:9b:4d:dd:7d:e7:e7:b2:cd:5c:c8:6a:95:f8:
         a5:f6:8d:c4:5d:78:08:be:7b:06:d6:49:cf:19:36:50:23:2e:
         08:e6:9e:05:4d:47:18:d5:16:e9:b1:d6:b6:10:d5:bb:97:bf:
         a2:8e:b4:54
-----BEGIN CERTIFICATE-----
MIIDkjCCAnqgAwIBAgIRAIW9S/PY2uNp9pTXX8OlRCMwDQYJKoZIhvcNAQEFBQAw
PTELMAkGA1UEBhMCRlIxETAPBgNVBAoTCENlcnRwbHVzMRswGQYDVQQDExJDbGFz
cyAyIFByaW1hcnkgQ0EwHhcNOTkwNzA3MTcwNTAwWhcNMTkwNzA2MjM1OTU5WjA9
MQswCQYDVQQGEwJGUjERMA8GA1UEChMIQ2VydHBsdXMxGzAZBgNVBAMTEkNsYXNz
IDIgUHJpbWFyeSBDQTCCASIwDQYJKoZIhvcNAQEBBQADggEPADCCAQoCggEBANxQ
ltAS+DXSCHh6tlJw/W/uz7kRy1134ezpfgSN1sxvc0NXYKwzCkTsA18cgCSR5aiR
VhKC9+Ar9NuuYS6JEI1rbLqzAr3VNsVINyPi8Fo3UjMXEuLRYE2+L0ER4/YXJQyL
kcAbmXuZVg2v7tK8R1fjeUl7NIknJITesezpWE7+Tt9avkGtrAjFGA7v0lPubNCd
EgETjdyAYveVqUSISnFOYFWe2yMZeVYHDD9jC1yw4r5+FfyUM1hBOHTE4Y+L3yas
H7WLO7dDWWuwJKZtkIvEcupdM5i3y95ee++U8Rs+yskhwcWYAqqi9lt3m/V+llU0
HGdpwPFC40es/CgcZlUCAwEAAaOBjDCBiTAPBgNVHRMECDAGAQH/AgEKMAsGA1Ud
DwQEAwIBBjAdBgNVHQ4EFgQU43Mt38sOKAze3bOkynm4jrvoMIkwEQYJYIZIAYb4
QgEBBAQDAgEGMDcGA1UdHwQwMC4wLKAqoCiGJmh0dHA6Ly93d3cuY2VydHBsdXMu
Y29tL0NSTC9jbGFzczIuY3JsMA0GCSqGSIb3DQEBBQUAA4IBAQCnVM+IRBnL39R/
AN9WM2K191EBkOvDP9GIROkkXe/nFL0gt5o8AP5tn9uQ3Nf0YtaLcF3n5QRIqWh8
yfFC82x/xXp8HVGIutIKPidd3i1RTtMTZGnkLuPT55sJmabglZvOGtd/vjzOUrMR
FcEPF80Du5wlFbqidon8BvEY0JNLDnyCt6X09l/+7UCmnYR0ObncHoUW2ikbhiMA
ybuJfm6AiB4vFLQDJKgybwOaRywwvlbGp0ICcBvqQNi6BQNwB6SW//1IMwrh3KWB
kJtN3X3n57LNXMhqlfil9o3EXXgIvnsG1knPGTZQIy4I5p4FTUcY1Rbpsda2ENW7
l7+ijrRU
-----END CERTIFICATE-----
