Certificate:
    Data:
        Version: 1 (0x0)
        Serial Number: 1 (0x1)
    Signature Algorithm: sha1WithRSAEncryption
        Issuer: L=ValiCert Validation Network, O=ValiCert, Inc., OU=ValiCert Class 2 Policy Validation Authority, CN=http://www.valicert.com//emailAddress=info@valicert.com
        Validity
            Not Before: Jun 26 00:19:54 1999 GMT
            Not After : Jun 26 00:19:54 2019 GMT
        Subject: L=ValiCert Validation Network, O=ValiCert, Inc., OU=ValiCert Class 2 Policy Validation Authority, CN=http://www.valicert.com//emailAddress=info@valicert.com
        Subject Public Key Info:
            Public Key Algorithm: rsaEncryption
                Public-Key: (1024 bit)
                Modulus:
                    00:ce:3a:71:ca:e5:ab:c8:59:92:55:d7:ab:d8:74:
                    0e:f9:ee:d9:f6:55:47:59:65:47:0e:05:55:dc:eb:
                    98:36:3c:5c:53:5d:d3:30:cf:38:ec:bd:41:89:ed:
                    25:42:09:24:6b:0a:5e:b3:7c:dd:52:2d:4c:e6:d4:
                    d6:7d:5a:59:a9:65:d4:49:13:2d:24:4d:1c:50:6f:
                    b5:c1:85:54:3b:fe:71:e4:d3:5c:42:f9:80:e0:91:
                    1a:0a:5b:39:36:67:f3:3f:55:7c:1b:3f:b4:5f:64:
                    73:34:e3:b4:12:bf:87:64:f8:da:12:ff:37:27:c1:
                    b3:43:bb:ef:7b:6e:2e:69:f7
                Exponent: 65537 (0x10001)
    Signature Algorithm: sha1WithRSAEncryption
         3b:7f:50:6f:6f:50:94:99:49:62:38:38:1f:4b:f8:a5:c8:3e:
         a7:82:81:f6:2b:c7:e8:c5:ce:e8:3a:10:82:cb:18:00:8e:4d:
         bd:a8:58:7f:a1:79:00:b5:bb:e9:8d:af:41:d9:0f:34:ee:21:
         81:19:a0:32:49:28:f4:c4:8e:56:d5:52:33:fd:50:d5:7e:99:
         6c:03:e4:c9:4c:fc:cb:6c:ab:66:b3:4a:21:8c:e5:b5:0c:32:
         3e:10:b2:cc:6c:a1:dc:9a:98:4c:02:5b:f3:ce:b9:9e:a5:72:
         0e:4a:b7:3f:3c:e6:16:68:f8:be:ed:74:4c:bc:5b:d5:62:1f:
         43:dd
-----BEGIN CERTIFICATE-----
MIIC5zCCAlACAQEwDQYJKoZIhvcNAQEFBQAwgbsxJDAiBgNVBAcTG1ZhbGlDZXJ0
IFZhbGlkYXRpb24gTmV0d29yazEXMBUGA1UEChMOVmFsaUNlcnQsIEluYy4xNTAz
BgNVBAsTLFZhbGlDZXJ0IENsYXNzIDIgUG9saWN5IFZhbGlkYXRpb24gQXV0aG9y
aXR5MSEwHwYDVQQDExhodHRwOi8vd3d3LnZhbGljZXJ0LmNvbS8xIDAeBgkqhkiG
9w0BCQEWEWluZm9AdmFsaWNlcnQuY29tMB4XDTk5MDYyNjAwMTk1NFoXDTE5MDYy
NjAwMTk1NFowgbsxJDAiBgNVBAcTG1ZhbGlDZXJ0IFZhbGlkYXRpb24gTmV0d29y
azEXMBUGA1UEChMOVmFsaUNlcnQsIEluYy4xNTAzBgNVBAsTLFZhbGlDZXJ0IENs
YXNzIDIgUG9saWN5IFZhbGlkYXRpb24gQXV0aG9yaXR5MSEwHwYDVQQDExhodHRw
Oi8vd3d3LnZhbGljZXJ0LmNvbS8xIDAeBgkqhkiG9w0BCQEWEWluZm9AdmFsaWNl
cnQuY29tMIGfMA0GCSqGSIb3DQEBAQUAA4GNADCBiQKBgQDOOnHK5avIWZJV16vY
dA757tn2VUdZZUcOBVXc65g2PFxTXdMwzzjsvUGJ7SVCCSRrCl6zfN1SLUzm1NZ9
WlmpZdRJEy0kTRxQb7XBhVQ7/nHk01xC+YDgkRoKWzk2Z/M/VXwbP7RfZHM047QS
v4dk+NoS/zcnwbNDu+97bi5p9wIDAQABMA0GCSqGSIb3DQEBBQUAA4GBADt/UG9v
UJSZSWI4OB9L+KXIPqeCgfYrx+jFzug6EILLGACOTb2oWH+heQC1u+mNr0HZDzTu
IYEZoDJJKPTEjlbVUjP9UNV+mWwD5MlM/Mtsq2azSiGM5bUMMj4QssxsodyamEwC
W/POuZ6lcg5Ktz885hZo+L7tdEy8W9ViH0Pd
-----END CERTIFICATE-----
