Certificate:
    Data:
        Version: 3 (0x2)
        Serial Number: 1 (0x1)
    Signature Algorithm: sha1WithRSAEncryption
        Issuer: C=US, O=Wells Fargo WellsSecure, OU=Wells Fargo Bank NA, CN=WellsSecure Public Root Certificate Authority
        Validity
            Not Before: Dec 13 17:07:54 2007 GMT
            Not After : Dec 14 00:07:54 2022 GMT
        Subject: C=US, O=Wells Fargo WellsSecure, OU=Wells Fargo Bank NA, CN=WellsSecure Public Root Certificate Authority
        Subject Public Key Info:
            Public Key Algorithm: rsaEncryption
                Public-Key: (2048 bit)
                Modulus:
                    00:ee:6f:b4:bd:79:e2:8f:08:21:9e:38:04:41:25:
                    ef:ab:5b:1c:53:92:ac:6d:9e:dd:c2:c4:2e:45:94:
                    03:35:88:67:74:57:e3:df:8c:b8:a7:76:8f:3b:f7:
                    a8:c4:db:29:63:0e:91:68:36:8a:97:8e:8a:71:68:
                    09:07:e4:e8:d4:0e:4f:f8:d6:2b:4c:a4:16:f9:ef:
                    43:98:8f:b3:9e:52:df:6d:91:39:8f:38:bd:77:8b:
                    43:63:eb:b7:93:fc:30:4c:1c:01:93:b6:13:fb:f7:
                    a1:1f:bf:25:e1:74:37:2c:1e:a4:5e:3c:68:f8:4b:
                    bf:0d:b9:1e:2e:36:e8:a9:e4:a7:f8:0f:cb:82:75:
                    7c:35:2d:22:d6:c2:bf:0b:f3:b4:fc:6c:95:61:1e:
                    57:d7:04:81:32:83:52:79:e6:83:63:cf:b7:cb:63:
                    8b:11:e2:bd:5e:eb:f6:8d:ed:95:72:28:b4:ac:12:
                    62:e9:4a:33:e6:83:32:ae:05:75:95:bd:84:95:db:
                    2a:5c:9b:8e:2e:0c:b8:81:2b:41:e6:38:56:9f:49:
                    9b:6c:76:fa:8a:5d:f7:01:79:81:7c:c1:83:40:05:
                    fe:71:fd:0c:3f:cc:4e:60:09:0e:65:47:10:2f:01:
                    c0:05:3f:8f:f8:b3:41:ef:5a:42:7e:59:ef:d2:97:
                    0c:65
                Exponent: 65537 (0x10001)
        X509v3 extensions:
            X509v3 Basic Constraints: critical
                CA:TRUE
            X509v3 CRL Distribution Points: 

                Full Name:
                  URI:http://crl.pki.wellsfargo.com/wsprca.crl

            X509v3 Key Usage: critical
                Digital Signature, Non Repudiation, Certificate Sign, CRL Sign
            X509v3 Subject Key Identifier: 
                26:95:19:10:D9:E8:A1:97:91:FF:DC:19:D9:B5:04:3E:D2:73:0A:6A
            X509v3 Authority Key Identifier: 
                keyid:26:95:19:10:D9:E8:A1:97:91:FF:DC:19:D9:B5:04:3E:D2:73:0A:6A
                DirName:/C=US/O=Wells Fargo WellsSecure/OU=Wells Fargo Bank NA/CN=WellsSecure Public Root Certificate Authority
                serial:01

    Signature Algorithm: sha1WithRSAEncryption
         b9:15:b1:44:91:cc:23:c8:2b:4d:77:e3:f8:9a:7b:27:0d:cd:
         72:bb:99:00:ca:7c:66:19:50:c6:d5:98:ed:ab:bf:03:5a:e5:
         4d:e5:1e:c8:4f:71:97:86:d5:e3:1d:fd:90:c9:3c:75:77:57:
         7a:7d:f8:de:f4:d4:d5:f7:95:e6:74:6e:1d:3c:ae:7c:9d:db:
         02:03:05:2c:71:4b:25:3e:07:e3:5e:9a:f5:66:17:29:88:1a:
         38:9f:cf:aa:41:03:84:97:6b:93:38:7a:ca:30:44:1b:24:44:
         33:d0:e4:d1:dc:28:38:f4:13:43:35:35:29:63:a8:7c:a2:b5:
         ad:38:a4:ed:ad:fd:c6:9a:1f:ff:97:73:fe:fb:b3:35:a7:93:
         86:c6:76:91:00:e6:ac:51:16:c4:27:32:5c:db:73:da:a5:93:
         57:8e:3e:6d:35:26:08:59:d5:e7:44:d7:76:20:63:e7:ac:13:
         67:c3:6d:b1:70:46:7c:d5:96:11:3d:89:6f:5d:a8:a1:eb:8d:
         0a:da:c3:1d:33:6c:a3:ea:67:19:9a:99:7f:4b:3d:83:51:2a:
         1d:ca:2f:86:0c:a2:7e:10:2d:2b:d4:16:95:0b:07:aa:2e:14:
         92:49:b7:29:6f:d8:6d:31:7d:f5:fc:a1:10:07:87:ce:2f:59:
         dc:3e:58:db
-----BEGIN CERTIFICATE-----
MIIEvTCCA6WgAwIBAgIBATANBgkqhkiG9w0BAQUFADCBhTELMAkGA1UEBhMCVVMx
IDAeBgNVBAoMF1dlbGxzIEZhcmdvIFdlbGxzU2VjdXJlMRwwGgYDVQQLDBNXZWxs
cyBGYXJnbyBCYW5rIE5BMTYwNAYDVQQDDC1XZWxsc1NlY3VyZSBQdWJsaWMgUm9v
dCBDZXJ0aWZpY2F0ZSBBdXRob3JpdHkwHhcNMDcxMjEzMTcwNzU0WhcNMjIxMjE0
MDAwNzU0WjCBhTELMAkGA1UEBhMCVVMxIDAeBgNVBAoMF1dlbGxzIEZhcmdvIFdl
bGxzU2VjdXJlMRwwGgYDVQQLDBNXZWxscyBGYXJnbyBCYW5rIE5BMTYwNAYDVQQD
DC1XZWxsc1NlY3VyZSBQdWJsaWMgUm9vdCBDZXJ0aWZpY2F0ZSBBdXRob3JpdHkw
ggEiMA0GCSqGSIb3DQEBAQUAA4IBDwAwggEKAoIBAQDub7S9eeKPCCGeOARBJe+r
WxxTkqxtnt3CxC5FlAM1iGd0V+PfjLindo8796jE2yljDpFoNoqXjopxaAkH5OjU
Dk/41itMpBb570OYj7OeUt9tkTmPOL13i0Nj67eT/DBMHAGTthP796EfvyXhdDcs
HqRePGj4S78NuR4uNuip5Kf4D8uCdXw1LSLWwr8L87T8bJVhHlfXBIEyg1J55oNj
z7fLY4sR4r1e6/aN7ZVyKLSsEmLpSjPmgzKuBXWVvYSV2ypcm44uDLiBK0HmOFaf
SZtsdvqKXfcBeYF8wYNABf5x/Qw/zE5gCQ5lRxAvAcAFP4/4s0HvWkJ+We/Slwxl
AgMBAAGjggE0MIIBMDAPBgNVHRMBAf8EBTADAQH/MDkGA1UdHwQyMDAwLqAsoCqG
KGh0dHA6Ly9jcmwucGtpLndlbGxzZmFyZ28uY29tL3dzcHJjYS5jcmwwDgYDVR0P
AQH/BAQDAgHGMB0GA1UdDgQWBBQmlRkQ2eihl5H/3BnZtQQ+0nMKajCBsgYDVR0j
BIGqMIGngBQmlRkQ2eihl5H/3BnZtQQ+0nMKaqGBi6SBiDCBhTELMAkGA1UEBhMC
VVMxIDAeBgNVBAoMF1dlbGxzIEZhcmdvIFdlbGxzU2VjdXJlMRwwGgYDVQQLDBNX
ZWxscyBGYXJnbyBCYW5rIE5BMTYwNAYDVQQDDC1XZWxsc1NlY3VyZSBQdWJsaWMg
Um9vdCBDZXJ0aWZpY2F0ZSBBdXRob3JpdHmCAQEwDQYJKoZIhvcNAQEFBQADggEB
ALkVsUSRzCPIK0134/iaeycNzXK7mQDKfGYZUMbVmO2rvwNa5U3lHshPcZeG1eMd
/ZDJPHV3V3p9+N701NX3leZ0bh08rnyd2wIDBSxxSyU+B+NemvVmFymIGjifz6pB
A4SXa5M4esowRBskRDPQ5NHcKDj0E0M1NSljqHyita04pO2t/caaH/+Xc/77szWn
k4bGdpEA5qxRFsQnMlzbc9qlk1eOPm01JghZ1edE13YgY+esE2fDbbFwRnzVlhE9
iW9dqKHrjQrawx0zbKPqZxmamX9LPYNRKh3KL4YMon4QLSvUFpULB6ouFJJJtylv
2G0xffX8oRAHh84vWdw+WNs=
-----END CERTIFICATE-----
