Certificate:
    Data:
        Version: 3 (0x2)
        Serial Number: 1 (0x1)
    Signature Algorithm: md5WithRSAEncryption
        Issuer: C=ZA, ST=Western Cape, L=Cape Town, O=Thawte Consulting cc, OU=Certification Services Division, CN=Thawte Premium Server CA/emailAddress=premium-server@thawte.com
        Validity
            Not Before: Aug  1 00:00:00 1996 GMT
            Not After : Dec 31 23:59:59 2020 GMT
        Subject: C=ZA, ST=Western Cape, L=Cape Town, O=Thawte Consulting cc, OU=Certification Services Division, CN=Thawte Premium Server CA/emailAddress=premium-server@thawte.com
        Subject Public Key Info:
            Public Key Algorithm: rsaEncryption
                Public-Key: (1024 bit)
                Modulus:
                    00:d2:36:36:6a:8b:d7:c2:5b:9e:da:81:41:62:8f:
                    38:ee:49:04:55:d6:d0:ef:1c:1b:95:16:47:ef:18:
                    48:35:3a:52:f4:2b:6a:06:8f:3b:2f:ea:56:e3:af:
                    86:8d:9e:17:f7:9e:b4:65:75:02:4d:ef:cb:09:a2:
                    21:51:d8:9b:d0:67:d0:ba:0d:92:06:14:73:d4:93:
                    cb:97:2a:00:9c:5c:4e:0c:bc:fa:15:52:fc:f2:44:
                    6e:da:11:4a:6e:08:9f:2f:2d:e3:f9:aa:3a:86:73:
                    b6:46:53:58:c8:89:05:bd:83:11:b8:73:3f:aa:07:
                    8d:f4:42:4d:e7:40:9d:1c:37
                Exponent: 65537 (0x10001)
        X509v3 extensions:
            X509v3 Basic Constraints: critical
                CA:TRUE
    Signature Algorithm: md5WithRSAEncryption
         26:48:2c:16:c2:58:fa:e8:16:74:0c:aa:aa:5f:54:3f:f2:d7:
         c9:78:60:5e:5e:6e:37:63:22:77:36:7e:b2:17:c4:34:b9:f5:
         08:85:fc:c9:01:38:ff:4d:be:f2:16:42:43:e7:bb:5a:46:fb:
         c1:c6:11:1f:f1:4a:b0:28:46:c9:c3:c4:42:7d:bc:fa:ab:59:
         6e:d5:b7:51:88:11:e3:a4:85:19:6b:82:4c:a4:0c:12:ad:e9:
         a4:ae:3f:f1:c3:49:65:9a:8c:c5:c8:3e:25:b7:94:99:bb:92:
         32:71:07:f0:86:5e:ed:50:27:a6:0d:a6:23:f9:bb:cb:a6:07:
         14:42
-----BEGIN CERTIFICATE-----
MIIDJzCCApCgAwIBAgIBATANBgkqhkiG9w0BAQQFADCBzjELMAkGA1UEBhMCWkEx
FTATBgNVBAgTDFdlc3Rlcm4gQ2FwZTESMBAGA1UEBxMJQ2FwZSBUb3duMR0wGwYD
VQQKExRUaGF3dGUgQ29uc3VsdGluZyBjYzEoMCYGA1UECxMfQ2VydGlmaWNhdGlv
biBTZXJ2aWNlcyBEaXZpc2lvbjEhMB8GA1UEAxMYVGhhd3RlIFByZW1pdW0gU2Vy
dmVyIENBMSgwJgYJKoZIhvcNAQkBFhlwcmVtaXVtLXNlcnZlckB0aGF3dGUuY29t
MB4XDTk2MDgwMTAwMDAwMFoXDTIwMTIzMTIzNTk1OVowgc4xCzAJBgNVBAYTAlpB
MRUwEwYDVQQIEwxXZXN0ZXJuIENhcGUxEjAQBgNVBAcTCUNhcGUgVG93bjEdMBsG
A1UEChMUVGhhd3RlIENvbnN1bHRpbmcgY2MxKDAmBgNVBAsTH0NlcnRpZmljYXRp
b24gU2VydmljZXMgRGl2aXNpb24xITAfBgNVBAMTGFRoYXd0ZSBQcmVtaXVtIFNl
cnZlciBDQTEoMCYGCSqGSIb3DQEJARYZcHJlbWl1bS1zZXJ2ZXJAdGhhd3RlLmNv
bTCBnzANBgkqhkiG9w0BAQEFAAOBjQAwgYkCgYEA0jY2aovXwlue2oFBYo847kkE
VdbQ7xwblRZH7xhINTpS9CtqBo87L+pW46+GjZ4X9560ZXUCTe/LCaIhUdib0GfQ
ug2SBhRz1JPLlyoAnFxODLz6FVL88kRu2hFKbgifLy3j+ao6hnO2RlNYyIkFvYMR
uHM/qgeN9EJN50CdHDcCAwEAAaMTMBEwDwYDVR0TAQH/BAUwAwEB/zANBgkqhkiG
9w0BAQQFAAOBgQAmSCwWwlj66BZ0DKqqX1Q/8tfJeGBeXm43YyJ3Nn6yF8Q0ufUI
hfzJATj/Tb7yFkJD57taRvvBxhEf8UqwKEbJw8RCfbz6q1lu1bdRiBHjpIUZa4JM
pAwSremkrj/xw0llmozFyD4lt5SZu5IycQfwhl7tUCemDaYj+bvLpgcUQg==
-----END CERTIFICATE-----
