Certificate:
    Data:
        Version: 3 (0x2)
        Serial Number: 2 (0x2)
    Signature Algorithm: sha1WithRSAEncryption
        Issuer: C=NO, O=Buypass AS-983163327, CN=Buypass Class 3 CA 1
        Validity
            Not Before: May  9 14:13:03 2005 GMT
            Not After : May  9 14:13:03 2015 GMT
        Subject: C=NO, O=Buypass AS-983163327, CN=Buypass Class 3 CA 1
        Subject Public Key Info:
            Public Key Algorithm: rsaEncryption
                Public-Key: (2048 bit)
                Modulus:
                    00:a4:8e:d7:74:d9:29:64:de:5f:1f:87:80:91:ea:
                    4e:39:e6:19:c6:44:0b:80:d5:0b:af:53:07:8b:12:
                    bd:e6:67:f0:02:b1:89:f6:60:8a:c4:5b:b0:42:d1:
                    c0:21:a8:cb:e1:9b:ef:64:51:b6:a7:cf:15:f5:74:
                    80:68:04:90:a0:58:a2:e6:74:a6:53:53:55:48:63:
                    3f:92:56:dd:24:4e:8e:f8:ba:2b:ff:f3:34:8a:9e:
                    28:d7:34:9f:ac:2f:d6:0f:f1:a4:2f:bd:52:b2:49:
                    85:6d:39:35:f0:44:30:93:46:24:f3:b6:e7:53:fb:
                    bc:61:af:a9:a3:14:fb:c2:17:17:84:6c:e0:7c:88:
                    f8:c9:1c:57:2c:f0:3d:7e:94:bc:25:93:84:e8:9a:
                    00:9a:45:05:42:57:80:f4:4e:ce:d9:ae:39:f6:c8:
                    53:10:0c:65:3a:47:7b:60:c2:d6:fa:91:c9:c6:71:
                    6c:bd:91:87:3c:91:86:49:ab:f3:0f:a0:6c:26:76:
                    5e:1c:ac:9b:71:e5:8d:bc:9b:21:1e:9c:d6:38:7e:
                    24:80:15:31:82:96:b1:49:d3:62:37:5b:88:0c:0a:
                    62:34:fe:a7:48:7e:99:b1:30:8b:90:37:95:1c:a8:
                    1f:a5:2c:8d:f4:55:c8:db:dd:59:0a:c2:ad:78:a0:
                    f4:8b
                Exponent: 65537 (0x10001)
        X509v3 extensions:
            X509v3 Basic Constraints: critical
                CA:TRUE
            X509v3 Subject Key Identifier: 
                38:14:E6:C8:F0:A9:A4:03:F4:4E:3E:22:A3:5B:F2:D6:E0:AD:40:74
            X509v3 Key Usage: critical
                Certificate Sign, CRL Sign
    Signature Algorithm: sha1WithRSAEncryption
         01:67:a3:8c:c9:25:3d:13:63:5d:16:6f:ec:a1:3e:09:5c:91:
         15:2a:2a:d9:80:21:4f:05:dc:bb:a5:89:ab:13:33:2a:9e:38:
         b7:8c:6f:02:72:63:c7:73:77:1e:09:06:ba:3b:28:7b:a4:47:
         c9:61:6b:08:08:20:fc:8a:05:8a:1f:bc:ba:c6:c2:fe:cf:6e:
         ec:13:33:71:67:2e:69:fa:a9:2c:3f:66:c0:12:59:4d:0b:54:
         02:92:84:bb:db:12:ef:83:70:70:78:c8:53:fa:df:c6:c6:ff:
         dc:88:2f:07:c0:49:9d:32:57:60:d3:f2:f6:99:29:5f:e7:aa:
         01:cc:ac:33:a8:1c:0a:bb:91:c4:03:a0:6f:b6:34:f9:86:d3:
         b3:76:54:98:f4:4a:81:b3:53:9d:4d:40:ec:e5:77:13:45:af:
         5b:aa:1f:d8:2f:4c:82:7b:fe:2a:c4:58:bb:4f:fc:9e:fd:03:
         65:1a:2a:0e:c3:a5:20:16:94:6b:79:a6:a2:12:b4:bb:1a:a4:
         23:7a:5f:f0:ae:84:24:e4:f3:2b:fb:8a:24:a3:27:98:65:da:
         30:75:76:fc:19:91:e8:db:eb:9b:3f:32:bf:40:97:07:26:ba:
         cc:f3:94:85:4a:7a:27:93:cf:90:42:d4:b8:5b:16:a6:e7:cb:
         40:03:dd:79
-----BEGIN CERTIFICATE-----
MIIDUzCCAjugAwIBAgIBAjANBgkqhkiG9w0BAQUFADBLMQswCQYDVQQGEwJOTzEd
MBsGA1UECgwUQnV5cGFzcyBBUy05ODMxNjMzMjcxHTAbBgNVBAMMFEJ1eXBhc3Mg
Q2xhc3MgMyBDQSAxMB4XDTA1MDUwOTE0MTMwM1oXDTE1MDUwOTE0MTMwM1owSzEL
MAkGA1UEBhMCTk8xHTAbBgNVBAoMFEJ1eXBhc3MgQVMtOTgzMTYzMzI3MR0wGwYD
VQQDDBRCdXlwYXNzIENsYXNzIDMgQ0EgMTCCASIwDQYJKoZIhvcNAQEBBQADggEP
ADCCAQoCggEBAKSO13TZKWTeXx+HgJHqTjnmGcZEC4DVC69TB4sSveZn8AKxifZg
isRbsELRwCGoy+Gb72RRtqfPFfV0gGgEkKBYouZ0plNTVUhjP5JW3SROjvi6K//z
NIqeKNc0n6wv1g/xpC+9UrJJhW05NfBEMJNGJPO251P7vGGvqaMU+8IXF4Rs4HyI
+MkcVyzwPX6UvCWThOiaAJpFBUJXgPROztmuOfbIUxAMZTpHe2DC1vqRycZxbL2R
hzyRhkmr8w+gbCZ2Xhysm3HljbybIR6c1jh+JIAVMYKWsUnTYjdbiAwKYjT+p0h+
mbEwi5A3lRyoH6UsjfRVyNvdWQrCrXig9IsCAwEAAaNCMEAwDwYDVR0TAQH/BAUw
AwEB/zAdBgNVHQ4EFgQUOBTmyPCppAP0Tj4io1vy1uCtQHQwDgYDVR0PAQH/BAQD
AgEGMA0GCSqGSIb3DQEBBQUAA4IBAQABZ6OMySU9E2NdFm/soT4JXJEVKirZgCFP
Bdy7pYmrEzMqnji3jG8CcmPHc3ceCQa6Oyh7pEfJYWsICCD8igWKH7y6xsL+z27s
EzNxZy5p+qksP2bAEllNC1QCkoS72xLvg3BweMhT+t/Gxv/ciC8HwEmdMldg0/L2
mSlf56oBzKwzqBwKu5HEA6BvtjT5htOzdlSY9EqBs1OdTUDs5XcTRa9bqh/YL0yC
e/4qxFi7T/ye/QNlGioOw6UgFpRreaaiErS7GqQjel/wroQk5PMr+4okoyeYZdow
dXb8GZHo2+ubPzK/QJcHJrrM85SFSnonk8+QQtS4Wxam58tAA915
-----END CERTIFICATE-----
