Certificate:
    Data:
        Version: 3 (0x2)
        Serial Number:
            f2:fa:64:e2:74:63:d3:8d:fd:10:1d:04:1f:76:ca:58
    Signature Algorithm: sha256WithRSAEncryption
        Issuer: C=ch, O=Swisscom, OU=Digital Certificate Services, CN=Swisscom Root EV CA 2
        Validity
            Not Before: Jun 24 09:45:08 2011 GMT
            Not After : Jun 25 08:45:08 2031 GMT
        Subject: C=ch, O=Swisscom, OU=Digital Certificate Services, CN=Swisscom Root EV CA 2
        Subject Public Key Info:
            Public Key Algorithm: rsaEncryption
                Public-Key: (4096 bit)
                Modulus:
                    00:c4:f7:1d:2f:57:ea:57:6c:f7:70:5d:63:b0:71:
                    52:09:60:44:28:33:a3:7a:4e:0a:fa:d8:ea:6c:8b:
                    51:16:1a:55:ae:54:26:c4:cc:45:07:41:4f:10:79:
                    7f:71:d2:7a:4e:3f:38:4e:b3:00:c6:95:ca:5b:cd:
                    c1:2a:83:d7:27:1f:31:0e:23:16:b7:25:cb:1c:b4:
                    b9:80:32:5e:1a:9d:93:f1:e8:3c:60:2c:a7:5e:57:
                    19:58:51:5e:bc:2c:56:0b:b8:d8:ef:8b:82:b4:3c:
                    b8:c2:24:a8:13:c7:a0:21:36:1b:7a:57:29:28:a7:
                    2e:bf:71:25:90:f3:44:83:69:50:a4:e4:e1:1b:62:
                    19:94:09:a3:f3:c3:bc:ef:f4:bd:ec:db:13:9d:cf:
                    9d:48:09:52:67:c0:37:29:11:1e:fb:d2:11:a7:85:
                    18:74:79:e4:4f:85:14:eb:52:37:e2:b1:45:d8:cc:
                    0d:43:7f:ae:13:d2:6b:2b:3f:a7:c2:e2:a8:6d:76:
                    5b:43:9f:be:b4:9d:b3:26:86:3b:1f:7f:e5:f2:e8:
                    66:28:16:25:d0:4b:97:38:a7:e4:cf:09:d1:36:c3:
                    0b:be:da:3b:44:58:8d:be:f1:9e:09:6b:3e:f3:32:
                    c7:2b:87:c6:ec:5e:9c:f6:87:65:ad:33:29:c4:2f:
                    89:d9:b9:cb:c9:03:9d:fb:6c:94:51:97:10:1b:86:
                    0b:1a:1b:3f:f6:02:7e:7b:d4:c5:51:64:28:9d:f5:
                    d3:ac:83:81:88:d3:74:b4:59:9d:c1:eb:61:33:5a:
                    45:d1:cb:39:d0:06:6a:53:60:1d:af:f6:fb:69:bc:
                    6a:dc:01:cf:bd:f9:8f:d9:bd:5b:c1:3a:5f:8e:da:
                    0f:4b:a9:9b:9d:2a:28:6b:1a:0a:7c:3c:ab:22:0b:
                    e5:77:2d:71:f6:82:35:81:ae:f8:7b:81:e6:ea:fe:
                    ac:f4:1a:9b:74:5c:e8:8f:24:f6:5d:9d:46:c4:2c:
                    d2:1e:2b:21:6a:83:27:67:55:4a:a4:e3:c8:32:97:
                    66:90:72:da:e3:d4:64:2e:5f:e3:a1:6a:f6:60:d4:
                    e7:35:cd:ca:c4:68:8d:d7:71:c8:d3:24:33:73:b1:
                    6c:f9:6a:e1:28:db:5f:c6:3d:e8:be:55:e6:37:1b:
                    ed:24:d9:0f:19:8f:5f:63:18:58:50:81:51:65:6f:
                    f2:9f:7e:6a:04:e7:34:24:71:ba:76:4b:58:1e:19:
                    bd:15:60:45:aa:0c:12:40:01:9d:10:e2:c7:38:07:
                    72:0a:65:c0:b6:bb:25:29:da:16:9e:8b:35:8b:61:
                    ed:e5:71:57:83:b5:3c:71:9f:e3:4f:bf:7e:1e:81:
                    9f:41:97
                Exponent: 65537 (0x10001)
        X509v3 extensions:
            X509v3 Key Usage: critical
                Digital Signature, Certificate Sign, CRL Sign
            X509v3 Policy Mappings: 
                2.16.756.1.83.2.2:2.16.756.1.83.2.2
            X509v3 Basic Constraints: critical
                CA:TRUE, pathlen:3
            X509v3 Subject Key Identifier: 
                45:D9:A5:81:6E:3D:88:4D:8D:71:D2:46:C1:6E:45:1E:F3:C4:80:9D
            X509v3 Authority Key Identifier: 
                keyid:45:D9:A5:81:6E:3D:88:4D:8D:71:D2:46:C1:6E:45:1E:F3:C4:80:9D

    Signature Algorithm: sha256WithRSAEncryption
         94:3a:73:06:9f:52:4b:30:5c:d4:fe:b1:5c:25:f9:d7:8e:6f:
         f5:87:64:9f:ed:14:8e:b8:04:8e:28:4b:8f:aa:7b:8e:39:b4:
         d9:58:f6:7b:a1:35:0a:a1:9d:8a:f7:63:e5:eb:bd:39:82:d4:
         e3:7a:2d:6f:df:13:3c:ba:fe:7e:56:98:0b:f3:54:9f:cd:44:
         4e:6e:3c:e1:3e:15:bf:06:26:9d:e4:f0:90:b6:d4:c2:9e:30:
         2e:1f:ef:c7:7a:c4:50:c7:ea:7b:da:50:cb:7a:26:cb:00:b4:
         5a:ab:b5:93:1f:80:89:84:04:95:8d:8d:7f:09:93:bf:d4:a8:
         a8:e4:63:6d:d9:64:e4:b8:29:5a:08:bf:50:e1:84:0f:55:7b:
         5f:08:22:1b:f5:bd:99:1e:14:f6:ce:f4:58:10:82:b3:0a:3d:
         19:c1:bf:5b:ab:aa:99:d8:f2:31:bd:e5:38:66:dc:58:05:c7:
         ed:63:1a:2e:0a:97:7c:87:93:2b:b2:8a:e3:f1:ec:18:e5:75:
         b6:29:87:e7:dc:8b:1a:7e:b4:d8:c9:d3:8a:17:6c:7d:29:44:
         be:8a:aa:f5:7e:3a:2e:68:31:93:b9:6a:da:9a:e0:db:e9:2e:
         a5:84:cd:1c:0a:b8:4a:08:f9:9c:f1:61:26:98:93:b7:7b:66:
         ec:91:5e:dd:51:3f:db:73:0f:ad:04:58:09:dd:04:02:95:0a:
         3e:d3:76:df:a6:10:1e:80:3d:e8:cd:a4:64:d1:33:c7:92:c7:
         e2:4e:44:e3:09:c9:4e:c2:5d:87:0e:12:9e:bf:0f:c9:05:10:
         de:7a:a3:b1:3c:f2:3f:a5:aa:27:79:ad:31:7d:1f:fd:fc:19:
         69:c5:dd:b9:3f:7c:cd:c6:b4:c2:30:1e:7e:6e:92:d7:7f:61:
         76:5a:8f:eb:95:4d:bc:11:6e:21:7c:59:37:99:d0:06:bc:f9:
         06:6d:32:16:a5:d9:69:a8:e1:dc:3c:80:1e:60:51:dc:d7:54:
         21:1e:ca:62:77:4f:fa:d8:8f:b3:2b:3a:0d:78:72:c9:68:41:
         5a:47:4a:c2:a3:eb:1a:d7:0a:ab:3c:32:55:c8:0a:11:9c:df:
         74:d6:f0:40:15:1d:c8:b9:8f:b5:36:c5:af:f8:22:b8:ca:1d:
         f3:d6:b6:19:0f:9f:61:65:6a:ea:74:c8:7c:8f:c3:4f:5d:65:
         82:1f:d9:0d:89:da:75:72:fb:ef:f1:47:67:13:b3:c8:d1:19:
         88:27:26:9a:99:79:7f:1e:e4:2c:3f:7b:ee:f1:de:4d:8b:96:
         97:c3:d5:3f:7c:1b:23:ed:a4:b3:1d:16:72:43:4b:20:e1:59:
         7e:c2:e8:ad:26:bf:a2:f7
-----BEGIN CERTIFICATE-----
MIIF4DCCA8igAwIBAgIRAPL6ZOJ0Y9ON/RAdBB92ylgwDQYJKoZIhvcNAQELBQAw
ZzELMAkGA1UEBhMCY2gxETAPBgNVBAoTCFN3aXNzY29tMSUwIwYDVQQLExxEaWdp
dGFsIENlcnRpZmljYXRlIFNlcnZpY2VzMR4wHAYDVQQDExVTd2lzc2NvbSBSb290
IEVWIENBIDIwHhcNMTEwNjI0MDk0NTA4WhcNMzEwNjI1MDg0NTA4WjBnMQswCQYD
VQQGEwJjaDERMA8GA1UEChMIU3dpc3Njb20xJTAjBgNVBAsTHERpZ2l0YWwgQ2Vy
dGlmaWNhdGUgU2VydmljZXMxHjAcBgNVBAMTFVN3aXNzY29tIFJvb3QgRVYgQ0Eg
MjCCAiIwDQYJKoZIhvcNAQEBBQADggIPADCCAgoCggIBAMT3HS9X6lds93BdY7Bx
UglgRCgzo3pOCvrY6myLURYaVa5UJsTMRQdBTxB5f3HSek4/OE6zAMaVylvNwSqD
1ycfMQ4jFrclyxy0uYAyXhqdk/HoPGAsp15XGVhRXrwsVgu42O+LgrQ8uMIkqBPH
oCE2G3pXKSinLr9xJZDzRINpUKTk4RtiGZQJo/PDvO/0vezbE53PnUgJUmfANykR
HvvSEaeFGHR55E+FFOtSN+KxRdjMDUN/rhPSays/p8LiqG12W0OfvrSdsyaGOx9/
5fLoZigWJdBLlzin5M8J0TbDC77aO0RYjb7xnglrPvMyxyuHxuxenPaHZa0zKcQv
idm5y8kDnftslFGXEBuGCxobP/YCfnvUxVFkKJ3106yDgYjTdLRZncHrYTNaRdHL
OdAGalNgHa/2+2m8atwBz735j9m9W8E6X47aD0upm50qKGsaCnw8qyIL5XctcfaC
NYGu+HuB5ur+rPQam3Rc6I8k9l2dRsQs0h4rIWqDJ2dVSqTjyDKXZpBy2uPUZC5f
46Fq9mDU5zXNysRojddxyNMkM3OxbPlq4SjbX8Y96L5V5jcb7STZDxmPX2MYWFCB
UWVv8p9+agTnNCRxunZLWB4ZvRVgRaoMEkABnRDixzgHcgplwLa7JSnaFp6LNYth
7eVxV4O1PHGf40+/fh6Bn0GXAgMBAAGjgYYwgYMwDgYDVR0PAQH/BAQDAgGGMB0G
A1UdIQQWMBQwEgYHYIV0AVMCAgYHYIV0AVMCAjASBgNVHRMBAf8ECDAGAQH/AgED
MB0GA1UdDgQWBBRF2aWBbj2ITY1x0kbBbkUe88SAnTAfBgNVHSMEGDAWgBRF2aWB
bj2ITY1x0kbBbkUe88SAnTANBgkqhkiG9w0BAQsFAAOCAgEAlDpzBp9SSzBc1P6x
XCX5145v9Ydkn+0UjrgEjihLj6p7jjm02Vj2e6E1CqGdivdj5eu9OYLU43otb98T
PLr+flaYC/NUn81ETm484T4VvwYmneTwkLbUwp4wLh/vx3rEUMfqe9pQy3omywC0
Wqu1kx+AiYQElY2NfwmTv9SoqORjbdlk5LgpWgi/UOGED1V7XwgiG/W9mR4U9s70
WBCCswo9GcG/W6uqmdjyMb3lOGbcWAXH7WMaLgqXfIeTK7KK4/HsGOV1timH59yL
Gn602MnTihdsfSlEvoqq9X46Lmgxk7lq2prg2+kupYTNHAq4Sgj5nPFhJpiTt3tm
7JFe3VE/23MPrQRYCd0EApUKPtN236YQHoA96M2kZNEzx5LH4k5E4wnJTsJdhw4S
nr8PyQUQ3nqjsTzyP6WqJ3mtMX0f/fwZacXduT98zca0wjAefm6S139hdlqP65VN
vBFuIXxZN5nQBrz5Bm0yFqXZaajh3DyAHmBR3NdUIR7KYndP+tiPsys6DXhyyWhB
WkdKwqPrGtcKqzwyVcgKEZzfdNbwQBUdyLmPtTbFr/giuMod89a2GQ+fYWVq6nTI
fI/DT11lgh/ZDYnadXL77/FHZxOzyNEZiCcmmpl5fx7kLD977vHeTYuWl8PVP3wb
I+2ksx0WckNLIOFZfsLorSa/ovc=
-----END CERTIFICATE-----
