[Created by: generate-chains.py]

Valid certificate chain where the target certificate contains a public key
with a 512-bit modulus (weak).

Certificate:
    Data:
        Version: 3 (0x2)
        Serial Number:
            67:e6:43:1c:a1:b5:ee:5f:34:22:dc:ea:e2:6b:c2:18:43:17:fb:dd
    Signature Algorithm: sha256WithRSAEncryption
        Issuer: CN=Intermediate
        Validity
            Not Before: Mar 10 12:00:00 2018 GMT
            Not After : Jan  1 12:00:00 2021 GMT
        Subject: CN=Target
        Subject Public Key Info:
            Public Key Algorithm: rsaEncryption
                Public-Key: (512 bit)
                Modulus:
                    00:d5:13:bb:52:bf:ca:19:1a:06:19:68:07:1d:e6:
                    87:16:d3:f0:e0:12:ba:a2:b5:2a:3d:ed:b3:64:16:
                    06:a3:50:fc:b0:a4:49:f2:f9:ab:34:ad:4f:db:0a:
                    3d:2b:25:92:86:3f:94:df:fb:fc:54:f2:c7:6d:9e:
                    d2:10:e0:cd:0d
                Exponent: 65537 (0x10001)
        X509v3 extensions:
            X509v3 Subject Key Identifier: 
                E9:D8:44:8D:24:EE:A1:82:18:6F:21:FA:4E:EC:FB:DF:D1:91:57:9D
            X509v3 Authority Key Identifier: 
                keyid:CC:47:D8:FF:8B:67:33:FB:F5:CD:D0:A7:B6:12:A0:19:27:27:D1:57

            Authority Information Access: 
                CA Issuers - URI:http://url-for-aia/Intermediate.cer

            X509v3 CRL Distribution Points: 

                Full Name:
                  URI:http://url-for-crl/Intermediate.crl

            X509v3 Key Usage: critical
                Digital Signature, Key Encipherment
            X509v3 Extended Key Usage: 
                TLS Web Server Authentication, TLS Web Client Authentication
    Signature Algorithm: sha256WithRSAEncryption
         6b:ff:79:f3:1f:ae:ab:19:9e:06:3d:de:9d:6b:cc:b1:a5:a0:
         92:d3:30:fc:2c:61:82:55:6e:c7:63:eb:61:44:ef:74:b2:6b:
         fa:3b:85:d7:2b:44:7c:1d:eb:ff:5f:1d:a0:07:3e:dd:e4:07:
         5a:5b:7d:ed:62:e6:6a:a0:b1:58:b4:e3:65:2a:09:92:48:78:
         54:8e:67:18:70:7b:c7:b2:21:41:88:02:6c:ce:29:05:01:6c:
         19:bd:f6:2e:ba:85:1a:96:00:b0:6f:67:2f:50:83:d8:ae:0b:
         48:30:9e:f7:11:9a:7b:60:78:3d:09:f5:8b:42:b4:e2:4f:2d:
         a9:43:ae:5f:71:27:c2:44:92:19:81:c1:5d:0e:28:6d:e6:59:
         04:d2:6d:05:c6:ff:dc:e0:d8:36:fc:9b:ba:9e:6e:bc:2b:5d:
         c9:be:2c:bf:69:7e:0a:fb:a6:fc:1c:53:97:b3:20:71:57:bb:
         ed:56:2a:75:63:de:78:91:29:03:de:21:75:4b:40:6f:e1:5b:
         ad:4c:ce:fd:44:47:0b:10:4f:f6:cb:f8:cd:3c:64:30:3f:39:
         06:77:92:48:0f:14:8f:6e:e1:70:84:22:61:78:64:68:68:29:
         e5:05:b8:d2:2e:48:8e:37:44:b1:da:1d:70:1a:b0:eb:44:df:
         cd:01:22:7e
-----BEGIN CERTIFICATE-----
MIIC2DCCAcCgAwIBAgIUZ+ZDHKG17l80Itzq4mvCGEMX+90wDQYJKoZIhvcNAQEL
BQAwFzEVMBMGA1UEAwwMSW50ZXJtZWRpYXRlMB4XDTE4MDMxMDEyMDAwMFoXDTIx
MDEwMTEyMDAwMFowETEPMA0GA1UEAwwGVGFyZ2V0MFwwDQYJKoZIhvcNAQEBBQAD
SwAwSAJBANUTu1K/yhkaBhloBx3mhxbT8OASuqK1Kj3ts2QWBqNQ/LCkSfL5qzSt
T9sKPSslkoY/lN/7/FTyx22e0hDgzQ0CAwEAAaOB6TCB5jAdBgNVHQ4EFgQU6dhE
jSTuoYIYbyH6Tuz739GRV50wHwYDVR0jBBgwFoAUzEfY/4tnM/v1zdCnthKgGScn
0VcwPwYIKwYBBQUHAQEEMzAxMC8GCCsGAQUFBzAChiNodHRwOi8vdXJsLWZvci1h
aWEvSW50ZXJtZWRpYXRlLmNlcjA0BgNVHR8ELTArMCmgJ6AlhiNodHRwOi8vdXJs
LWZvci1jcmwvSW50ZXJtZWRpYXRlLmNybDAOBgNVHQ8BAf8EBAMCBaAwHQYDVR0l
BBYwFAYIKwYBBQUHAwEGCCsGAQUFBwMCMA0GCSqGSIb3DQEBCwUAA4IBAQBr/3nz
H66rGZ4GPd6da8yxpaCS0zD8LGGCVW7HY+thRO90smv6O4XXK0R8Hev/Xx2gBz7d
5AdaW33tYuZqoLFYtONlKgmSSHhUjmcYcHvHsiFBiAJszikFAWwZvfYuuoUalgCw
b2cvUIPYrgtIMJ73EZp7YHg9CfWLQrTiTy2pQ65fcSfCRJIZgcFdDiht5lkE0m0F
xv/c4Ng2/Ju6nm68K13Jviy/aX4K+6b8HFOXsyBxV7vtVip1Y954kSkD3iF1S0Bv
4VutTM79REcLEE/2y/jNPGQwPzkGd5JIDxSPbuFwhCJheGRoaCnlBbjSLkiON0Sx
2h1wGrDrRN/NASJ+
-----END CERTIFICATE-----

Certificate:
    Data:
        Version: 3 (0x2)
        Serial Number:
            4e:42:88:cd:72:5f:2b:00:a2:67:88:f3:ee:8d:e7:a5:6b:77:3c:c6
    Signature Algorithm: sha256WithRSAEncryption
        Issuer: CN=Root
        Validity
            Not Before: Mar 10 12:00:00 2018 GMT
            Not After : Jan  1 12:00:00 2021 GMT
        Subject: CN=Intermediate
        Subject Public Key Info:
            Public Key Algorithm: rsaEncryption
                Public-Key: (2048 bit)
                Modulus:
                    00:bf:5d:ac:94:a4:6d:90:41:e2:b8:a8:23:44:d3:
                    0b:a0:16:0f:a9:d1:86:a6:7d:16:1b:0a:74:78:ef:
                    7e:fd:66:74:8d:d7:9e:d4:6b:ec:82:a7:18:59:1b:
                    a6:36:7d:b3:69:ac:5d:70:74:88:37:49:2a:5b:d2:
                    eb:db:56:de:54:f7:35:5a:3c:b6:b2:69:23:c5:f6:
                    73:95:78:80:8c:62:95:0d:2f:8d:0e:64:e2:66:2a:
                    05:7e:fd:70:23:ad:00:39:6d:2d:33:a7:00:af:37:
                    74:41:bf:67:49:bd:51:c1:54:c8:d3:1e:87:f1:87:
                    13:7a:c0:e4:20:52:15:fc:f1:4c:9e:84:30:72:93:
                    df:0e:71:94:54:7c:12:4e:4a:31:a6:77:94:8b:98:
                    35:02:fa:1f:aa:e8:51:c6:a6:6c:b9:40:3b:2d:a3:
                    3f:01:33:7d:5b:60:b3:db:12:cc:1c:a1:7f:94:4b:
                    3b:b8:2a:13:a2:da:d4:cb:5a:b7:a9:60:90:19:b5:
                    d2:83:c0:a2:84:52:44:61:1f:26:ff:3e:e2:43:32:
                    15:a4:96:33:34:3b:7c:90:4b:f0:db:7d:e8:f4:34:
                    65:60:e1:09:06:5a:1c:8a:89:6c:cc:cc:81:c7:e5:
                    d5:56:24:d6:6f:a1:2c:c8:9f:77:ab:8b:17:0b:98:
                    fe:c5
                Exponent: 65537 (0x10001)
        X509v3 extensions:
            X509v3 Subject Key Identifier: 
                CC:47:D8:FF:8B:67:33:FB:F5:CD:D0:A7:B6:12:A0:19:27:27:D1:57
            X509v3 Authority Key Identifier: 
                keyid:BE:33:72:47:C2:B1:97:41:99:C0:31:57:52:56:0C:B5:53:78:5A:A4

            Authority Information Access: 
                CA Issuers - URI:http://url-for-aia/Root.cer

            X509v3 CRL Distribution Points: 

                Full Name:
                  URI:http://url-for-crl/Root.crl

            X509v3 Key Usage: critical
                Certificate Sign, CRL Sign
            X509v3 Basic Constraints: critical
                CA:TRUE
    Signature Algorithm: sha256WithRSAEncryption
         06:61:61:24:13:63:0a:ee:a6:b5:a2:24:fd:66:4b:87:32:b1:
         a1:cb:df:52:ab:0f:6a:29:c2:ac:66:cd:0a:77:ab:45:ea:ac:
         6e:d8:39:7d:24:d9:53:16:1e:d6:e7:ba:7b:89:71:58:a9:a9:
         99:f9:a0:9b:5e:15:4b:7f:eb:65:38:2b:ed:99:1f:d3:55:2f:
         b0:22:78:63:61:e8:76:82:e1:55:fa:7b:43:c8:c8:00:bd:6c:
         17:14:99:f1:b6:03:1d:7c:69:d5:5f:7e:fd:35:f8:bf:39:3e:
         84:65:64:3c:8d:75:ad:75:d2:42:40:e7:09:47:f2:40:db:81:
         47:2c:16:ff:19:0d:2f:9c:38:9d:a3:3d:5d:c3:67:37:e7:b7:
         60:6c:ba:e5:52:0e:01:3f:aa:9d:dc:df:ca:21:21:a3:8f:dd:
         4d:63:04:e7:40:80:ad:74:0a:51:45:d0:55:d1:72:2f:30:d9:
         ce:ae:f2:33:15:71:94:c3:9f:d3:b8:81:bf:1d:48:05:98:cb:
         a3:70:4b:4b:d8:39:2e:02:79:28:38:16:a8:6a:e0:57:4f:c0:
         83:ff:2d:1a:4c:6a:f3:7d:81:3f:99:49:a3:0c:b8:59:0c:b6:
         8b:c8:73:a1:64:85:ff:b6:d1:a0:9b:1d:b0:f7:fc:1b:e5:57:
         ad:ff:18:0e
-----BEGIN CERTIFICATE-----
MIIDgDCCAmigAwIBAgIUTkKIzXJfKwCiZ4jz7o3npWt3PMYwDQYJKoZIhvcNAQEL
BQAwDzENMAsGA1UEAwwEUm9vdDAeFw0xODAzMTAxMjAwMDBaFw0yMTAxMDExMjAw
MDBaMBcxFTATBgNVBAMMDEludGVybWVkaWF0ZTCCASIwDQYJKoZIhvcNAQEBBQAD
ggEPADCCAQoCggEBAL9drJSkbZBB4rioI0TTC6AWD6nRhqZ9FhsKdHjvfv1mdI3X
ntRr7IKnGFkbpjZ9s2msXXB0iDdJKlvS69tW3lT3NVo8trJpI8X2c5V4gIxilQ0v
jQ5k4mYqBX79cCOtADltLTOnAK83dEG/Z0m9UcFUyNMeh/GHE3rA5CBSFfzxTJ6E
MHKT3w5xlFR8Ek5KMaZ3lIuYNQL6H6roUcambLlAOy2jPwEzfVtgs9sSzByhf5RL
O7gqE6La1Mtat6lgkBm10oPAooRSRGEfJv8+4kMyFaSWMzQ7fJBL8Nt96PQ0ZWDh
CQZaHIqJbMzMgcfl1VYk1m+hLMifd6uLFwuY/sUCAwEAAaOByzCByDAdBgNVHQ4E
FgQUzEfY/4tnM/v1zdCnthKgGScn0VcwHwYDVR0jBBgwFoAUvjNyR8Kxl0GZwDFX
UlYMtVN4WqQwNwYIKwYBBQUHAQEEKzApMCcGCCsGAQUFBzAChhtodHRwOi8vdXJs
LWZvci1haWEvUm9vdC5jZXIwLAYDVR0fBCUwIzAhoB+gHYYbaHR0cDovL3VybC1m
b3ItY3JsL1Jvb3QuY3JsMA4GA1UdDwEB/wQEAwIBBjAPBgNVHRMBAf8EBTADAQH/
MA0GCSqGSIb3DQEBCwUAA4IBAQAGYWEkE2MK7qa1oiT9ZkuHMrGhy99Sqw9qKcKs
Zs0Kd6tF6qxu2Dl9JNlTFh7W57p7iXFYqamZ+aCbXhVLf+tlOCvtmR/TVS+wInhj
Yeh2guFV+ntDyMgAvWwXFJnxtgMdfGnVX379Nfi/OT6EZWQ8jXWtddJCQOcJR/JA
24FHLBb/GQ0vnDidoz1dw2c357dgbLrlUg4BP6qd3N/KISGjj91NYwTnQICtdApR
RdBV0XIvMNnOrvIzFXGUw5/TuIG/HUgFmMujcEtL2DkuAnkoOBaoauBXT8CD/y0a
TGrzfYE/mUmjDLhZDLaLyHOhZIX/ttGgmx2w9/wb5Vet/xgO
-----END CERTIFICATE-----

Certificate:
    Data:
        Version: 3 (0x2)
        Serial Number:
            4e:42:88:cd:72:5f:2b:00:a2:67:88:f3:ee:8d:e7:a5:6b:77:3c:c5
    Signature Algorithm: sha256WithRSAEncryption
        Issuer: CN=Root
        Validity
            Not Before: Mar 10 12:00:00 2018 GMT
            Not After : Jan  1 12:00:00 2021 GMT
        Subject: CN=Root
        Subject Public Key Info:
            Public Key Algorithm: rsaEncryption
                Public-Key: (2048 bit)
                Modulus:
                    00:ca:3f:f8:1f:42:8f:55:98:f8:9f:fb:94:03:42:
                    2a:c1:42:3a:2b:2a:f3:54:14:f3:fe:67:25:24:d3:
                    9a:7f:66:1a:60:0b:9d:d8:bd:65:71:b5:f5:d9:fe:
                    eb:f6:04:72:57:97:bc:23:b0:be:bd:ce:94:9e:58:
                    1a:10:e7:33:09:0b:57:a8:1c:6f:fa:f7:ce:d1:31:
                    34:90:1a:b4:60:2d:d2:7f:29:9b:4e:ec:f4:6e:99:
                    21:6b:98:9c:90:09:fc:bd:2f:55:c3:34:38:48:4a:
                    73:fe:58:e2:09:b9:d9:f9:53:f6:84:e2:5d:fc:eb:
                    3c:ba:92:f5:bc:97:cc:ef:43:54:f7:4f:c9:b4:2c:
                    86:95:32:a6:e8:91:f5:8e:31:f8:de:b5:d9:c9:3d:
                    4d:d7:24:4c:8c:58:aa:8a:c5:79:ab:e7:cd:3b:5c:
                    84:67:52:5a:88:33:c3:55:d5:a9:2e:c9:5b:61:7c:
                    87:05:c1:0b:d7:19:4a:fe:bd:ba:af:d7:e5:70:d1:
                    a4:92:08:d2:f2:ca:2b:b1:94:d0:84:57:f9:30:92:
                    fc:3a:67:82:10:6e:e3:89:9f:b3:df:75:6e:99:46:
                    bd:ce:b1:e8:ac:a2:3b:21:80:da:11:13:bd:df:93:
                    0e:0e:ee:5d:f5:39:a2:a8:f7:41:c8:cb:00:5c:ac:
                    ee:b1
                Exponent: 65537 (0x10001)
        X509v3 extensions:
            X509v3 Subject Key Identifier: 
                BE:33:72:47:C2:B1:97:41:99:C0:31:57:52:56:0C:B5:53:78:5A:A4
            X509v3 Authority Key Identifier: 
                keyid:BE:33:72:47:C2:B1:97:41:99:C0:31:57:52:56:0C:B5:53:78:5A:A4

            Authority Information Access: 
                CA Issuers - URI:http://url-for-aia/Root.cer

            X509v3 CRL Distribution Points: 

                Full Name:
                  URI:http://url-for-crl/Root.crl

            X509v3 Key Usage: critical
                Certificate Sign, CRL Sign
            X509v3 Basic Constraints: critical
                CA:TRUE
    Signature Algorithm: sha256WithRSAEncryption
         65:06:19:47:67:b2:f0:2d:7e:91:1f:96:47:1f:39:56:c9:80:
         b4:c4:f7:b7:d7:11:41:6c:95:5b:2d:d5:cb:ea:b5:5c:ce:2d:
         0a:db:1f:de:c2:d0:c4:a8:c5:32:7d:37:81:4b:2a:60:45:21:
         b2:b0:67:9f:0f:41:61:0c:1a:f6:51:78:1c:17:6b:f7:7f:25:
         2d:58:5d:f1:e3:50:a8:b0:a2:9b:23:08:a0:57:b6:74:6c:c8:
         43:25:8b:6c:94:64:e3:d8:39:dc:21:0a:40:29:5f:cc:53:69:
         77:03:25:f8:d3:4a:8d:40:f5:f0:6c:b4:b3:41:27:02:2f:36:
         37:be:a7:36:3b:4a:c0:3f:a1:fc:29:7c:d6:af:51:69:9b:12:
         e0:80:42:58:17:44:f7:0b:db:85:19:e8:c9:0c:51:27:d3:5c:
         c0:e8:49:2b:0b:dc:a1:24:c7:14:60:83:17:97:d8:30:8d:fa:
         73:7f:19:33:f0:2a:16:14:bf:1d:2f:b8:35:7e:cb:61:81:7d:
         46:b2:9c:33:88:a4:79:d5:bf:29:04:62:8d:83:4c:10:81:41:
         f9:00:8a:a3:26:59:0a:ff:df:38:8d:33:f7:7b:99:d8:82:88:
         af:46:28:a4:16:5d:a5:68:1a:12:49:bb:cb:63:95:12:a4:f9:
         1f:d6:96:07
-----BEGIN CERTIFICATE-----
MIIDeDCCAmCgAwIBAgIUTkKIzXJfKwCiZ4jz7o3npWt3PMUwDQYJKoZIhvcNAQEL
BQAwDzENMAsGA1UEAwwEUm9vdDAeFw0xODAzMTAxMjAwMDBaFw0yMTAxMDExMjAw
MDBaMA8xDTALBgNVBAMMBFJvb3QwggEiMA0GCSqGSIb3DQEBAQUAA4IBDwAwggEK
AoIBAQDKP/gfQo9VmPif+5QDQirBQjorKvNUFPP+ZyUk05p/ZhpgC53YvWVxtfXZ
/uv2BHJXl7wjsL69zpSeWBoQ5zMJC1eoHG/6987RMTSQGrRgLdJ/KZtO7PRumSFr
mJyQCfy9L1XDNDhISnP+WOIJudn5U/aE4l386zy6kvW8l8zvQ1T3T8m0LIaVMqbo
kfWOMfjetdnJPU3XJEyMWKqKxXmr5807XIRnUlqIM8NV1akuyVthfIcFwQvXGUr+
vbqv1+Vw0aSSCNLyyiuxlNCEV/kwkvw6Z4IQbuOJn7PfdW6ZRr3OseisojshgNoR
E73fkw4O7l31OaKo90HIywBcrO6xAgMBAAGjgcswgcgwHQYDVR0OBBYEFL4zckfC
sZdBmcAxV1JWDLVTeFqkMB8GA1UdIwQYMBaAFL4zckfCsZdBmcAxV1JWDLVTeFqk
MDcGCCsGAQUFBwEBBCswKTAnBggrBgEFBQcwAoYbaHR0cDovL3VybC1mb3ItYWlh
L1Jvb3QuY2VyMCwGA1UdHwQlMCMwIaAfoB2GG2h0dHA6Ly91cmwtZm9yLWNybC9S
b290LmNybDAOBgNVHQ8BAf8EBAMCAQYwDwYDVR0TAQH/BAUwAwEB/zANBgkqhkiG
9w0BAQsFAAOCAQEAZQYZR2ey8C1+kR+WRx85VsmAtMT3t9cRQWyVWy3Vy+q1XM4t
Ctsf3sLQxKjFMn03gUsqYEUhsrBnnw9BYQwa9lF4HBdr938lLVhd8eNQqLCimyMI
oFe2dGzIQyWLbJRk49g53CEKQClfzFNpdwMl+NNKjUD18Gy0s0EnAi82N76nNjtK
wD+h/Cl81q9RaZsS4IBCWBdE9wvbhRnoyQxRJ9NcwOhJKwvcoSTHFGCDF5fYMI36
c38ZM/AqFhS/HS+4NX7LYYF9RrKcM4ikedW/KQRijYNMEIFB+QCKoyZZCv/fOI0z
93uZ2IKIr0YopBZdpWgaEkm7y2OVEqT5H9aWBw==
-----END CERTIFICATE-----
